
m3a1.out:     file format elf32-littlearm


Disassembly of section .text:

00000000 <deregister_tm_clones>:
   0:	4804      	ldr	r0, [pc, #16]	; (14 <deregister_tm_clones+0x14>)
   2:	4b05      	ldr	r3, [pc, #20]	; (18 <deregister_tm_clones+0x18>)
   4:	b510      	push	{r4, lr}
   6:	4283      	cmp	r3, r0
   8:	d003      	beq.n	12 <deregister_tm_clones+0x12>
   a:	4b04      	ldr	r3, [pc, #16]	; (1c <deregister_tm_clones+0x1c>)
   c:	2b00      	cmp	r3, #0
   e:	d000      	beq.n	12 <deregister_tm_clones+0x12>
  10:	4798      	blx	r3
  12:	bd10      	pop	{r4, pc}
  14:	20000870 	andcs	r0, r0, r0, ror r8
  18:	20000870 	andcs	r0, r0, r0, ror r8
  1c:	00000000 	andeq	r0, r0, r0

00000020 <register_tm_clones>:
  20:	4806      	ldr	r0, [pc, #24]	; (3c <register_tm_clones+0x1c>)
  22:	4907      	ldr	r1, [pc, #28]	; (40 <register_tm_clones+0x20>)
  24:	1a09      	subs	r1, r1, r0
  26:	108b      	asrs	r3, r1, #2
  28:	0fc9      	lsrs	r1, r1, #31
  2a:	18c9      	adds	r1, r1, r3
  2c:	b510      	push	{r4, lr}
  2e:	1049      	asrs	r1, r1, #1
  30:	d003      	beq.n	3a <register_tm_clones+0x1a>
  32:	4b04      	ldr	r3, [pc, #16]	; (44 <register_tm_clones+0x24>)
  34:	2b00      	cmp	r3, #0
  36:	d000      	beq.n	3a <register_tm_clones+0x1a>
  38:	4798      	blx	r3
  3a:	bd10      	pop	{r4, pc}
  3c:	20000870 	andcs	r0, r0, r0, ror r8
  40:	20000870 	andcs	r0, r0, r0, ror r8
  44:	00000000 	andeq	r0, r0, r0

00000048 <__do_global_dtors_aux>:
  48:	b510      	push	{r4, lr}
  4a:	4c07      	ldr	r4, [pc, #28]	; (68 <__do_global_dtors_aux+0x20>)
  4c:	7823      	ldrb	r3, [r4, #0]
  4e:	2b00      	cmp	r3, #0
  50:	d109      	bne.n	66 <__do_global_dtors_aux+0x1e>
  52:	f7ff ffd5 	bl	0 <deregister_tm_clones>
  56:	4b05      	ldr	r3, [pc, #20]	; (6c <__do_global_dtors_aux+0x24>)
  58:	2b00      	cmp	r3, #0
  5a:	d002      	beq.n	62 <__do_global_dtors_aux+0x1a>
  5c:	4804      	ldr	r0, [pc, #16]	; (70 <__do_global_dtors_aux+0x28>)
  5e:	e000      	b.n	62 <__do_global_dtors_aux+0x1a>
  60:	bf00      	nop
  62:	2301      	movs	r3, #1
  64:	7023      	strb	r3, [r4, #0]
  66:	bd10      	pop	{r4, pc}
  68:	20000870 	andcs	r0, r0, r0, ror r8
  6c:	00000000 	andeq	r0, r0, r0
  70:	00000e54 	andeq	r0, r0, r4, asr lr

00000074 <frame_dummy>:
  74:	4b05      	ldr	r3, [pc, #20]	; (8c <frame_dummy+0x18>)
  76:	b510      	push	{r4, lr}
  78:	2b00      	cmp	r3, #0
  7a:	d003      	beq.n	84 <frame_dummy+0x10>
  7c:	4904      	ldr	r1, [pc, #16]	; (90 <frame_dummy+0x1c>)
  7e:	4805      	ldr	r0, [pc, #20]	; (94 <frame_dummy+0x20>)
  80:	e000      	b.n	84 <frame_dummy+0x10>
  82:	bf00      	nop
  84:	f7ff ffcc 	bl	20 <register_tm_clones>
  88:	bd10      	pop	{r4, pc}
  8a:	46c0      	nop			; (mov r8, r8)
  8c:	00000000 	andeq	r0, r0, r0
  90:	20000874 	andcs	r0, r0, r4, ror r8
  94:	00000e54 	andeq	r0, r0, r4, asr lr

00000098 <_stack_init>:
  98:	2240      	movs	r2, #64	; 0x40
  9a:	0292      	lsls	r2, r2, #10
  9c:	1a9a      	subs	r2, r3, r2
  9e:	4692      	mov	sl, r2
  a0:	4770      	bx	lr
  a2:	46c0      	nop			; (mov r8, r8)

000000a4 <_mainCRTStartup>:
  a4:	4b15      	ldr	r3, [pc, #84]	; (fc <_mainCRTStartup+0x58>)
  a6:	2b00      	cmp	r3, #0
  a8:	d100      	bne.n	ac <_mainCRTStartup+0x8>
  aa:	4b11      	ldr	r3, [pc, #68]	; (f0 <_mainCRTStartup+0x4c>)
  ac:	469d      	mov	sp, r3
  ae:	f7ff fff3 	bl	98 <_stack_init>
  b2:	2100      	movs	r1, #0
  b4:	468b      	mov	fp, r1
  b6:	460f      	mov	r7, r1
  b8:	4811      	ldr	r0, [pc, #68]	; (100 <_mainCRTStartup+0x5c>)
  ba:	4a12      	ldr	r2, [pc, #72]	; (104 <_mainCRTStartup+0x60>)
  bc:	1a12      	subs	r2, r2, r0
  be:	f000 fba5 	bl	80c <memset>
  c2:	4b0c      	ldr	r3, [pc, #48]	; (f4 <_mainCRTStartup+0x50>)
  c4:	2b00      	cmp	r3, #0
  c6:	d000      	beq.n	ca <_mainCRTStartup+0x26>
  c8:	4798      	blx	r3
  ca:	4b0b      	ldr	r3, [pc, #44]	; (f8 <_mainCRTStartup+0x54>)
  cc:	2b00      	cmp	r3, #0
  ce:	d000      	beq.n	d2 <_mainCRTStartup+0x2e>
  d0:	4798      	blx	r3
  d2:	2000      	movs	r0, #0
  d4:	2100      	movs	r1, #0
  d6:	0004      	movs	r4, r0
  d8:	000d      	movs	r5, r1
  da:	480b      	ldr	r0, [pc, #44]	; (108 <_mainCRTStartup+0x64>)
  dc:	f000 f87a 	bl	1d4 <atexit>
  e0:	f000 f8a4 	bl	22c <__libc_init_array>
  e4:	0020      	movs	r0, r4
  e6:	0029      	movs	r1, r5
  e8:	f000 f810 	bl	10c <main>
  ec:	f000 f87a 	bl	1e4 <exit>
  f0:	00080000 	andeq	r0, r8, r0
	...
  fc:	200008d8 	ldrdcs	r0, [r0], -r8
 100:	20000870 	andcs	r0, r0, r0, ror r8
 104:	200008d4 	ldrdcs	r0, [r0], -r4
 108:	00000205 	andeq	r0, r0, r5, lsl #4

0000010c <main>:
 10c:	b590      	push	{r4, r7, lr}
 10e:	b083      	sub	sp, #12
 110:	af00      	add	r7, sp, #0
 112:	230c      	movs	r3, #12
 114:	603b      	str	r3, [r7, #0]
 116:	232d      	movs	r3, #45	; 0x2d
 118:	001a      	movs	r2, r3
 11a:	0013      	movs	r3, r2
 11c:	009b      	lsls	r3, r3, #2
 11e:	189b      	adds	r3, r3, r2
 120:	005b      	lsls	r3, r3, #1
 122:	0018      	movs	r0, r3
 124:	f000 f8a4 	bl	270 <malloc>
 128:	0003      	movs	r3, r0
 12a:	607b      	str	r3, [r7, #4]
 12c:	687b      	ldr	r3, [r7, #4]
 12e:	2b00      	cmp	r3, #0
 130:	d102      	bne.n	138 <main+0x2c>
 132:	2301      	movs	r3, #1
 134:	425b      	negs	r3, r3
 136:	e00f      	b.n	158 <main+0x4c>
 138:	2400      	movs	r4, #0
 13a:	e009      	b.n	150 <main+0x44>
 13c:	687b      	ldr	r3, [r7, #4]
 13e:	0018      	movs	r0, r3
 140:	f000 f810 	bl	164 <func>
 144:	0002      	movs	r2, r0
 146:	4b06      	ldr	r3, [pc, #24]	; (160 <main+0x54>)
 148:	601a      	str	r2, [r3, #0]
 14a:	683b      	ldr	r3, [r7, #0]
 14c:	3301      	adds	r3, #1
 14e:	603b      	str	r3, [r7, #0]
 150:	232d      	movs	r3, #45	; 0x2d
 152:	429c      	cmp	r4, r3
 154:	dbf2      	blt.n	13c <main+0x30>
 156:	2300      	movs	r3, #0
 158:	0018      	movs	r0, r3
 15a:	46bd      	mov	sp, r7
 15c:	b003      	add	sp, #12
 15e:	bd90      	pop	{r4, r7, pc}
 160:	2000088c 	andcs	r0, r0, ip, lsl #17

00000164 <func>:
 164:	b580      	push	{r7, lr}
 166:	b084      	sub	sp, #16
 168:	af00      	add	r7, sp, #0
 16a:	6078      	str	r0, [r7, #4]
 16c:	2300      	movs	r3, #0
 16e:	60fb      	str	r3, [r7, #12]
 170:	4b15      	ldr	r3, [pc, #84]	; (1c8 <func+0x64>)
 172:	60bb      	str	r3, [r7, #8]
 174:	4b15      	ldr	r3, [pc, #84]	; (1cc <func+0x68>)
 176:	681b      	ldr	r3, [r3, #0]
 178:	1c5a      	adds	r2, r3, #1
 17a:	4b14      	ldr	r3, [pc, #80]	; (1cc <func+0x68>)
 17c:	601a      	str	r2, [r3, #0]
 17e:	4b13      	ldr	r3, [pc, #76]	; (1cc <func+0x68>)
 180:	681b      	ldr	r3, [r3, #0]
 182:	009a      	lsls	r2, r3, #2
 184:	4b12      	ldr	r3, [pc, #72]	; (1d0 <func+0x6c>)
 186:	18d3      	adds	r3, r2, r3
 188:	68fa      	ldr	r2, [r7, #12]
 18a:	601a      	str	r2, [r3, #0]
 18c:	2300      	movs	r3, #0
 18e:	60fb      	str	r3, [r7, #12]
 190:	e011      	b.n	1b6 <func+0x52>
 192:	68ba      	ldr	r2, [r7, #8]
 194:	68fb      	ldr	r3, [r7, #12]
 196:	18d3      	adds	r3, r2, r3
 198:	781b      	ldrb	r3, [r3, #0]
 19a:	b2db      	uxtb	r3, r3
 19c:	0019      	movs	r1, r3
 19e:	4b0c      	ldr	r3, [pc, #48]	; (1d0 <func+0x6c>)
 1a0:	68fa      	ldr	r2, [r7, #12]
 1a2:	0092      	lsls	r2, r2, #2
 1a4:	50d1      	str	r1, [r2, r3]
 1a6:	4b09      	ldr	r3, [pc, #36]	; (1cc <func+0x68>)
 1a8:	681b      	ldr	r3, [r3, #0]
 1aa:	1c5a      	adds	r2, r3, #1
 1ac:	4b07      	ldr	r3, [pc, #28]	; (1cc <func+0x68>)
 1ae:	601a      	str	r2, [r3, #0]
 1b0:	68fb      	ldr	r3, [r7, #12]
 1b2:	3301      	adds	r3, #1
 1b4:	60fb      	str	r3, [r7, #12]
 1b6:	68fb      	ldr	r3, [r7, #12]
 1b8:	2b05      	cmp	r3, #5
 1ba:	d9ea      	bls.n	192 <func+0x2e>
 1bc:	4b03      	ldr	r3, [pc, #12]	; (1cc <func+0x68>)
 1be:	681b      	ldr	r3, [r3, #0]
 1c0:	0018      	movs	r0, r3
 1c2:	46bd      	mov	sp, r7
 1c4:	b004      	add	sp, #16
 1c6:	bd80      	pop	{r7, pc}
 1c8:	00000e1c 	andeq	r0, r0, ip, lsl lr
 1cc:	20000894 	mulcs	r0, r4, r8
 1d0:	20000008 	andcs	r0, r0, r8

000001d4 <atexit>:
 1d4:	b510      	push	{r4, lr}
 1d6:	0001      	movs	r1, r0
 1d8:	2300      	movs	r3, #0
 1da:	2200      	movs	r2, #0
 1dc:	2000      	movs	r0, #0
 1de:	f000 fb7f 	bl	8e0 <__register_exitproc>
 1e2:	bd10      	pop	{r4, pc}

000001e4 <exit>:
 1e4:	b510      	push	{r4, lr}
 1e6:	2100      	movs	r1, #0
 1e8:	0004      	movs	r4, r0
 1ea:	f000 fbbd 	bl	968 <__call_exitprocs>
 1ee:	4b04      	ldr	r3, [pc, #16]	; (200 <exit+0x1c>)
 1f0:	6818      	ldr	r0, [r3, #0]
 1f2:	6bc3      	ldr	r3, [r0, #60]	; 0x3c
 1f4:	2b00      	cmp	r3, #0
 1f6:	d000      	beq.n	1fa <exit+0x16>
 1f8:	4798      	blx	r3
 1fa:	0020      	movs	r0, r4
 1fc:	f000 fdda 	bl	db4 <_exit>
 200:	00000e2c 	andeq	r0, r0, ip, lsr #28

00000204 <__libc_fini_array>:
 204:	b570      	push	{r4, r5, r6, lr}
 206:	4d07      	ldr	r5, [pc, #28]	; (224 <__libc_fini_array+0x20>)
 208:	4c07      	ldr	r4, [pc, #28]	; (228 <__libc_fini_array+0x24>)
 20a:	1b64      	subs	r4, r4, r5
 20c:	10a4      	asrs	r4, r4, #2
 20e:	d005      	beq.n	21c <__libc_fini_array+0x18>
 210:	3c01      	subs	r4, #1
 212:	00a3      	lsls	r3, r4, #2
 214:	58eb      	ldr	r3, [r5, r3]
 216:	4798      	blx	r3
 218:	2c00      	cmp	r4, #0
 21a:	d1f9      	bne.n	210 <__libc_fini_array+0xc>
 21c:	f000 fde2 	bl	de4 <_fini>
 220:	bd70      	pop	{r4, r5, r6, pc}
 222:	46c0      	nop			; (mov r8, r8)
	...

0000022c <__libc_init_array>:
 22c:	b570      	push	{r4, r5, r6, lr}
 22e:	4d0c      	ldr	r5, [pc, #48]	; (260 <__libc_init_array+0x34>)
 230:	4e0c      	ldr	r6, [pc, #48]	; (264 <__libc_init_array+0x38>)
 232:	1b76      	subs	r6, r6, r5
 234:	10b6      	asrs	r6, r6, #2
 236:	d005      	beq.n	244 <__libc_init_array+0x18>
 238:	2400      	movs	r4, #0
 23a:	cd08      	ldmia	r5!, {r3}
 23c:	3401      	adds	r4, #1
 23e:	4798      	blx	r3
 240:	42a6      	cmp	r6, r4
 242:	d1fa      	bne.n	23a <__libc_init_array+0xe>
 244:	f000 fdc8 	bl	dd8 <_init>
 248:	4d07      	ldr	r5, [pc, #28]	; (268 <__libc_init_array+0x3c>)
 24a:	4e08      	ldr	r6, [pc, #32]	; (26c <__libc_init_array+0x40>)
 24c:	1b76      	subs	r6, r6, r5
 24e:	10b6      	asrs	r6, r6, #2
 250:	d005      	beq.n	25e <__libc_init_array+0x32>
 252:	2400      	movs	r4, #0
 254:	cd08      	ldmia	r5!, {r3}
 256:	3401      	adds	r4, #1
 258:	4798      	blx	r3
 25a:	42a6      	cmp	r6, r4
 25c:	d1fa      	bne.n	254 <__libc_init_array+0x28>
 25e:	bd70      	pop	{r4, r5, r6, pc}
	...
 268:	00000dd0 	ldrdeq	r0, [r0], -r0	; <UNPREDICTABLE>
 26c:	00000dd8 	ldrdeq	r0, [r0], -r8

00000270 <malloc>:
 270:	b510      	push	{r4, lr}
 272:	4b03      	ldr	r3, [pc, #12]	; (280 <malloc+0x10>)
 274:	0001      	movs	r1, r0
 276:	6818      	ldr	r0, [r3, #0]
 278:	f000 f80e 	bl	298 <_malloc_r>
 27c:	bd10      	pop	{r4, pc}
 27e:	46c0      	nop			; (mov r8, r8)
 280:	20000030 	andcs	r0, r0, r0, lsr r0

00000284 <free>:
 284:	b510      	push	{r4, lr}
 286:	4b03      	ldr	r3, [pc, #12]	; (294 <free+0x10>)
 288:	0001      	movs	r1, r0
 28a:	6818      	ldr	r0, [r3, #0]
 28c:	f000 fc2a 	bl	ae4 <_free_r>
 290:	bd10      	pop	{r4, pc}
 292:	46c0      	nop			; (mov r8, r8)
 294:	20000030 	andcs	r0, r0, r0, lsr r0

00000298 <_malloc_r>:
 298:	b5f0      	push	{r4, r5, r6, r7, lr}
 29a:	464e      	mov	r6, r9
 29c:	4645      	mov	r5, r8
 29e:	46de      	mov	lr, fp
 2a0:	4657      	mov	r7, sl
 2a2:	b5e0      	push	{r5, r6, r7, lr}
 2a4:	000d      	movs	r5, r1
 2a6:	350b      	adds	r5, #11
 2a8:	0006      	movs	r6, r0
 2aa:	b083      	sub	sp, #12
 2ac:	2d16      	cmp	r5, #22
 2ae:	d822      	bhi.n	2f6 <_malloc_r+0x5e>
 2b0:	2910      	cmp	r1, #16
 2b2:	d900      	bls.n	2b6 <_malloc_r+0x1e>
 2b4:	e0b2      	b.n	41c <_malloc_r+0x184>
 2b6:	f000 fafd 	bl	8b4 <__malloc_lock>
 2ba:	2510      	movs	r5, #16
 2bc:	2318      	movs	r3, #24
 2be:	2002      	movs	r0, #2
 2c0:	4fcc      	ldr	r7, [pc, #816]	; (5f4 <_malloc_r+0x35c>)
 2c2:	18fb      	adds	r3, r7, r3
 2c4:	001a      	movs	r2, r3
 2c6:	685c      	ldr	r4, [r3, #4]
 2c8:	3a08      	subs	r2, #8
 2ca:	4294      	cmp	r4, r2
 2cc:	d100      	bne.n	2d0 <_malloc_r+0x38>
 2ce:	e0b5      	b.n	43c <_malloc_r+0x1a4>
 2d0:	2303      	movs	r3, #3
 2d2:	6862      	ldr	r2, [r4, #4]
 2d4:	439a      	bics	r2, r3
 2d6:	0013      	movs	r3, r2
 2d8:	68e2      	ldr	r2, [r4, #12]
 2da:	68a1      	ldr	r1, [r4, #8]
 2dc:	60ca      	str	r2, [r1, #12]
 2de:	6091      	str	r1, [r2, #8]
 2e0:	2201      	movs	r2, #1
 2e2:	18e3      	adds	r3, r4, r3
 2e4:	6859      	ldr	r1, [r3, #4]
 2e6:	0030      	movs	r0, r6
 2e8:	430a      	orrs	r2, r1
 2ea:	605a      	str	r2, [r3, #4]
 2ec:	f000 fae4 	bl	8b8 <__malloc_unlock>
 2f0:	0020      	movs	r0, r4
 2f2:	3008      	adds	r0, #8
 2f4:	e095      	b.n	422 <_malloc_r+0x18a>
 2f6:	2307      	movs	r3, #7
 2f8:	439d      	bics	r5, r3
 2fa:	d500      	bpl.n	2fe <_malloc_r+0x66>
 2fc:	e08e      	b.n	41c <_malloc_r+0x184>
 2fe:	42a9      	cmp	r1, r5
 300:	d900      	bls.n	304 <_malloc_r+0x6c>
 302:	e08b      	b.n	41c <_malloc_r+0x184>
 304:	f000 fad6 	bl	8b4 <__malloc_lock>
 308:	23fc      	movs	r3, #252	; 0xfc
 30a:	005b      	lsls	r3, r3, #1
 30c:	429d      	cmp	r5, r3
 30e:	d200      	bcs.n	312 <_malloc_r+0x7a>
 310:	e1a1      	b.n	656 <_malloc_r+0x3be>
 312:	0a68      	lsrs	r0, r5, #9
 314:	d100      	bne.n	318 <_malloc_r+0x80>
 316:	e08b      	b.n	430 <_malloc_r+0x198>
 318:	2804      	cmp	r0, #4
 31a:	d900      	bls.n	31e <_malloc_r+0x86>
 31c:	e174      	b.n	608 <_malloc_r+0x370>
 31e:	2338      	movs	r3, #56	; 0x38
 320:	4698      	mov	r8, r3
 322:	09a8      	lsrs	r0, r5, #6
 324:	4480      	add	r8, r0
 326:	3039      	adds	r0, #57	; 0x39
 328:	00c1      	lsls	r1, r0, #3
 32a:	4fb2      	ldr	r7, [pc, #712]	; (5f4 <_malloc_r+0x35c>)
 32c:	1879      	adds	r1, r7, r1
 32e:	684c      	ldr	r4, [r1, #4]
 330:	3908      	subs	r1, #8
 332:	42a1      	cmp	r1, r4
 334:	d00e      	beq.n	354 <_malloc_r+0xbc>
 336:	2303      	movs	r3, #3
 338:	469c      	mov	ip, r3
 33a:	e004      	b.n	346 <_malloc_r+0xae>
 33c:	2a00      	cmp	r2, #0
 33e:	dacb      	bge.n	2d8 <_malloc_r+0x40>
 340:	68e4      	ldr	r4, [r4, #12]
 342:	42a1      	cmp	r1, r4
 344:	d006      	beq.n	354 <_malloc_r+0xbc>
 346:	4662      	mov	r2, ip
 348:	6863      	ldr	r3, [r4, #4]
 34a:	4393      	bics	r3, r2
 34c:	1b5a      	subs	r2, r3, r5
 34e:	2a0f      	cmp	r2, #15
 350:	ddf4      	ble.n	33c <_malloc_r+0xa4>
 352:	4640      	mov	r0, r8
 354:	003a      	movs	r2, r7
 356:	693c      	ldr	r4, [r7, #16]
 358:	3208      	adds	r2, #8
 35a:	4294      	cmp	r4, r2
 35c:	d100      	bne.n	360 <_malloc_r+0xc8>
 35e:	e078      	b.n	452 <_malloc_r+0x1ba>
 360:	2303      	movs	r3, #3
 362:	6861      	ldr	r1, [r4, #4]
 364:	4399      	bics	r1, r3
 366:	4689      	mov	r9, r1
 368:	000b      	movs	r3, r1
 36a:	1b49      	subs	r1, r1, r5
 36c:	290f      	cmp	r1, #15
 36e:	dd00      	ble.n	372 <_malloc_r+0xda>
 370:	e175      	b.n	65e <_malloc_r+0x3c6>
 372:	617a      	str	r2, [r7, #20]
 374:	613a      	str	r2, [r7, #16]
 376:	2900      	cmp	r1, #0
 378:	dab2      	bge.n	2e0 <_malloc_r+0x48>
 37a:	2280      	movs	r2, #128	; 0x80
 37c:	0092      	lsls	r2, r2, #2
 37e:	4591      	cmp	r9, r2
 380:	d300      	bcc.n	384 <_malloc_r+0xec>
 382:	e110      	b.n	5a6 <_malloc_r+0x30e>
 384:	0959      	lsrs	r1, r3, #5
 386:	08da      	lsrs	r2, r3, #3
 388:	2301      	movs	r3, #1
 38a:	408b      	lsls	r3, r1
 38c:	00d2      	lsls	r2, r2, #3
 38e:	6879      	ldr	r1, [r7, #4]
 390:	19d2      	adds	r2, r2, r7
 392:	430b      	orrs	r3, r1
 394:	6891      	ldr	r1, [r2, #8]
 396:	607b      	str	r3, [r7, #4]
 398:	60e2      	str	r2, [r4, #12]
 39a:	60a1      	str	r1, [r4, #8]
 39c:	6094      	str	r4, [r2, #8]
 39e:	60cc      	str	r4, [r1, #12]
 3a0:	2101      	movs	r1, #1
 3a2:	1082      	asrs	r2, r0, #2
 3a4:	4091      	lsls	r1, r2
 3a6:	4299      	cmp	r1, r3
 3a8:	d859      	bhi.n	45e <_malloc_r+0x1c6>
 3aa:	420b      	tst	r3, r1
 3ac:	d105      	bne.n	3ba <_malloc_r+0x122>
 3ae:	2203      	movs	r2, #3
 3b0:	4390      	bics	r0, r2
 3b2:	0049      	lsls	r1, r1, #1
 3b4:	3004      	adds	r0, #4
 3b6:	420b      	tst	r3, r1
 3b8:	d0fb      	beq.n	3b2 <_malloc_r+0x11a>
 3ba:	2303      	movs	r3, #3
 3bc:	4698      	mov	r8, r3
 3be:	00c3      	lsls	r3, r0, #3
 3c0:	4699      	mov	r9, r3
 3c2:	44b9      	add	r9, r7
 3c4:	46cc      	mov	ip, r9
 3c6:	4682      	mov	sl, r0
 3c8:	4663      	mov	r3, ip
 3ca:	68dc      	ldr	r4, [r3, #12]
 3cc:	45a4      	cmp	ip, r4
 3ce:	d107      	bne.n	3e0 <_malloc_r+0x148>
 3d0:	e126      	b.n	620 <_malloc_r+0x388>
 3d2:	2a00      	cmp	r2, #0
 3d4:	db00      	blt.n	3d8 <_malloc_r+0x140>
 3d6:	e12f      	b.n	638 <_malloc_r+0x3a0>
 3d8:	68e4      	ldr	r4, [r4, #12]
 3da:	45a4      	cmp	ip, r4
 3dc:	d100      	bne.n	3e0 <_malloc_r+0x148>
 3de:	e11f      	b.n	620 <_malloc_r+0x388>
 3e0:	4642      	mov	r2, r8
 3e2:	6863      	ldr	r3, [r4, #4]
 3e4:	4393      	bics	r3, r2
 3e6:	1b5a      	subs	r2, r3, r5
 3e8:	2a0f      	cmp	r2, #15
 3ea:	ddf2      	ble.n	3d2 <_malloc_r+0x13a>
 3ec:	2001      	movs	r0, #1
 3ee:	4680      	mov	r8, r0
 3f0:	1961      	adds	r1, r4, r5
 3f2:	4305      	orrs	r5, r0
 3f4:	6065      	str	r5, [r4, #4]
 3f6:	68a0      	ldr	r0, [r4, #8]
 3f8:	68e5      	ldr	r5, [r4, #12]
 3fa:	3708      	adds	r7, #8
 3fc:	60c5      	str	r5, [r0, #12]
 3fe:	60a8      	str	r0, [r5, #8]
 400:	4640      	mov	r0, r8
 402:	4310      	orrs	r0, r2
 404:	60f9      	str	r1, [r7, #12]
 406:	60b9      	str	r1, [r7, #8]
 408:	6048      	str	r0, [r1, #4]
 40a:	60cf      	str	r7, [r1, #12]
 40c:	0030      	movs	r0, r6
 40e:	608f      	str	r7, [r1, #8]
 410:	50e2      	str	r2, [r4, r3]
 412:	f000 fa51 	bl	8b8 <__malloc_unlock>
 416:	0020      	movs	r0, r4
 418:	3008      	adds	r0, #8
 41a:	e002      	b.n	422 <_malloc_r+0x18a>
 41c:	230c      	movs	r3, #12
 41e:	2000      	movs	r0, #0
 420:	6033      	str	r3, [r6, #0]
 422:	b003      	add	sp, #12
 424:	bcf0      	pop	{r4, r5, r6, r7}
 426:	46bb      	mov	fp, r7
 428:	46b2      	mov	sl, r6
 42a:	46a9      	mov	r9, r5
 42c:	46a0      	mov	r8, r4
 42e:	bdf0      	pop	{r4, r5, r6, r7, pc}
 430:	2180      	movs	r1, #128	; 0x80
 432:	233f      	movs	r3, #63	; 0x3f
 434:	2040      	movs	r0, #64	; 0x40
 436:	4698      	mov	r8, r3
 438:	0089      	lsls	r1, r1, #2
 43a:	e776      	b.n	32a <_malloc_r+0x92>
 43c:	68dc      	ldr	r4, [r3, #12]
 43e:	3002      	adds	r0, #2
 440:	42a3      	cmp	r3, r4
 442:	d000      	beq.n	446 <_malloc_r+0x1ae>
 444:	e744      	b.n	2d0 <_malloc_r+0x38>
 446:	003a      	movs	r2, r7
 448:	693c      	ldr	r4, [r7, #16]
 44a:	3208      	adds	r2, #8
 44c:	4294      	cmp	r4, r2
 44e:	d000      	beq.n	452 <_malloc_r+0x1ba>
 450:	e786      	b.n	360 <_malloc_r+0xc8>
 452:	2101      	movs	r1, #1
 454:	687b      	ldr	r3, [r7, #4]
 456:	1082      	asrs	r2, r0, #2
 458:	4091      	lsls	r1, r2
 45a:	4299      	cmp	r1, r3
 45c:	d9a5      	bls.n	3aa <_malloc_r+0x112>
 45e:	2303      	movs	r3, #3
 460:	68bc      	ldr	r4, [r7, #8]
 462:	6862      	ldr	r2, [r4, #4]
 464:	439a      	bics	r2, r3
 466:	4691      	mov	r9, r2
 468:	4295      	cmp	r5, r2
 46a:	d803      	bhi.n	474 <_malloc_r+0x1dc>
 46c:	1b53      	subs	r3, r2, r5
 46e:	2b0f      	cmp	r3, #15
 470:	dd00      	ble.n	474 <_malloc_r+0x1dc>
 472:	e08a      	b.n	58a <_malloc_r+0x2f2>
 474:	0023      	movs	r3, r4
 476:	444b      	add	r3, r9
 478:	4a5f      	ldr	r2, [pc, #380]	; (5f8 <_malloc_r+0x360>)
 47a:	9301      	str	r3, [sp, #4]
 47c:	4b5f      	ldr	r3, [pc, #380]	; (5fc <_malloc_r+0x364>)
 47e:	4693      	mov	fp, r2
 480:	469a      	mov	sl, r3
 482:	6812      	ldr	r2, [r2, #0]
 484:	681b      	ldr	r3, [r3, #0]
 486:	18eb      	adds	r3, r5, r3
 488:	3201      	adds	r2, #1
 48a:	d100      	bne.n	48e <_malloc_r+0x1f6>
 48c:	e136      	b.n	6fc <_malloc_r+0x464>
 48e:	4a5c      	ldr	r2, [pc, #368]	; (600 <_malloc_r+0x368>)
 490:	4694      	mov	ip, r2
 492:	4463      	add	r3, ip
 494:	0b1b      	lsrs	r3, r3, #12
 496:	031b      	lsls	r3, r3, #12
 498:	9300      	str	r3, [sp, #0]
 49a:	0030      	movs	r0, r6
 49c:	9900      	ldr	r1, [sp, #0]
 49e:	f000 fa0d 	bl	8bc <_sbrk_r>
 4a2:	0003      	movs	r3, r0
 4a4:	4680      	mov	r8, r0
 4a6:	3301      	adds	r3, #1
 4a8:	d100      	bne.n	4ac <_malloc_r+0x214>
 4aa:	e0f3      	b.n	694 <_malloc_r+0x3fc>
 4ac:	9b01      	ldr	r3, [sp, #4]
 4ae:	4283      	cmp	r3, r0
 4b0:	d900      	bls.n	4b4 <_malloc_r+0x21c>
 4b2:	e0ed      	b.n	690 <_malloc_r+0x3f8>
 4b4:	4652      	mov	r2, sl
 4b6:	9800      	ldr	r0, [sp, #0]
 4b8:	6852      	ldr	r2, [r2, #4]
 4ba:	0003      	movs	r3, r0
 4bc:	4694      	mov	ip, r2
 4be:	4651      	mov	r1, sl
 4c0:	4463      	add	r3, ip
 4c2:	604b      	str	r3, [r1, #4]
 4c4:	9901      	ldr	r1, [sp, #4]
 4c6:	001a      	movs	r2, r3
 4c8:	4541      	cmp	r1, r8
 4ca:	d100      	bne.n	4ce <_malloc_r+0x236>
 4cc:	e14b      	b.n	766 <_malloc_r+0x4ce>
 4ce:	465b      	mov	r3, fp
 4d0:	681b      	ldr	r3, [r3, #0]
 4d2:	3301      	adds	r3, #1
 4d4:	d100      	bne.n	4d8 <_malloc_r+0x240>
 4d6:	e150      	b.n	77a <_malloc_r+0x4e2>
 4d8:	4643      	mov	r3, r8
 4da:	9901      	ldr	r1, [sp, #4]
 4dc:	1a5b      	subs	r3, r3, r1
 4de:	189a      	adds	r2, r3, r2
 4e0:	4653      	mov	r3, sl
 4e2:	605a      	str	r2, [r3, #4]
 4e4:	2307      	movs	r3, #7
 4e6:	4642      	mov	r2, r8
 4e8:	4641      	mov	r1, r8
 4ea:	401a      	ands	r2, r3
 4ec:	9201      	str	r2, [sp, #4]
 4ee:	4219      	tst	r1, r3
 4f0:	d100      	bne.n	4f4 <_malloc_r+0x25c>
 4f2:	e10d      	b.n	710 <_malloc_r+0x478>
 4f4:	2308      	movs	r3, #8
 4f6:	4698      	mov	r8, r3
 4f8:	1a88      	subs	r0, r1, r2
 4fa:	4b42      	ldr	r3, [pc, #264]	; (604 <_malloc_r+0x36c>)
 4fc:	9900      	ldr	r1, [sp, #0]
 4fe:	4480      	add	r8, r0
 500:	4441      	add	r1, r8
 502:	1a9b      	subs	r3, r3, r2
 504:	1a5b      	subs	r3, r3, r1
 506:	051b      	lsls	r3, r3, #20
 508:	0d1b      	lsrs	r3, r3, #20
 50a:	9100      	str	r1, [sp, #0]
 50c:	0030      	movs	r0, r6
 50e:	0019      	movs	r1, r3
 510:	469b      	mov	fp, r3
 512:	f000 f9d3 	bl	8bc <_sbrk_r>
 516:	1c43      	adds	r3, r0, #1
 518:	d100      	bne.n	51c <_malloc_r+0x284>
 51a:	e14a      	b.n	7b2 <_malloc_r+0x51a>
 51c:	4643      	mov	r3, r8
 51e:	1ac0      	subs	r0, r0, r3
 520:	0003      	movs	r3, r0
 522:	445b      	add	r3, fp
 524:	9300      	str	r3, [sp, #0]
 526:	4653      	mov	r3, sl
 528:	4652      	mov	r2, sl
 52a:	685b      	ldr	r3, [r3, #4]
 52c:	2101      	movs	r1, #1
 52e:	445b      	add	r3, fp
 530:	6053      	str	r3, [r2, #4]
 532:	4642      	mov	r2, r8
 534:	4640      	mov	r0, r8
 536:	60ba      	str	r2, [r7, #8]
 538:	9a00      	ldr	r2, [sp, #0]
 53a:	430a      	orrs	r2, r1
 53c:	6042      	str	r2, [r0, #4]
 53e:	42bc      	cmp	r4, r7
 540:	d100      	bne.n	544 <_malloc_r+0x2ac>
 542:	e11e      	b.n	782 <_malloc_r+0x4ea>
 544:	464a      	mov	r2, r9
 546:	2a0f      	cmp	r2, #15
 548:	d800      	bhi.n	54c <_malloc_r+0x2b4>
 54a:	e11c      	b.n	786 <_malloc_r+0x4ee>
 54c:	2007      	movs	r0, #7
 54e:	3a0c      	subs	r2, #12
 550:	4382      	bics	r2, r0
 552:	6860      	ldr	r0, [r4, #4]
 554:	4001      	ands	r1, r0
 556:	2005      	movs	r0, #5
 558:	4311      	orrs	r1, r2
 55a:	6061      	str	r1, [r4, #4]
 55c:	18a1      	adds	r1, r4, r2
 55e:	6048      	str	r0, [r1, #4]
 560:	6088      	str	r0, [r1, #8]
 562:	2a0f      	cmp	r2, #15
 564:	d900      	bls.n	568 <_malloc_r+0x2d0>
 566:	e12f      	b.n	7c8 <_malloc_r+0x530>
 568:	4642      	mov	r2, r8
 56a:	4644      	mov	r4, r8
 56c:	6852      	ldr	r2, [r2, #4]
 56e:	4651      	mov	r1, sl
 570:	6ac9      	ldr	r1, [r1, #44]	; 0x2c
 572:	4299      	cmp	r1, r3
 574:	d201      	bcs.n	57a <_malloc_r+0x2e2>
 576:	4651      	mov	r1, sl
 578:	62cb      	str	r3, [r1, #44]	; 0x2c
 57a:	4651      	mov	r1, sl
 57c:	6b09      	ldr	r1, [r1, #48]	; 0x30
 57e:	4299      	cmp	r1, r3
 580:	d300      	bcc.n	584 <_malloc_r+0x2ec>
 582:	e089      	b.n	698 <_malloc_r+0x400>
 584:	4651      	mov	r1, sl
 586:	630b      	str	r3, [r1, #48]	; 0x30
 588:	e086      	b.n	698 <_malloc_r+0x400>
 58a:	2201      	movs	r2, #1
 58c:	0029      	movs	r1, r5
 58e:	4313      	orrs	r3, r2
 590:	4311      	orrs	r1, r2
 592:	1965      	adds	r5, r4, r5
 594:	6061      	str	r1, [r4, #4]
 596:	0030      	movs	r0, r6
 598:	60bd      	str	r5, [r7, #8]
 59a:	606b      	str	r3, [r5, #4]
 59c:	f000 f98c 	bl	8b8 <__malloc_unlock>
 5a0:	0020      	movs	r0, r4
 5a2:	3008      	adds	r0, #8
 5a4:	e73d      	b.n	422 <_malloc_r+0x18a>
 5a6:	0a5a      	lsrs	r2, r3, #9
 5a8:	2a04      	cmp	r2, #4
 5aa:	d96b      	bls.n	684 <_malloc_r+0x3ec>
 5ac:	2a14      	cmp	r2, #20
 5ae:	d900      	bls.n	5b2 <_malloc_r+0x31a>
 5b0:	e0be      	b.n	730 <_malloc_r+0x498>
 5b2:	0011      	movs	r1, r2
 5b4:	325c      	adds	r2, #92	; 0x5c
 5b6:	315b      	adds	r1, #91	; 0x5b
 5b8:	00d2      	lsls	r2, r2, #3
 5ba:	2308      	movs	r3, #8
 5bc:	425b      	negs	r3, r3
 5be:	469c      	mov	ip, r3
 5c0:	18ba      	adds	r2, r7, r2
 5c2:	4494      	add	ip, r2
 5c4:	4663      	mov	r3, ip
 5c6:	689a      	ldr	r2, [r3, #8]
 5c8:	2303      	movs	r3, #3
 5ca:	4698      	mov	r8, r3
 5cc:	4594      	cmp	ip, r2
 5ce:	d100      	bne.n	5d2 <_malloc_r+0x33a>
 5d0:	e097      	b.n	702 <_malloc_r+0x46a>
 5d2:	4643      	mov	r3, r8
 5d4:	6851      	ldr	r1, [r2, #4]
 5d6:	4399      	bics	r1, r3
 5d8:	4549      	cmp	r1, r9
 5da:	d902      	bls.n	5e2 <_malloc_r+0x34a>
 5dc:	6892      	ldr	r2, [r2, #8]
 5de:	4594      	cmp	ip, r2
 5e0:	d1f7      	bne.n	5d2 <_malloc_r+0x33a>
 5e2:	68d3      	ldr	r3, [r2, #12]
 5e4:	469c      	mov	ip, r3
 5e6:	687b      	ldr	r3, [r7, #4]
 5e8:	4661      	mov	r1, ip
 5ea:	60a2      	str	r2, [r4, #8]
 5ec:	60e1      	str	r1, [r4, #12]
 5ee:	608c      	str	r4, [r1, #8]
 5f0:	60d4      	str	r4, [r2, #12]
 5f2:	e6d5      	b.n	3a0 <_malloc_r+0x108>
 5f4:	20000468 	andcs	r0, r0, r8, ror #8
 5f8:	20000460 	andcs	r0, r0, r0, ror #8
 5fc:	20000898 	mulcs	r0, r8, r8
 600:	0000100f 	andeq	r1, r0, pc
 604:	00001008 	andeq	r1, r0, r8
 608:	2814      	cmp	r0, #20
 60a:	d952      	bls.n	6b2 <_malloc_r+0x41a>
 60c:	2854      	cmp	r0, #84	; 0x54
 60e:	d900      	bls.n	612 <_malloc_r+0x37a>
 610:	e096      	b.n	740 <_malloc_r+0x4a8>
 612:	236e      	movs	r3, #110	; 0x6e
 614:	4698      	mov	r8, r3
 616:	0b28      	lsrs	r0, r5, #12
 618:	4480      	add	r8, r0
 61a:	306f      	adds	r0, #111	; 0x6f
 61c:	00c1      	lsls	r1, r0, #3
 61e:	e684      	b.n	32a <_malloc_r+0x92>
 620:	2308      	movs	r3, #8
 622:	469b      	mov	fp, r3
 624:	3b07      	subs	r3, #7
 626:	44dc      	add	ip, fp
 628:	469b      	mov	fp, r3
 62a:	44da      	add	sl, fp
 62c:	4643      	mov	r3, r8
 62e:	4652      	mov	r2, sl
 630:	4213      	tst	r3, r2
 632:	d000      	beq.n	636 <_malloc_r+0x39e>
 634:	e6c8      	b.n	3c8 <_malloc_r+0x130>
 636:	e04c      	b.n	6d2 <_malloc_r+0x43a>
 638:	2201      	movs	r2, #1
 63a:	18e3      	adds	r3, r4, r3
 63c:	6859      	ldr	r1, [r3, #4]
 63e:	0030      	movs	r0, r6
 640:	430a      	orrs	r2, r1
 642:	605a      	str	r2, [r3, #4]
 644:	68e3      	ldr	r3, [r4, #12]
 646:	68a2      	ldr	r2, [r4, #8]
 648:	60d3      	str	r3, [r2, #12]
 64a:	609a      	str	r2, [r3, #8]
 64c:	f000 f934 	bl	8b8 <__malloc_unlock>
 650:	0020      	movs	r0, r4
 652:	3008      	adds	r0, #8
 654:	e6e5      	b.n	422 <_malloc_r+0x18a>
 656:	002b      	movs	r3, r5
 658:	08e8      	lsrs	r0, r5, #3
 65a:	3308      	adds	r3, #8
 65c:	e630      	b.n	2c0 <_malloc_r+0x28>
 65e:	2301      	movs	r3, #1
 660:	1960      	adds	r0, r4, r5
 662:	431d      	orrs	r5, r3
 664:	6065      	str	r5, [r4, #4]
 666:	6178      	str	r0, [r7, #20]
 668:	6138      	str	r0, [r7, #16]
 66a:	60c2      	str	r2, [r0, #12]
 66c:	6082      	str	r2, [r0, #8]
 66e:	001a      	movs	r2, r3
 670:	464b      	mov	r3, r9
 672:	430a      	orrs	r2, r1
 674:	6042      	str	r2, [r0, #4]
 676:	0030      	movs	r0, r6
 678:	50e1      	str	r1, [r4, r3]
 67a:	f000 f91d 	bl	8b8 <__malloc_unlock>
 67e:	0020      	movs	r0, r4
 680:	3008      	adds	r0, #8
 682:	e6ce      	b.n	422 <_malloc_r+0x18a>
 684:	099a      	lsrs	r2, r3, #6
 686:	0011      	movs	r1, r2
 688:	3239      	adds	r2, #57	; 0x39
 68a:	3138      	adds	r1, #56	; 0x38
 68c:	00d2      	lsls	r2, r2, #3
 68e:	e794      	b.n	5ba <_malloc_r+0x322>
 690:	42bc      	cmp	r4, r7
 692:	d060      	beq.n	756 <_malloc_r+0x4be>
 694:	68bc      	ldr	r4, [r7, #8]
 696:	6862      	ldr	r2, [r4, #4]
 698:	2303      	movs	r3, #3
 69a:	439a      	bics	r2, r3
 69c:	1b53      	subs	r3, r2, r5
 69e:	4295      	cmp	r5, r2
 6a0:	d802      	bhi.n	6a8 <_malloc_r+0x410>
 6a2:	2b0f      	cmp	r3, #15
 6a4:	dd00      	ble.n	6a8 <_malloc_r+0x410>
 6a6:	e770      	b.n	58a <_malloc_r+0x2f2>
 6a8:	0030      	movs	r0, r6
 6aa:	f000 f905 	bl	8b8 <__malloc_unlock>
 6ae:	2000      	movs	r0, #0
 6b0:	e6b7      	b.n	422 <_malloc_r+0x18a>
 6b2:	235b      	movs	r3, #91	; 0x5b
 6b4:	4698      	mov	r8, r3
 6b6:	4480      	add	r8, r0
 6b8:	305c      	adds	r0, #92	; 0x5c
 6ba:	00c1      	lsls	r1, r0, #3
 6bc:	e635      	b.n	32a <_malloc_r+0x92>
 6be:	2308      	movs	r3, #8
 6c0:	425b      	negs	r3, r3
 6c2:	469c      	mov	ip, r3
 6c4:	44e1      	add	r9, ip
 6c6:	464b      	mov	r3, r9
 6c8:	689b      	ldr	r3, [r3, #8]
 6ca:	3801      	subs	r0, #1
 6cc:	454b      	cmp	r3, r9
 6ce:	d000      	beq.n	6d2 <_malloc_r+0x43a>
 6d0:	e097      	b.n	802 <_malloc_r+0x56a>
 6d2:	4643      	mov	r3, r8
 6d4:	4203      	tst	r3, r0
 6d6:	d1f2      	bne.n	6be <_malloc_r+0x426>
 6d8:	687b      	ldr	r3, [r7, #4]
 6da:	438b      	bics	r3, r1
 6dc:	607b      	str	r3, [r7, #4]
 6de:	0049      	lsls	r1, r1, #1
 6e0:	4299      	cmp	r1, r3
 6e2:	d900      	bls.n	6e6 <_malloc_r+0x44e>
 6e4:	e6bb      	b.n	45e <_malloc_r+0x1c6>
 6e6:	2900      	cmp	r1, #0
 6e8:	d104      	bne.n	6f4 <_malloc_r+0x45c>
 6ea:	e6b8      	b.n	45e <_malloc_r+0x1c6>
 6ec:	2204      	movs	r2, #4
 6ee:	4694      	mov	ip, r2
 6f0:	0049      	lsls	r1, r1, #1
 6f2:	44e2      	add	sl, ip
 6f4:	420b      	tst	r3, r1
 6f6:	d0f9      	beq.n	6ec <_malloc_r+0x454>
 6f8:	4650      	mov	r0, sl
 6fa:	e660      	b.n	3be <_malloc_r+0x126>
 6fc:	3310      	adds	r3, #16
 6fe:	9300      	str	r3, [sp, #0]
 700:	e6cb      	b.n	49a <_malloc_r+0x202>
 702:	1089      	asrs	r1, r1, #2
 704:	3b02      	subs	r3, #2
 706:	408b      	lsls	r3, r1
 708:	6879      	ldr	r1, [r7, #4]
 70a:	430b      	orrs	r3, r1
 70c:	607b      	str	r3, [r7, #4]
 70e:	e76b      	b.n	5e8 <_malloc_r+0x350>
 710:	9b00      	ldr	r3, [sp, #0]
 712:	0030      	movs	r0, r6
 714:	4443      	add	r3, r8
 716:	425b      	negs	r3, r3
 718:	051b      	lsls	r3, r3, #20
 71a:	0d1b      	lsrs	r3, r3, #20
 71c:	0019      	movs	r1, r3
 71e:	469b      	mov	fp, r3
 720:	f000 f8cc 	bl	8bc <_sbrk_r>
 724:	1c43      	adds	r3, r0, #1
 726:	d000      	beq.n	72a <_malloc_r+0x492>
 728:	e6f8      	b.n	51c <_malloc_r+0x284>
 72a:	2300      	movs	r3, #0
 72c:	469b      	mov	fp, r3
 72e:	e6fa      	b.n	526 <_malloc_r+0x28e>
 730:	2a54      	cmp	r2, #84	; 0x54
 732:	d82a      	bhi.n	78a <_malloc_r+0x4f2>
 734:	0b1a      	lsrs	r2, r3, #12
 736:	0011      	movs	r1, r2
 738:	326f      	adds	r2, #111	; 0x6f
 73a:	316e      	adds	r1, #110	; 0x6e
 73c:	00d2      	lsls	r2, r2, #3
 73e:	e73c      	b.n	5ba <_malloc_r+0x322>
 740:	23aa      	movs	r3, #170	; 0xaa
 742:	005b      	lsls	r3, r3, #1
 744:	4298      	cmp	r0, r3
 746:	d82a      	bhi.n	79e <_malloc_r+0x506>
 748:	3bdd      	subs	r3, #221	; 0xdd
 74a:	4698      	mov	r8, r3
 74c:	0be8      	lsrs	r0, r5, #15
 74e:	4480      	add	r8, r0
 750:	3078      	adds	r0, #120	; 0x78
 752:	00c1      	lsls	r1, r0, #3
 754:	e5e9      	b.n	32a <_malloc_r+0x92>
 756:	4653      	mov	r3, sl
 758:	685b      	ldr	r3, [r3, #4]
 75a:	9a00      	ldr	r2, [sp, #0]
 75c:	469c      	mov	ip, r3
 75e:	4653      	mov	r3, sl
 760:	4462      	add	r2, ip
 762:	605a      	str	r2, [r3, #4]
 764:	e6b3      	b.n	4ce <_malloc_r+0x236>
 766:	0509      	lsls	r1, r1, #20
 768:	d000      	beq.n	76c <_malloc_r+0x4d4>
 76a:	e6b0      	b.n	4ce <_malloc_r+0x236>
 76c:	0002      	movs	r2, r0
 76e:	68bc      	ldr	r4, [r7, #8]
 770:	444a      	add	r2, r9
 772:	3101      	adds	r1, #1
 774:	430a      	orrs	r2, r1
 776:	6062      	str	r2, [r4, #4]
 778:	e6f9      	b.n	56e <_malloc_r+0x2d6>
 77a:	465b      	mov	r3, fp
 77c:	4642      	mov	r2, r8
 77e:	601a      	str	r2, [r3, #0]
 780:	e6b0      	b.n	4e4 <_malloc_r+0x24c>
 782:	4644      	mov	r4, r8
 784:	e6f3      	b.n	56e <_malloc_r+0x2d6>
 786:	6041      	str	r1, [r0, #4]
 788:	e78e      	b.n	6a8 <_malloc_r+0x410>
 78a:	21aa      	movs	r1, #170	; 0xaa
 78c:	0049      	lsls	r1, r1, #1
 78e:	428a      	cmp	r2, r1
 790:	d824      	bhi.n	7dc <_malloc_r+0x544>
 792:	0bda      	lsrs	r2, r3, #15
 794:	0011      	movs	r1, r2
 796:	3278      	adds	r2, #120	; 0x78
 798:	3177      	adds	r1, #119	; 0x77
 79a:	00d2      	lsls	r2, r2, #3
 79c:	e70d      	b.n	5ba <_malloc_r+0x322>
 79e:	4b1a      	ldr	r3, [pc, #104]	; (808 <_malloc_r+0x570>)
 7a0:	4298      	cmp	r0, r3
 7a2:	d824      	bhi.n	7ee <_malloc_r+0x556>
 7a4:	237c      	movs	r3, #124	; 0x7c
 7a6:	4698      	mov	r8, r3
 7a8:	0ca8      	lsrs	r0, r5, #18
 7aa:	4480      	add	r8, r0
 7ac:	307d      	adds	r0, #125	; 0x7d
 7ae:	00c1      	lsls	r1, r0, #3
 7b0:	e5bb      	b.n	32a <_malloc_r+0x92>
 7b2:	9a00      	ldr	r2, [sp, #0]
 7b4:	9b01      	ldr	r3, [sp, #4]
 7b6:	4694      	mov	ip, r2
 7b8:	4642      	mov	r2, r8
 7ba:	3b08      	subs	r3, #8
 7bc:	4463      	add	r3, ip
 7be:	1a9b      	subs	r3, r3, r2
 7c0:	9300      	str	r3, [sp, #0]
 7c2:	2300      	movs	r3, #0
 7c4:	469b      	mov	fp, r3
 7c6:	e6ae      	b.n	526 <_malloc_r+0x28e>
 7c8:	0021      	movs	r1, r4
 7ca:	0030      	movs	r0, r6
 7cc:	3108      	adds	r1, #8
 7ce:	f000 f989 	bl	ae4 <_free_r>
 7d2:	4653      	mov	r3, sl
 7d4:	68bc      	ldr	r4, [r7, #8]
 7d6:	685b      	ldr	r3, [r3, #4]
 7d8:	6862      	ldr	r2, [r4, #4]
 7da:	e6c8      	b.n	56e <_malloc_r+0x2d6>
 7dc:	490a      	ldr	r1, [pc, #40]	; (808 <_malloc_r+0x570>)
 7de:	428a      	cmp	r2, r1
 7e0:	d80b      	bhi.n	7fa <_malloc_r+0x562>
 7e2:	0c9a      	lsrs	r2, r3, #18
 7e4:	0011      	movs	r1, r2
 7e6:	327d      	adds	r2, #125	; 0x7d
 7e8:	317c      	adds	r1, #124	; 0x7c
 7ea:	00d2      	lsls	r2, r2, #3
 7ec:	e6e5      	b.n	5ba <_malloc_r+0x322>
 7ee:	21fe      	movs	r1, #254	; 0xfe
 7f0:	237e      	movs	r3, #126	; 0x7e
 7f2:	207f      	movs	r0, #127	; 0x7f
 7f4:	4698      	mov	r8, r3
 7f6:	0089      	lsls	r1, r1, #2
 7f8:	e597      	b.n	32a <_malloc_r+0x92>
 7fa:	22fe      	movs	r2, #254	; 0xfe
 7fc:	217e      	movs	r1, #126	; 0x7e
 7fe:	0092      	lsls	r2, r2, #2
 800:	e6db      	b.n	5ba <_malloc_r+0x322>
 802:	687b      	ldr	r3, [r7, #4]
 804:	e76b      	b.n	6de <_malloc_r+0x446>
 806:	46c0      	nop			; (mov r8, r8)
 808:	00000554 	andeq	r0, r0, r4, asr r5

0000080c <memset>:
 80c:	b5f0      	push	{r4, r5, r6, r7, lr}
 80e:	0005      	movs	r5, r0
 810:	0783      	lsls	r3, r0, #30
 812:	d049      	beq.n	8a8 <memset+0x9c>
 814:	1e54      	subs	r4, r2, #1
 816:	2a00      	cmp	r2, #0
 818:	d045      	beq.n	8a6 <memset+0x9a>
 81a:	0003      	movs	r3, r0
 81c:	2603      	movs	r6, #3
 81e:	b2ca      	uxtb	r2, r1
 820:	e002      	b.n	828 <memset+0x1c>
 822:	3501      	adds	r5, #1
 824:	3c01      	subs	r4, #1
 826:	d33e      	bcc.n	8a6 <memset+0x9a>
 828:	3301      	adds	r3, #1
 82a:	702a      	strb	r2, [r5, #0]
 82c:	4233      	tst	r3, r6
 82e:	d1f8      	bne.n	822 <memset+0x16>
 830:	2c03      	cmp	r4, #3
 832:	d930      	bls.n	896 <memset+0x8a>
 834:	22ff      	movs	r2, #255	; 0xff
 836:	400a      	ands	r2, r1
 838:	0215      	lsls	r5, r2, #8
 83a:	4315      	orrs	r5, r2
 83c:	042a      	lsls	r2, r5, #16
 83e:	4315      	orrs	r5, r2
 840:	2c0f      	cmp	r4, #15
 842:	d934      	bls.n	8ae <memset+0xa2>
 844:	0027      	movs	r7, r4
 846:	3f10      	subs	r7, #16
 848:	093f      	lsrs	r7, r7, #4
 84a:	013e      	lsls	r6, r7, #4
 84c:	46b4      	mov	ip, r6
 84e:	001e      	movs	r6, r3
 850:	001a      	movs	r2, r3
 852:	3610      	adds	r6, #16
 854:	4466      	add	r6, ip
 856:	6015      	str	r5, [r2, #0]
 858:	6055      	str	r5, [r2, #4]
 85a:	6095      	str	r5, [r2, #8]
 85c:	60d5      	str	r5, [r2, #12]
 85e:	3210      	adds	r2, #16
 860:	42b2      	cmp	r2, r6
 862:	d1f8      	bne.n	856 <memset+0x4a>
 864:	3701      	adds	r7, #1
 866:	013f      	lsls	r7, r7, #4
 868:	19db      	adds	r3, r3, r7
 86a:	270f      	movs	r7, #15
 86c:	220c      	movs	r2, #12
 86e:	4027      	ands	r7, r4
 870:	4022      	ands	r2, r4
 872:	003c      	movs	r4, r7
 874:	2a00      	cmp	r2, #0
 876:	d00e      	beq.n	896 <memset+0x8a>
 878:	1f3e      	subs	r6, r7, #4
 87a:	08b6      	lsrs	r6, r6, #2
 87c:	00b4      	lsls	r4, r6, #2
 87e:	46a4      	mov	ip, r4
 880:	001a      	movs	r2, r3
 882:	1d1c      	adds	r4, r3, #4
 884:	4464      	add	r4, ip
 886:	c220      	stmia	r2!, {r5}
 888:	42a2      	cmp	r2, r4
 88a:	d1fc      	bne.n	886 <memset+0x7a>
 88c:	2403      	movs	r4, #3
 88e:	3601      	adds	r6, #1
 890:	00b6      	lsls	r6, r6, #2
 892:	199b      	adds	r3, r3, r6
 894:	403c      	ands	r4, r7
 896:	2c00      	cmp	r4, #0
 898:	d005      	beq.n	8a6 <memset+0x9a>
 89a:	b2c9      	uxtb	r1, r1
 89c:	191c      	adds	r4, r3, r4
 89e:	7019      	strb	r1, [r3, #0]
 8a0:	3301      	adds	r3, #1
 8a2:	429c      	cmp	r4, r3
 8a4:	d1fb      	bne.n	89e <memset+0x92>
 8a6:	bdf0      	pop	{r4, r5, r6, r7, pc}
 8a8:	0003      	movs	r3, r0
 8aa:	0014      	movs	r4, r2
 8ac:	e7c0      	b.n	830 <memset+0x24>
 8ae:	0027      	movs	r7, r4
 8b0:	e7e2      	b.n	878 <memset+0x6c>
 8b2:	46c0      	nop			; (mov r8, r8)

000008b4 <__malloc_lock>:
 8b4:	4770      	bx	lr
 8b6:	46c0      	nop			; (mov r8, r8)

000008b8 <__malloc_unlock>:
 8b8:	4770      	bx	lr
 8ba:	46c0      	nop			; (mov r8, r8)

000008bc <_sbrk_r>:
 8bc:	2300      	movs	r3, #0
 8be:	b570      	push	{r4, r5, r6, lr}
 8c0:	4d06      	ldr	r5, [pc, #24]	; (8dc <_sbrk_r+0x20>)
 8c2:	0004      	movs	r4, r0
 8c4:	0008      	movs	r0, r1
 8c6:	602b      	str	r3, [r5, #0]
 8c8:	f000 fa66 	bl	d98 <_sbrk>
 8cc:	1c43      	adds	r3, r0, #1
 8ce:	d000      	beq.n	8d2 <_sbrk_r+0x16>
 8d0:	bd70      	pop	{r4, r5, r6, pc}
 8d2:	682b      	ldr	r3, [r5, #0]
 8d4:	2b00      	cmp	r3, #0
 8d6:	d0fb      	beq.n	8d0 <_sbrk_r+0x14>
 8d8:	6023      	str	r3, [r4, #0]
 8da:	e7f9      	b.n	8d0 <_sbrk_r+0x14>
 8dc:	200008cc 	andcs	r0, r0, ip, asr #17

000008e0 <__register_exitproc>:
 8e0:	b5f0      	push	{r4, r5, r6, r7, lr}
 8e2:	46c6      	mov	lr, r8
 8e4:	b500      	push	{lr}
 8e6:	4c1f      	ldr	r4, [pc, #124]	; (964 <__register_exitproc+0x84>)
 8e8:	b082      	sub	sp, #8
 8ea:	6824      	ldr	r4, [r4, #0]
 8ec:	9401      	str	r4, [sp, #4]
 8ee:	24a4      	movs	r4, #164	; 0xa4
 8f0:	9d01      	ldr	r5, [sp, #4]
 8f2:	0064      	lsls	r4, r4, #1
 8f4:	592d      	ldr	r5, [r5, r4]
 8f6:	2d00      	cmp	r5, #0
 8f8:	d02b      	beq.n	952 <__register_exitproc+0x72>
 8fa:	686c      	ldr	r4, [r5, #4]
 8fc:	2c1f      	cmp	r4, #31
 8fe:	dc2e      	bgt.n	95e <__register_exitproc+0x7e>
 900:	2800      	cmp	r0, #0
 902:	d109      	bne.n	918 <__register_exitproc+0x38>
 904:	2000      	movs	r0, #0
 906:	1c63      	adds	r3, r4, #1
 908:	3402      	adds	r4, #2
 90a:	00a4      	lsls	r4, r4, #2
 90c:	606b      	str	r3, [r5, #4]
 90e:	5161      	str	r1, [r4, r5]
 910:	b002      	add	sp, #8
 912:	bc80      	pop	{r7}
 914:	46b8      	mov	r8, r7
 916:	bdf0      	pop	{r4, r5, r6, r7, pc}
 918:	2788      	movs	r7, #136	; 0x88
 91a:	00a6      	lsls	r6, r4, #2
 91c:	19ae      	adds	r6, r5, r6
 91e:	51f2      	str	r2, [r6, r7]
 920:	3701      	adds	r7, #1
 922:	37ff      	adds	r7, #255	; 0xff
 924:	46bc      	mov	ip, r7
 926:	2201      	movs	r2, #1
 928:	44ac      	add	ip, r5
 92a:	4667      	mov	r7, ip
 92c:	40a2      	lsls	r2, r4
 92e:	683f      	ldr	r7, [r7, #0]
 930:	4690      	mov	r8, r2
 932:	4317      	orrs	r7, r2
 934:	4662      	mov	r2, ip
 936:	6017      	str	r7, [r2, #0]
 938:	2784      	movs	r7, #132	; 0x84
 93a:	007f      	lsls	r7, r7, #1
 93c:	51f3      	str	r3, [r6, r7]
 93e:	2802      	cmp	r0, #2
 940:	d1e0      	bne.n	904 <__register_exitproc+0x24>
 942:	002b      	movs	r3, r5
 944:	4640      	mov	r0, r8
 946:	338d      	adds	r3, #141	; 0x8d
 948:	33ff      	adds	r3, #255	; 0xff
 94a:	681a      	ldr	r2, [r3, #0]
 94c:	4310      	orrs	r0, r2
 94e:	6018      	str	r0, [r3, #0]
 950:	e7d8      	b.n	904 <__register_exitproc+0x24>
 952:	9d01      	ldr	r5, [sp, #4]
 954:	9e01      	ldr	r6, [sp, #4]
 956:	354d      	adds	r5, #77	; 0x4d
 958:	35ff      	adds	r5, #255	; 0xff
 95a:	5135      	str	r5, [r6, r4]
 95c:	e7cd      	b.n	8fa <__register_exitproc+0x1a>
 95e:	2001      	movs	r0, #1
 960:	4240      	negs	r0, r0
 962:	e7d5      	b.n	910 <__register_exitproc+0x30>
 964:	00000e2c 	andeq	r0, r0, ip, lsr #28

00000968 <__call_exitprocs>:
 968:	b5f0      	push	{r4, r5, r6, r7, lr}
 96a:	464e      	mov	r6, r9
 96c:	46de      	mov	lr, fp
 96e:	4657      	mov	r7, sl
 970:	4645      	mov	r5, r8
 972:	22a4      	movs	r2, #164	; 0xa4
 974:	b5e0      	push	{r5, r6, r7, lr}
 976:	4b33      	ldr	r3, [pc, #204]	; (a44 <__call_exitprocs+0xdc>)
 978:	0052      	lsls	r2, r2, #1
 97a:	681b      	ldr	r3, [r3, #0]
 97c:	b083      	sub	sp, #12
 97e:	589e      	ldr	r6, [r3, r2]
 980:	4689      	mov	r9, r1
 982:	9001      	str	r0, [sp, #4]
 984:	9300      	str	r3, [sp, #0]
 986:	2e00      	cmp	r6, #0
 988:	d03d      	beq.n	a06 <__call_exitprocs+0x9e>
 98a:	6875      	ldr	r5, [r6, #4]
 98c:	1e6c      	subs	r4, r5, #1
 98e:	d43a      	bmi.n	a06 <__call_exitprocs+0x9e>
 990:	3501      	adds	r5, #1
 992:	00ad      	lsls	r5, r5, #2
 994:	002b      	movs	r3, r5
 996:	3380      	adds	r3, #128	; 0x80
 998:	4698      	mov	r8, r3
 99a:	23c4      	movs	r3, #196	; 0xc4
 99c:	005b      	lsls	r3, r3, #1
 99e:	469b      	mov	fp, r3
 9a0:	1977      	adds	r7, r6, r5
 9a2:	3501      	adds	r5, #1
 9a4:	35ff      	adds	r5, #255	; 0xff
 9a6:	44b0      	add	r8, r6
 9a8:	1975      	adds	r5, r6, r5
 9aa:	44b3      	add	fp, r6
 9ac:	e007      	b.n	9be <__call_exitprocs+0x56>
 9ae:	2304      	movs	r3, #4
 9b0:	425b      	negs	r3, r3
 9b2:	469c      	mov	ip, r3
 9b4:	3f04      	subs	r7, #4
 9b6:	44e0      	add	r8, ip
 9b8:	18ed      	adds	r5, r5, r3
 9ba:	3c01      	subs	r4, #1
 9bc:	d323      	bcc.n	a06 <__call_exitprocs+0x9e>
 9be:	464b      	mov	r3, r9
 9c0:	2b00      	cmp	r3, #0
 9c2:	d002      	beq.n	9ca <__call_exitprocs+0x62>
 9c4:	682b      	ldr	r3, [r5, #0]
 9c6:	454b      	cmp	r3, r9
 9c8:	d1f1      	bne.n	9ae <__call_exitprocs+0x46>
 9ca:	6873      	ldr	r3, [r6, #4]
 9cc:	683a      	ldr	r2, [r7, #0]
 9ce:	3b01      	subs	r3, #1
 9d0:	42a3      	cmp	r3, r4
 9d2:	d031      	beq.n	a38 <__call_exitprocs+0xd0>
 9d4:	2300      	movs	r3, #0
 9d6:	603b      	str	r3, [r7, #0]
 9d8:	2a00      	cmp	r2, #0
 9da:	d0e8      	beq.n	9ae <__call_exitprocs+0x46>
 9dc:	6873      	ldr	r3, [r6, #4]
 9de:	4659      	mov	r1, fp
 9e0:	469a      	mov	sl, r3
 9e2:	2301      	movs	r3, #1
 9e4:	40a3      	lsls	r3, r4
 9e6:	6809      	ldr	r1, [r1, #0]
 9e8:	4219      	tst	r1, r3
 9ea:	d113      	bne.n	a14 <__call_exitprocs+0xac>
 9ec:	4790      	blx	r2
 9ee:	6873      	ldr	r3, [r6, #4]
 9f0:	4553      	cmp	r3, sl
 9f2:	d11c      	bne.n	a2e <__call_exitprocs+0xc6>
 9f4:	22a4      	movs	r2, #164	; 0xa4
 9f6:	9b00      	ldr	r3, [sp, #0]
 9f8:	0052      	lsls	r2, r2, #1
 9fa:	589b      	ldr	r3, [r3, r2]
 9fc:	42b3      	cmp	r3, r6
 9fe:	d0d6      	beq.n	9ae <__call_exitprocs+0x46>
 a00:	001e      	movs	r6, r3
 a02:	2e00      	cmp	r6, #0
 a04:	d1c1      	bne.n	98a <__call_exitprocs+0x22>
 a06:	b003      	add	sp, #12
 a08:	bcf0      	pop	{r4, r5, r6, r7}
 a0a:	46bb      	mov	fp, r7
 a0c:	46b2      	mov	sl, r6
 a0e:	46a9      	mov	r9, r5
 a10:	46a0      	mov	r8, r4
 a12:	bdf0      	pop	{r4, r5, r6, r7, pc}
 a14:	0031      	movs	r1, r6
 a16:	318d      	adds	r1, #141	; 0x8d
 a18:	31ff      	adds	r1, #255	; 0xff
 a1a:	6809      	ldr	r1, [r1, #0]
 a1c:	4219      	tst	r1, r3
 a1e:	d10d      	bne.n	a3c <__call_exitprocs+0xd4>
 a20:	4643      	mov	r3, r8
 a22:	9801      	ldr	r0, [sp, #4]
 a24:	6819      	ldr	r1, [r3, #0]
 a26:	4790      	blx	r2
 a28:	6873      	ldr	r3, [r6, #4]
 a2a:	4553      	cmp	r3, sl
 a2c:	d0e2      	beq.n	9f4 <__call_exitprocs+0x8c>
 a2e:	22a4      	movs	r2, #164	; 0xa4
 a30:	9b00      	ldr	r3, [sp, #0]
 a32:	0052      	lsls	r2, r2, #1
 a34:	589e      	ldr	r6, [r3, r2]
 a36:	e7e4      	b.n	a02 <__call_exitprocs+0x9a>
 a38:	6074      	str	r4, [r6, #4]
 a3a:	e7cd      	b.n	9d8 <__call_exitprocs+0x70>
 a3c:	4643      	mov	r3, r8
 a3e:	6818      	ldr	r0, [r3, #0]
 a40:	4790      	blx	r2
 a42:	e7d4      	b.n	9ee <__call_exitprocs+0x86>
 a44:	00000e2c 	andeq	r0, r0, ip, lsr #28

00000a48 <_malloc_trim_r>:
 a48:	b5f8      	push	{r3, r4, r5, r6, r7, lr}
 a4a:	000c      	movs	r4, r1
 a4c:	0005      	movs	r5, r0
 a4e:	f7ff ff31 	bl	8b4 <__malloc_lock>
 a52:	4f20      	ldr	r7, [pc, #128]	; (ad4 <_malloc_trim_r+0x8c>)
 a54:	68bb      	ldr	r3, [r7, #8]
 a56:	685e      	ldr	r6, [r3, #4]
 a58:	2303      	movs	r3, #3
 a5a:	439e      	bics	r6, r3
 a5c:	4b1e      	ldr	r3, [pc, #120]	; (ad8 <_malloc_trim_r+0x90>)
 a5e:	1b34      	subs	r4, r6, r4
 a60:	469c      	mov	ip, r3
 a62:	4464      	add	r4, ip
 a64:	0b24      	lsrs	r4, r4, #12
 a66:	3c01      	subs	r4, #1
 a68:	3311      	adds	r3, #17
 a6a:	0324      	lsls	r4, r4, #12
 a6c:	429c      	cmp	r4, r3
 a6e:	db07      	blt.n	a80 <_malloc_trim_r+0x38>
 a70:	2100      	movs	r1, #0
 a72:	0028      	movs	r0, r5
 a74:	f7ff ff22 	bl	8bc <_sbrk_r>
 a78:	68bb      	ldr	r3, [r7, #8]
 a7a:	199b      	adds	r3, r3, r6
 a7c:	4298      	cmp	r0, r3
 a7e:	d004      	beq.n	a8a <_malloc_trim_r+0x42>
 a80:	0028      	movs	r0, r5
 a82:	f7ff ff19 	bl	8b8 <__malloc_unlock>
 a86:	2000      	movs	r0, #0
 a88:	bdf8      	pop	{r3, r4, r5, r6, r7, pc}
 a8a:	0028      	movs	r0, r5
 a8c:	4261      	negs	r1, r4
 a8e:	f7ff ff15 	bl	8bc <_sbrk_r>
 a92:	1c43      	adds	r3, r0, #1
 a94:	d00d      	beq.n	ab2 <_malloc_trim_r+0x6a>
 a96:	2201      	movs	r2, #1
 a98:	68bb      	ldr	r3, [r7, #8]
 a9a:	1b36      	subs	r6, r6, r4
 a9c:	4316      	orrs	r6, r2
 a9e:	605e      	str	r6, [r3, #4]
 aa0:	4b0e      	ldr	r3, [pc, #56]	; (adc <_malloc_trim_r+0x94>)
 aa2:	0028      	movs	r0, r5
 aa4:	681a      	ldr	r2, [r3, #0]
 aa6:	1b14      	subs	r4, r2, r4
 aa8:	601c      	str	r4, [r3, #0]
 aaa:	f7ff ff05 	bl	8b8 <__malloc_unlock>
 aae:	2001      	movs	r0, #1
 ab0:	e7ea      	b.n	a88 <_malloc_trim_r+0x40>
 ab2:	2100      	movs	r1, #0
 ab4:	0028      	movs	r0, r5
 ab6:	f7ff ff01 	bl	8bc <_sbrk_r>
 aba:	68ba      	ldr	r2, [r7, #8]
 abc:	1a83      	subs	r3, r0, r2
 abe:	2b0f      	cmp	r3, #15
 ac0:	ddde      	ble.n	a80 <_malloc_trim_r+0x38>
 ac2:	4907      	ldr	r1, [pc, #28]	; (ae0 <_malloc_trim_r+0x98>)
 ac4:	6809      	ldr	r1, [r1, #0]
 ac6:	1a40      	subs	r0, r0, r1
 ac8:	4904      	ldr	r1, [pc, #16]	; (adc <_malloc_trim_r+0x94>)
 aca:	6008      	str	r0, [r1, #0]
 acc:	2101      	movs	r1, #1
 ace:	430b      	orrs	r3, r1
 ad0:	6053      	str	r3, [r2, #4]
 ad2:	e7d5      	b.n	a80 <_malloc_trim_r+0x38>
 ad4:	20000468 	andcs	r0, r0, r8, ror #8
 ad8:	00000fef 	andeq	r0, r0, pc, ror #31
 adc:	2000089c 	mulcs	r0, ip, r8
 ae0:	20000460 	andcs	r0, r0, r0, ror #8

00000ae4 <_free_r>:
 ae4:	b5f0      	push	{r4, r5, r6, r7, lr}
 ae6:	46c6      	mov	lr, r8
 ae8:	0005      	movs	r5, r0
 aea:	000c      	movs	r4, r1
 aec:	b500      	push	{lr}
 aee:	2900      	cmp	r1, #0
 af0:	d04f      	beq.n	b92 <_free_r+0xae>
 af2:	f7ff fedf 	bl	8b4 <__malloc_lock>
 af6:	0021      	movs	r1, r4
 af8:	3908      	subs	r1, #8
 afa:	684c      	ldr	r4, [r1, #4]
 afc:	2601      	movs	r6, #1
 afe:	0022      	movs	r2, r4
 b00:	2003      	movs	r0, #3
 b02:	43b2      	bics	r2, r6
 b04:	188f      	adds	r7, r1, r2
 b06:	687b      	ldr	r3, [r7, #4]
 b08:	4383      	bics	r3, r0
 b0a:	4862      	ldr	r0, [pc, #392]	; (c94 <_free_r+0x1b0>)
 b0c:	4698      	mov	r8, r3
 b0e:	6883      	ldr	r3, [r0, #8]
 b10:	42bb      	cmp	r3, r7
 b12:	d06a      	beq.n	bea <_free_r+0x106>
 b14:	4643      	mov	r3, r8
 b16:	607b      	str	r3, [r7, #4]
 b18:	4226      	tst	r6, r4
 b1a:	d11e      	bne.n	b5a <_free_r+0x76>
 b1c:	2308      	movs	r3, #8
 b1e:	469c      	mov	ip, r3
 b20:	680c      	ldr	r4, [r1, #0]
 b22:	4484      	add	ip, r0
 b24:	1b09      	subs	r1, r1, r4
 b26:	1912      	adds	r2, r2, r4
 b28:	688c      	ldr	r4, [r1, #8]
 b2a:	4564      	cmp	r4, ip
 b2c:	d04f      	beq.n	bce <_free_r+0xea>
 b2e:	68cb      	ldr	r3, [r1, #12]
 b30:	60e3      	str	r3, [r4, #12]
 b32:	609c      	str	r4, [r3, #8]
 b34:	4643      	mov	r3, r8
 b36:	18fc      	adds	r4, r7, r3
 b38:	6864      	ldr	r4, [r4, #4]
 b3a:	4234      	tst	r4, r6
 b3c:	d111      	bne.n	b62 <_free_r+0x7e>
 b3e:	68bb      	ldr	r3, [r7, #8]
 b40:	4c55      	ldr	r4, [pc, #340]	; (c98 <_free_r+0x1b4>)
 b42:	4442      	add	r2, r8
 b44:	42a3      	cmp	r3, r4
 b46:	d100      	bne.n	b4a <_free_r+0x66>
 b48:	e07e      	b.n	c48 <_free_r+0x164>
 b4a:	68fc      	ldr	r4, [r7, #12]
 b4c:	60dc      	str	r4, [r3, #12]
 b4e:	60a3      	str	r3, [r4, #8]
 b50:	2301      	movs	r3, #1
 b52:	4313      	orrs	r3, r2
 b54:	604b      	str	r3, [r1, #4]
 b56:	508a      	str	r2, [r1, r2]
 b58:	e006      	b.n	b68 <_free_r+0x84>
 b5a:	18fc      	adds	r4, r7, r3
 b5c:	6864      	ldr	r4, [r4, #4]
 b5e:	4234      	tst	r4, r6
 b60:	d0ed      	beq.n	b3e <_free_r+0x5a>
 b62:	4316      	orrs	r6, r2
 b64:	604e      	str	r6, [r1, #4]
 b66:	603a      	str	r2, [r7, #0]
 b68:	2380      	movs	r3, #128	; 0x80
 b6a:	009b      	lsls	r3, r3, #2
 b6c:	429a      	cmp	r2, r3
 b6e:	d213      	bcs.n	b98 <_free_r+0xb4>
 b70:	0954      	lsrs	r4, r2, #5
 b72:	08d3      	lsrs	r3, r2, #3
 b74:	2201      	movs	r2, #1
 b76:	40a2      	lsls	r2, r4
 b78:	6844      	ldr	r4, [r0, #4]
 b7a:	00db      	lsls	r3, r3, #3
 b7c:	4322      	orrs	r2, r4
 b7e:	6042      	str	r2, [r0, #4]
 b80:	1818      	adds	r0, r3, r0
 b82:	6883      	ldr	r3, [r0, #8]
 b84:	60c8      	str	r0, [r1, #12]
 b86:	608b      	str	r3, [r1, #8]
 b88:	6081      	str	r1, [r0, #8]
 b8a:	60d9      	str	r1, [r3, #12]
 b8c:	0028      	movs	r0, r5
 b8e:	f7ff fe93 	bl	8b8 <__malloc_unlock>
 b92:	bc80      	pop	{r7}
 b94:	46b8      	mov	r8, r7
 b96:	bdf0      	pop	{r4, r5, r6, r7, pc}
 b98:	0a53      	lsrs	r3, r2, #9
 b9a:	2b04      	cmp	r3, #4
 b9c:	d83e      	bhi.n	c1c <_free_r+0x138>
 b9e:	0994      	lsrs	r4, r2, #6
 ba0:	0026      	movs	r6, r4
 ba2:	3439      	adds	r4, #57	; 0x39
 ba4:	3638      	adds	r6, #56	; 0x38
 ba6:	00e4      	lsls	r4, r4, #3
 ba8:	1904      	adds	r4, r0, r4
 baa:	6823      	ldr	r3, [r4, #0]
 bac:	3c08      	subs	r4, #8
 bae:	2703      	movs	r7, #3
 bb0:	429c      	cmp	r4, r3
 bb2:	d042      	beq.n	c3a <_free_r+0x156>
 bb4:	6858      	ldr	r0, [r3, #4]
 bb6:	43b8      	bics	r0, r7
 bb8:	4290      	cmp	r0, r2
 bba:	d902      	bls.n	bc2 <_free_r+0xde>
 bbc:	689b      	ldr	r3, [r3, #8]
 bbe:	429c      	cmp	r4, r3
 bc0:	d1f8      	bne.n	bb4 <_free_r+0xd0>
 bc2:	68dc      	ldr	r4, [r3, #12]
 bc4:	60cc      	str	r4, [r1, #12]
 bc6:	608b      	str	r3, [r1, #8]
 bc8:	60a1      	str	r1, [r4, #8]
 bca:	60d9      	str	r1, [r3, #12]
 bcc:	e7de      	b.n	b8c <_free_r+0xa8>
 bce:	4643      	mov	r3, r8
 bd0:	18f8      	adds	r0, r7, r3
 bd2:	6840      	ldr	r0, [r0, #4]
 bd4:	4230      	tst	r0, r6
 bd6:	d157      	bne.n	c88 <_free_r+0x1a4>
 bd8:	68fb      	ldr	r3, [r7, #12]
 bda:	68b8      	ldr	r0, [r7, #8]
 bdc:	4442      	add	r2, r8
 bde:	4316      	orrs	r6, r2
 be0:	60c3      	str	r3, [r0, #12]
 be2:	6098      	str	r0, [r3, #8]
 be4:	604e      	str	r6, [r1, #4]
 be6:	508a      	str	r2, [r1, r2]
 be8:	e7d0      	b.n	b8c <_free_r+0xa8>
 bea:	0013      	movs	r3, r2
 bec:	4443      	add	r3, r8
 bee:	4226      	tst	r6, r4
 bf0:	d106      	bne.n	c00 <_free_r+0x11c>
 bf2:	680a      	ldr	r2, [r1, #0]
 bf4:	1a89      	subs	r1, r1, r2
 bf6:	688c      	ldr	r4, [r1, #8]
 bf8:	189b      	adds	r3, r3, r2
 bfa:	68ca      	ldr	r2, [r1, #12]
 bfc:	60e2      	str	r2, [r4, #12]
 bfe:	6094      	str	r4, [r2, #8]
 c00:	2201      	movs	r2, #1
 c02:	431a      	orrs	r2, r3
 c04:	604a      	str	r2, [r1, #4]
 c06:	4a25      	ldr	r2, [pc, #148]	; (c9c <_free_r+0x1b8>)
 c08:	6081      	str	r1, [r0, #8]
 c0a:	6812      	ldr	r2, [r2, #0]
 c0c:	429a      	cmp	r2, r3
 c0e:	d8bd      	bhi.n	b8c <_free_r+0xa8>
 c10:	4b23      	ldr	r3, [pc, #140]	; (ca0 <_free_r+0x1bc>)
 c12:	0028      	movs	r0, r5
 c14:	6819      	ldr	r1, [r3, #0]
 c16:	f7ff ff17 	bl	a48 <_malloc_trim_r>
 c1a:	e7b7      	b.n	b8c <_free_r+0xa8>
 c1c:	2b14      	cmp	r3, #20
 c1e:	d907      	bls.n	c30 <_free_r+0x14c>
 c20:	2b54      	cmp	r3, #84	; 0x54
 c22:	d81a      	bhi.n	c5a <_free_r+0x176>
 c24:	0b14      	lsrs	r4, r2, #12
 c26:	0026      	movs	r6, r4
 c28:	346f      	adds	r4, #111	; 0x6f
 c2a:	366e      	adds	r6, #110	; 0x6e
 c2c:	00e4      	lsls	r4, r4, #3
 c2e:	e7bb      	b.n	ba8 <_free_r+0xc4>
 c30:	001e      	movs	r6, r3
 c32:	335c      	adds	r3, #92	; 0x5c
 c34:	365b      	adds	r6, #91	; 0x5b
 c36:	00dc      	lsls	r4, r3, #3
 c38:	e7b6      	b.n	ba8 <_free_r+0xc4>
 c3a:	2201      	movs	r2, #1
 c3c:	10b6      	asrs	r6, r6, #2
 c3e:	40b2      	lsls	r2, r6
 c40:	6846      	ldr	r6, [r0, #4]
 c42:	4332      	orrs	r2, r6
 c44:	6042      	str	r2, [r0, #4]
 c46:	e7bd      	b.n	bc4 <_free_r+0xe0>
 c48:	60d9      	str	r1, [r3, #12]
 c4a:	6099      	str	r1, [r3, #8]
 c4c:	60cb      	str	r3, [r1, #12]
 c4e:	608b      	str	r3, [r1, #8]
 c50:	2301      	movs	r3, #1
 c52:	4313      	orrs	r3, r2
 c54:	604b      	str	r3, [r1, #4]
 c56:	508a      	str	r2, [r1, r2]
 c58:	e798      	b.n	b8c <_free_r+0xa8>
 c5a:	24aa      	movs	r4, #170	; 0xaa
 c5c:	0064      	lsls	r4, r4, #1
 c5e:	42a3      	cmp	r3, r4
 c60:	d805      	bhi.n	c6e <_free_r+0x18a>
 c62:	0bd4      	lsrs	r4, r2, #15
 c64:	0026      	movs	r6, r4
 c66:	3478      	adds	r4, #120	; 0x78
 c68:	3677      	adds	r6, #119	; 0x77
 c6a:	00e4      	lsls	r4, r4, #3
 c6c:	e79c      	b.n	ba8 <_free_r+0xc4>
 c6e:	4c0d      	ldr	r4, [pc, #52]	; (ca4 <_free_r+0x1c0>)
 c70:	42a3      	cmp	r3, r4
 c72:	d805      	bhi.n	c80 <_free_r+0x19c>
 c74:	0c94      	lsrs	r4, r2, #18
 c76:	0026      	movs	r6, r4
 c78:	347d      	adds	r4, #125	; 0x7d
 c7a:	367c      	adds	r6, #124	; 0x7c
 c7c:	00e4      	lsls	r4, r4, #3
 c7e:	e793      	b.n	ba8 <_free_r+0xc4>
 c80:	24fe      	movs	r4, #254	; 0xfe
 c82:	267e      	movs	r6, #126	; 0x7e
 c84:	00a4      	lsls	r4, r4, #2
 c86:	e78f      	b.n	ba8 <_free_r+0xc4>
 c88:	0033      	movs	r3, r6
 c8a:	4313      	orrs	r3, r2
 c8c:	604b      	str	r3, [r1, #4]
 c8e:	603a      	str	r2, [r7, #0]
 c90:	e77c      	b.n	b8c <_free_r+0xa8>
 c92:	46c0      	nop			; (mov r8, r8)
 c94:	20000468 	andcs	r0, r0, r8, ror #8
 c98:	20000470 	andcs	r0, r0, r0, ror r4
 c9c:	20000464 	andcs	r0, r0, r4, ror #8
 ca0:	20000898 	mulcs	r0, r8, r8
 ca4:	00000554 	andeq	r0, r0, r4, asr r5

00000ca8 <cleanup_glue>:
 ca8:	b5f0      	push	{r4, r5, r6, r7, lr}
 caa:	46c6      	mov	lr, r8
 cac:	680e      	ldr	r6, [r1, #0]
 cae:	0004      	movs	r4, r0
 cb0:	000d      	movs	r5, r1
 cb2:	b500      	push	{lr}
 cb4:	2e00      	cmp	r6, #0
 cb6:	d017      	beq.n	ce8 <cleanup_glue+0x40>
 cb8:	6837      	ldr	r7, [r6, #0]
 cba:	2f00      	cmp	r7, #0
 cbc:	d010      	beq.n	ce0 <cleanup_glue+0x38>
 cbe:	683b      	ldr	r3, [r7, #0]
 cc0:	4698      	mov	r8, r3
 cc2:	2b00      	cmp	r3, #0
 cc4:	d008      	beq.n	cd8 <cleanup_glue+0x30>
 cc6:	6819      	ldr	r1, [r3, #0]
 cc8:	2900      	cmp	r1, #0
 cca:	d001      	beq.n	cd0 <cleanup_glue+0x28>
 ccc:	f7ff ffec 	bl	ca8 <cleanup_glue>
 cd0:	4641      	mov	r1, r8
 cd2:	0020      	movs	r0, r4
 cd4:	f7ff ff06 	bl	ae4 <_free_r>
 cd8:	0039      	movs	r1, r7
 cda:	0020      	movs	r0, r4
 cdc:	f7ff ff02 	bl	ae4 <_free_r>
 ce0:	0031      	movs	r1, r6
 ce2:	0020      	movs	r0, r4
 ce4:	f7ff fefe 	bl	ae4 <_free_r>
 ce8:	0029      	movs	r1, r5
 cea:	0020      	movs	r0, r4
 cec:	f7ff fefa 	bl	ae4 <_free_r>
 cf0:	bc80      	pop	{r7}
 cf2:	46b8      	mov	r8, r7
 cf4:	bdf0      	pop	{r4, r5, r6, r7, pc}
 cf6:	46c0      	nop			; (mov r8, r8)

00000cf8 <_reclaim_reent>:
 cf8:	4b26      	ldr	r3, [pc, #152]	; (d94 <_reclaim_reent+0x9c>)
 cfa:	b570      	push	{r4, r5, r6, lr}
 cfc:	681b      	ldr	r3, [r3, #0]
 cfe:	0005      	movs	r5, r0
 d00:	4283      	cmp	r3, r0
 d02:	d046      	beq.n	d92 <_reclaim_reent+0x9a>
 d04:	6cc1      	ldr	r1, [r0, #76]	; 0x4c
 d06:	2900      	cmp	r1, #0
 d08:	d011      	beq.n	d2e <_reclaim_reent+0x36>
 d0a:	2600      	movs	r6, #0
 d0c:	598c      	ldr	r4, [r1, r6]
 d0e:	2c00      	cmp	r4, #0
 d10:	d007      	beq.n	d22 <_reclaim_reent+0x2a>
 d12:	0021      	movs	r1, r4
 d14:	6824      	ldr	r4, [r4, #0]
 d16:	0028      	movs	r0, r5
 d18:	f7ff fee4 	bl	ae4 <_free_r>
 d1c:	2c00      	cmp	r4, #0
 d1e:	d1f8      	bne.n	d12 <_reclaim_reent+0x1a>
 d20:	6ce9      	ldr	r1, [r5, #76]	; 0x4c
 d22:	3604      	adds	r6, #4
 d24:	2e80      	cmp	r6, #128	; 0x80
 d26:	d1f1      	bne.n	d0c <_reclaim_reent+0x14>
 d28:	0028      	movs	r0, r5
 d2a:	f7ff fedb 	bl	ae4 <_free_r>
 d2e:	6c29      	ldr	r1, [r5, #64]	; 0x40
 d30:	2900      	cmp	r1, #0
 d32:	d002      	beq.n	d3a <_reclaim_reent+0x42>
 d34:	0028      	movs	r0, r5
 d36:	f7ff fed5 	bl	ae4 <_free_r>
 d3a:	23a4      	movs	r3, #164	; 0xa4
 d3c:	005b      	lsls	r3, r3, #1
 d3e:	58ec      	ldr	r4, [r5, r3]
 d40:	2c00      	cmp	r4, #0
 d42:	d00b      	beq.n	d5c <_reclaim_reent+0x64>
 d44:	002e      	movs	r6, r5
 d46:	364d      	adds	r6, #77	; 0x4d
 d48:	36ff      	adds	r6, #255	; 0xff
 d4a:	42b4      	cmp	r4, r6
 d4c:	d006      	beq.n	d5c <_reclaim_reent+0x64>
 d4e:	0021      	movs	r1, r4
 d50:	6824      	ldr	r4, [r4, #0]
 d52:	0028      	movs	r0, r5
 d54:	f7ff fec6 	bl	ae4 <_free_r>
 d58:	42a6      	cmp	r6, r4
 d5a:	d1f8      	bne.n	d4e <_reclaim_reent+0x56>
 d5c:	6d69      	ldr	r1, [r5, #84]	; 0x54
 d5e:	2900      	cmp	r1, #0
 d60:	d002      	beq.n	d68 <_reclaim_reent+0x70>
 d62:	0028      	movs	r0, r5
 d64:	f7ff febe 	bl	ae4 <_free_r>
 d68:	6bab      	ldr	r3, [r5, #56]	; 0x38
 d6a:	2b00      	cmp	r3, #0
 d6c:	d011      	beq.n	d92 <_reclaim_reent+0x9a>
 d6e:	6beb      	ldr	r3, [r5, #60]	; 0x3c
 d70:	0028      	movs	r0, r5
 d72:	4798      	blx	r3
 d74:	23b8      	movs	r3, #184	; 0xb8
 d76:	009b      	lsls	r3, r3, #2
 d78:	58ec      	ldr	r4, [r5, r3]
 d7a:	2c00      	cmp	r4, #0
 d7c:	d009      	beq.n	d92 <_reclaim_reent+0x9a>
 d7e:	6821      	ldr	r1, [r4, #0]
 d80:	2900      	cmp	r1, #0
 d82:	d002      	beq.n	d8a <_reclaim_reent+0x92>
 d84:	0028      	movs	r0, r5
 d86:	f7ff ff8f 	bl	ca8 <cleanup_glue>
 d8a:	0021      	movs	r1, r4
 d8c:	0028      	movs	r0, r5
 d8e:	f7ff fea9 	bl	ae4 <_free_r>
 d92:	bd70      	pop	{r4, r5, r6, pc}
 d94:	20000030 	andcs	r0, r0, r0, lsr r0

00000d98 <_sbrk>:
 d98:	4a04      	ldr	r2, [pc, #16]	; (dac <_sbrk+0x14>)
 d9a:	0003      	movs	r3, r0
 d9c:	6810      	ldr	r0, [r2, #0]
 d9e:	2800      	cmp	r0, #0
 da0:	d002      	beq.n	da8 <_sbrk+0x10>
 da2:	18c3      	adds	r3, r0, r3
 da4:	6013      	str	r3, [r2, #0]
 da6:	4770      	bx	lr
 da8:	4801      	ldr	r0, [pc, #4]	; (db0 <_sbrk+0x18>)
 daa:	e7fa      	b.n	da2 <_sbrk+0xa>
 dac:	200008d0 	ldrdcs	r0, [r0], -r0	; <UNPREDICTABLE>
 db0:	200008d4 	ldrdcs	r0, [r0], -r4

00000db4 <_exit>:
 db4:	e7fe      	b.n	db4 <_exit>
 db6:	46c0      	nop			; (mov r8, r8)

00000db8 <register_fini>:
 db8:	4b03      	ldr	r3, [pc, #12]	; (dc8 <register_fini+0x10>)
 dba:	b510      	push	{r4, lr}
 dbc:	2b00      	cmp	r3, #0
 dbe:	d002      	beq.n	dc6 <register_fini+0xe>
 dc0:	4802      	ldr	r0, [pc, #8]	; (dcc <register_fini+0x14>)
 dc2:	f7ff fa07 	bl	1d4 <atexit>
 dc6:	bd10      	pop	{r4, pc}
 dc8:	00000000 	andeq	r0, r0, r0
 dcc:	00000205 	andeq	r0, r0, r5, lsl #4

00000dd0 <__frame_dummy_init_array_entry>:
 dd0:	00000075 	andeq	r0, r0, r5, ror r0
 dd4:	00000db9 			; <UNDEFINED> instruction: 0x00000db9

00000dd8 <_init>:
 dd8:	b5f8      	push	{r3, r4, r5, r6, r7, lr}
 dda:	46c0      	nop			; (mov r8, r8)
 ddc:	bcf8      	pop	{r3, r4, r5, r6, r7}
 dde:	bc08      	pop	{r3}
 de0:	469e      	mov	lr, r3
 de2:	4770      	bx	lr

00000de4 <_fini>:
 de4:	b5f8      	push	{r3, r4, r5, r6, r7, lr}
 de6:	46c0      	nop			; (mov r8, r8)

00000de8 <__do_global_dtors_aux_fini_array_entry>:
 de8:	00000049 	andeq	r0, r0, r9, asr #32
 dec:	bcf8      	pop	{r3, r4, r5, r6, r7}
 dee:	bc08      	pop	{r3}
 df0:	469e      	mov	lr, r3
 df2:	4770      	bx	lr

Disassembly of section .rodata:

00000df4 <all_implied_fbits>:
 df4:	3d0a3d3a 	stccc	13, cr3, [sl, #-232]	; 0xffffff18
 df8:	3d243d0f 	stccc	13, cr3, [r4, #-60]!	; 0xffffffc4
 dfc:	3d023d32 	stccc	13, cr3, [r2, #-200]	; 0xffffff38
 e00:	3d133d05 	ldccc	13, cr3, [r3, #-20]	; 0xffffffec
 e04:	3d0c3d0d 	stccc	13, cr3, [ip, #-52]	; 0xffffffcc
 e08:	3d113d23 	ldccc	13, cr3, [r1, #-140]	; 0xffffff74
 e0c:	3d013d26 	stccc	13, cr3, [r1, #-152]	; 0xffffff68
 e10:	3d083d17 	stccc	13, cr3, [r8, #-92]	; 0xffffffa4
 e14:	00003d09 	andeq	r3, r0, r9, lsl #26

00000e18 <g2>:
 e18:	0000002d 	andeq	r0, r0, sp, lsr #32
 e1c:	6c6c6548 	cfstr64vs	mvdx6, [ip], #-288	; 0xfffffee0
 e20:	6f57206f 	svcvs	0x0057206f
 e24:	21646c72 	smccs	18114	; 0x46c2
 e28:	0000000a 	andeq	r0, r0, sl

00000e2c <_global_impure_ptr>:
 e2c:	20000038 	andcs	r0, r0, r8, lsr r0

00000e30 <all_implied_fbits>:
 e30:	3d0a3d3a 	stccc	13, cr3, [sl, #-232]	; 0xffffff18
 e34:	3d243d0f 	stccc	13, cr3, [r4, #-60]!	; 0xffffffc4
 e38:	3d023d32 	stccc	13, cr3, [r2, #-200]	; 0xffffff38
 e3c:	3d133d05 	ldccc	13, cr3, [r3, #-20]	; 0xffffffec
 e40:	3d0c3d0d 	stccc	13, cr3, [ip, #-52]	; 0xffffffcc
 e44:	3d113d23 	ldccc	13, cr3, [r1, #-140]	; 0xffffff74
 e48:	3d013d26 	stccc	13, cr3, [r1, #-152]	; 0xffffff68
 e4c:	3d083d17 	stccc	13, cr3, [r8, #-92]	; 0xffffffa4
 e50:	00003d09 	andeq	r3, r0, r9, lsl #26

Disassembly of section .eh_frame:

00000e54 <__FRAME_END__>:
 e54:	00000000 	andeq	r0, r0, r0

Disassembly of section .ARM.exidx:

00000e58 <__exidx_start>:
 e58:	7ffff240 	svcvc	0x00fff240
 e5c:	00000001 	andeq	r0, r0, r1

Disassembly of section .data:

20000000 <__dso_handle>:
20000000:	00000000 	andeq	r0, r0, r0

20000004 <g3>:
20000004:	0000000c 	andeq	r0, r0, ip

20000008 <g5>:
20000008:	00000000 	andeq	r0, r0, r0
2000000c:	00000001 	andeq	r0, r0, r1
20000010:	00000002 	andeq	r0, r0, r2
20000014:	00000003 	andeq	r0, r0, r3
20000018:	00000004 	andeq	r0, r0, r4
2000001c:	00000005 	andeq	r0, r0, r5
20000020:	00000006 	andeq	r0, r0, r6
20000024:	00000007 	andeq	r0, r0, r7
20000028:	00000008 	andeq	r0, r0, r8
2000002c:	00000009 	andeq	r0, r0, r9

20000030 <_impure_ptr>:
20000030:	20000038 	andcs	r0, r0, r8, lsr r0
20000034:	00000000 	andeq	r0, r0, r0

20000038 <impure_data>:
20000038:	00000000 	andeq	r0, r0, r0
2000003c:	20000324 	andcs	r0, r0, r4, lsr #6
20000040:	2000038c 	andcs	r0, r0, ip, lsl #7
20000044:	200003f4 	strdcs	r0, [r0], -r4
	...
200000e0:	00000001 	andeq	r0, r0, r1
200000e4:	00000000 	andeq	r0, r0, r0
200000e8:	abcd330e 	blge	1f34cd28 <_bsl_base_address+0x1f14ad28>
200000ec:	e66d1234 			; <UNDEFINED> instruction: 0xe66d1234
200000f0:	0005deec 	andeq	sp, r5, ip, ror #29
200000f4:	0000000b 	andeq	r0, r0, fp
	...

20000460 <__malloc_sbrk_base>:
20000460:	ffffffff 			; <UNDEFINED> instruction: 0xffffffff

20000464 <__malloc_trim_threshold>:
20000464:	00020000 	andeq	r0, r2, r0

20000468 <__malloc_av_>:
	...
20000470:	20000468 	andcs	r0, r0, r8, ror #8
20000474:	20000468 	andcs	r0, r0, r8, ror #8
20000478:	20000470 	andcs	r0, r0, r0, ror r4
2000047c:	20000470 	andcs	r0, r0, r0, ror r4
20000480:	20000478 	andcs	r0, r0, r8, ror r4
20000484:	20000478 	andcs	r0, r0, r8, ror r4
20000488:	20000480 	andcs	r0, r0, r0, lsl #9
2000048c:	20000480 	andcs	r0, r0, r0, lsl #9
20000490:	20000488 	andcs	r0, r0, r8, lsl #9
20000494:	20000488 	andcs	r0, r0, r8, lsl #9
20000498:	20000490 	mulcs	r0, r0, r4
2000049c:	20000490 	mulcs	r0, r0, r4
200004a0:	20000498 	mulcs	r0, r8, r4
200004a4:	20000498 	mulcs	r0, r8, r4
200004a8:	200004a0 	andcs	r0, r0, r0, lsr #9
200004ac:	200004a0 	andcs	r0, r0, r0, lsr #9
200004b0:	200004a8 	andcs	r0, r0, r8, lsr #9
200004b4:	200004a8 	andcs	r0, r0, r8, lsr #9
200004b8:	200004b0 			; <UNDEFINED> instruction: 0x200004b0
200004bc:	200004b0 			; <UNDEFINED> instruction: 0x200004b0
200004c0:	200004b8 			; <UNDEFINED> instruction: 0x200004b8
200004c4:	200004b8 			; <UNDEFINED> instruction: 0x200004b8
200004c8:	200004c0 	andcs	r0, r0, r0, asr #9
200004cc:	200004c0 	andcs	r0, r0, r0, asr #9
200004d0:	200004c8 	andcs	r0, r0, r8, asr #9
200004d4:	200004c8 	andcs	r0, r0, r8, asr #9
200004d8:	200004d0 	ldrdcs	r0, [r0], -r0	; <UNPREDICTABLE>
200004dc:	200004d0 	ldrdcs	r0, [r0], -r0	; <UNPREDICTABLE>
200004e0:	200004d8 	ldrdcs	r0, [r0], -r8
200004e4:	200004d8 	ldrdcs	r0, [r0], -r8
200004e8:	200004e0 	andcs	r0, r0, r0, ror #9
200004ec:	200004e0 	andcs	r0, r0, r0, ror #9
200004f0:	200004e8 	andcs	r0, r0, r8, ror #9
200004f4:	200004e8 	andcs	r0, r0, r8, ror #9
200004f8:	200004f0 	strdcs	r0, [r0], -r0	; <UNPREDICTABLE>
200004fc:	200004f0 	strdcs	r0, [r0], -r0	; <UNPREDICTABLE>
20000500:	200004f8 	strdcs	r0, [r0], -r8
20000504:	200004f8 	strdcs	r0, [r0], -r8
20000508:	20000500 	andcs	r0, r0, r0, lsl #10
2000050c:	20000500 	andcs	r0, r0, r0, lsl #10
20000510:	20000508 	andcs	r0, r0, r8, lsl #10
20000514:	20000508 	andcs	r0, r0, r8, lsl #10
20000518:	20000510 	andcs	r0, r0, r0, lsl r5
2000051c:	20000510 	andcs	r0, r0, r0, lsl r5
20000520:	20000518 	andcs	r0, r0, r8, lsl r5
20000524:	20000518 	andcs	r0, r0, r8, lsl r5
20000528:	20000520 	andcs	r0, r0, r0, lsr #10
2000052c:	20000520 	andcs	r0, r0, r0, lsr #10
20000530:	20000528 	andcs	r0, r0, r8, lsr #10
20000534:	20000528 	andcs	r0, r0, r8, lsr #10
20000538:	20000530 	andcs	r0, r0, r0, lsr r5
2000053c:	20000530 	andcs	r0, r0, r0, lsr r5
20000540:	20000538 	andcs	r0, r0, r8, lsr r5
20000544:	20000538 	andcs	r0, r0, r8, lsr r5
20000548:	20000540 	andcs	r0, r0, r0, asr #10
2000054c:	20000540 	andcs	r0, r0, r0, asr #10
20000550:	20000548 	andcs	r0, r0, r8, asr #10
20000554:	20000548 	andcs	r0, r0, r8, asr #10
20000558:	20000550 	andcs	r0, r0, r0, asr r5
2000055c:	20000550 	andcs	r0, r0, r0, asr r5
20000560:	20000558 	andcs	r0, r0, r8, asr r5
20000564:	20000558 	andcs	r0, r0, r8, asr r5
20000568:	20000560 	andcs	r0, r0, r0, ror #10
2000056c:	20000560 	andcs	r0, r0, r0, ror #10
20000570:	20000568 	andcs	r0, r0, r8, ror #10
20000574:	20000568 	andcs	r0, r0, r8, ror #10
20000578:	20000570 	andcs	r0, r0, r0, ror r5
2000057c:	20000570 	andcs	r0, r0, r0, ror r5
20000580:	20000578 	andcs	r0, r0, r8, ror r5
20000584:	20000578 	andcs	r0, r0, r8, ror r5
20000588:	20000580 	andcs	r0, r0, r0, lsl #11
2000058c:	20000580 	andcs	r0, r0, r0, lsl #11
20000590:	20000588 	andcs	r0, r0, r8, lsl #11
20000594:	20000588 	andcs	r0, r0, r8, lsl #11
20000598:	20000590 	mulcs	r0, r0, r5
2000059c:	20000590 	mulcs	r0, r0, r5
200005a0:	20000598 	mulcs	r0, r8, r5
200005a4:	20000598 	mulcs	r0, r8, r5
200005a8:	200005a0 	andcs	r0, r0, r0, lsr #11
200005ac:	200005a0 	andcs	r0, r0, r0, lsr #11
200005b0:	200005a8 	andcs	r0, r0, r8, lsr #11
200005b4:	200005a8 	andcs	r0, r0, r8, lsr #11
200005b8:	200005b0 			; <UNDEFINED> instruction: 0x200005b0
200005bc:	200005b0 			; <UNDEFINED> instruction: 0x200005b0
200005c0:	200005b8 			; <UNDEFINED> instruction: 0x200005b8
200005c4:	200005b8 			; <UNDEFINED> instruction: 0x200005b8
200005c8:	200005c0 	andcs	r0, r0, r0, asr #11
200005cc:	200005c0 	andcs	r0, r0, r0, asr #11
200005d0:	200005c8 	andcs	r0, r0, r8, asr #11
200005d4:	200005c8 	andcs	r0, r0, r8, asr #11
200005d8:	200005d0 	ldrdcs	r0, [r0], -r0	; <UNPREDICTABLE>
200005dc:	200005d0 	ldrdcs	r0, [r0], -r0	; <UNPREDICTABLE>
200005e0:	200005d8 	ldrdcs	r0, [r0], -r8
200005e4:	200005d8 	ldrdcs	r0, [r0], -r8
200005e8:	200005e0 	andcs	r0, r0, r0, ror #11
200005ec:	200005e0 	andcs	r0, r0, r0, ror #11
200005f0:	200005e8 	andcs	r0, r0, r8, ror #11
200005f4:	200005e8 	andcs	r0, r0, r8, ror #11
200005f8:	200005f0 	strdcs	r0, [r0], -r0	; <UNPREDICTABLE>
200005fc:	200005f0 	strdcs	r0, [r0], -r0	; <UNPREDICTABLE>
20000600:	200005f8 	strdcs	r0, [r0], -r8
20000604:	200005f8 	strdcs	r0, [r0], -r8
20000608:	20000600 	andcs	r0, r0, r0, lsl #12
2000060c:	20000600 	andcs	r0, r0, r0, lsl #12
20000610:	20000608 	andcs	r0, r0, r8, lsl #12
20000614:	20000608 	andcs	r0, r0, r8, lsl #12
20000618:	20000610 	andcs	r0, r0, r0, lsl r6
2000061c:	20000610 	andcs	r0, r0, r0, lsl r6
20000620:	20000618 	andcs	r0, r0, r8, lsl r6
20000624:	20000618 	andcs	r0, r0, r8, lsl r6
20000628:	20000620 	andcs	r0, r0, r0, lsr #12
2000062c:	20000620 	andcs	r0, r0, r0, lsr #12
20000630:	20000628 	andcs	r0, r0, r8, lsr #12
20000634:	20000628 	andcs	r0, r0, r8, lsr #12
20000638:	20000630 	andcs	r0, r0, r0, lsr r6
2000063c:	20000630 	andcs	r0, r0, r0, lsr r6
20000640:	20000638 	andcs	r0, r0, r8, lsr r6
20000644:	20000638 	andcs	r0, r0, r8, lsr r6
20000648:	20000640 	andcs	r0, r0, r0, asr #12
2000064c:	20000640 	andcs	r0, r0, r0, asr #12
20000650:	20000648 	andcs	r0, r0, r8, asr #12
20000654:	20000648 	andcs	r0, r0, r8, asr #12
20000658:	20000650 	andcs	r0, r0, r0, asr r6
2000065c:	20000650 	andcs	r0, r0, r0, asr r6
20000660:	20000658 	andcs	r0, r0, r8, asr r6
20000664:	20000658 	andcs	r0, r0, r8, asr r6
20000668:	20000660 	andcs	r0, r0, r0, ror #12
2000066c:	20000660 	andcs	r0, r0, r0, ror #12
20000670:	20000668 	andcs	r0, r0, r8, ror #12
20000674:	20000668 	andcs	r0, r0, r8, ror #12
20000678:	20000670 	andcs	r0, r0, r0, ror r6
2000067c:	20000670 	andcs	r0, r0, r0, ror r6
20000680:	20000678 	andcs	r0, r0, r8, ror r6
20000684:	20000678 	andcs	r0, r0, r8, ror r6
20000688:	20000680 	andcs	r0, r0, r0, lsl #13
2000068c:	20000680 	andcs	r0, r0, r0, lsl #13
20000690:	20000688 	andcs	r0, r0, r8, lsl #13
20000694:	20000688 	andcs	r0, r0, r8, lsl #13
20000698:	20000690 	mulcs	r0, r0, r6
2000069c:	20000690 	mulcs	r0, r0, r6
200006a0:	20000698 	mulcs	r0, r8, r6
200006a4:	20000698 	mulcs	r0, r8, r6
200006a8:	200006a0 	andcs	r0, r0, r0, lsr #13
200006ac:	200006a0 	andcs	r0, r0, r0, lsr #13
200006b0:	200006a8 	andcs	r0, r0, r8, lsr #13
200006b4:	200006a8 	andcs	r0, r0, r8, lsr #13
200006b8:	200006b0 			; <UNDEFINED> instruction: 0x200006b0
200006bc:	200006b0 			; <UNDEFINED> instruction: 0x200006b0
200006c0:	200006b8 			; <UNDEFINED> instruction: 0x200006b8
200006c4:	200006b8 			; <UNDEFINED> instruction: 0x200006b8
200006c8:	200006c0 	andcs	r0, r0, r0, asr #13
200006cc:	200006c0 	andcs	r0, r0, r0, asr #13
200006d0:	200006c8 	andcs	r0, r0, r8, asr #13
200006d4:	200006c8 	andcs	r0, r0, r8, asr #13
200006d8:	200006d0 	ldrdcs	r0, [r0], -r0	; <UNPREDICTABLE>
200006dc:	200006d0 	ldrdcs	r0, [r0], -r0	; <UNPREDICTABLE>
200006e0:	200006d8 	ldrdcs	r0, [r0], -r8
200006e4:	200006d8 	ldrdcs	r0, [r0], -r8
200006e8:	200006e0 	andcs	r0, r0, r0, ror #13
200006ec:	200006e0 	andcs	r0, r0, r0, ror #13
200006f0:	200006e8 	andcs	r0, r0, r8, ror #13
200006f4:	200006e8 	andcs	r0, r0, r8, ror #13
200006f8:	200006f0 	strdcs	r0, [r0], -r0	; <UNPREDICTABLE>
200006fc:	200006f0 	strdcs	r0, [r0], -r0	; <UNPREDICTABLE>
20000700:	200006f8 	strdcs	r0, [r0], -r8
20000704:	200006f8 	strdcs	r0, [r0], -r8
20000708:	20000700 	andcs	r0, r0, r0, lsl #14
2000070c:	20000700 	andcs	r0, r0, r0, lsl #14
20000710:	20000708 	andcs	r0, r0, r8, lsl #14
20000714:	20000708 	andcs	r0, r0, r8, lsl #14
20000718:	20000710 	andcs	r0, r0, r0, lsl r7
2000071c:	20000710 	andcs	r0, r0, r0, lsl r7
20000720:	20000718 	andcs	r0, r0, r8, lsl r7
20000724:	20000718 	andcs	r0, r0, r8, lsl r7
20000728:	20000720 	andcs	r0, r0, r0, lsr #14
2000072c:	20000720 	andcs	r0, r0, r0, lsr #14
20000730:	20000728 	andcs	r0, r0, r8, lsr #14
20000734:	20000728 	andcs	r0, r0, r8, lsr #14
20000738:	20000730 	andcs	r0, r0, r0, lsr r7
2000073c:	20000730 	andcs	r0, r0, r0, lsr r7
20000740:	20000738 	andcs	r0, r0, r8, lsr r7
20000744:	20000738 	andcs	r0, r0, r8, lsr r7
20000748:	20000740 	andcs	r0, r0, r0, asr #14
2000074c:	20000740 	andcs	r0, r0, r0, asr #14
20000750:	20000748 	andcs	r0, r0, r8, asr #14
20000754:	20000748 	andcs	r0, r0, r8, asr #14
20000758:	20000750 	andcs	r0, r0, r0, asr r7
2000075c:	20000750 	andcs	r0, r0, r0, asr r7
20000760:	20000758 	andcs	r0, r0, r8, asr r7
20000764:	20000758 	andcs	r0, r0, r8, asr r7
20000768:	20000760 	andcs	r0, r0, r0, ror #14
2000076c:	20000760 	andcs	r0, r0, r0, ror #14
20000770:	20000768 	andcs	r0, r0, r8, ror #14
20000774:	20000768 	andcs	r0, r0, r8, ror #14
20000778:	20000770 	andcs	r0, r0, r0, ror r7
2000077c:	20000770 	andcs	r0, r0, r0, ror r7
20000780:	20000778 	andcs	r0, r0, r8, ror r7
20000784:	20000778 	andcs	r0, r0, r8, ror r7
20000788:	20000780 	andcs	r0, r0, r0, lsl #15
2000078c:	20000780 	andcs	r0, r0, r0, lsl #15
20000790:	20000788 	andcs	r0, r0, r8, lsl #15
20000794:	20000788 	andcs	r0, r0, r8, lsl #15
20000798:	20000790 	mulcs	r0, r0, r7
2000079c:	20000790 	mulcs	r0, r0, r7
200007a0:	20000798 	mulcs	r0, r8, r7
200007a4:	20000798 	mulcs	r0, r8, r7
200007a8:	200007a0 	andcs	r0, r0, r0, lsr #15
200007ac:	200007a0 	andcs	r0, r0, r0, lsr #15
200007b0:	200007a8 	andcs	r0, r0, r8, lsr #15
200007b4:	200007a8 	andcs	r0, r0, r8, lsr #15
200007b8:	200007b0 			; <UNDEFINED> instruction: 0x200007b0
200007bc:	200007b0 			; <UNDEFINED> instruction: 0x200007b0
200007c0:	200007b8 			; <UNDEFINED> instruction: 0x200007b8
200007c4:	200007b8 			; <UNDEFINED> instruction: 0x200007b8
200007c8:	200007c0 	andcs	r0, r0, r0, asr #15
200007cc:	200007c0 	andcs	r0, r0, r0, asr #15
200007d0:	200007c8 	andcs	r0, r0, r8, asr #15
200007d4:	200007c8 	andcs	r0, r0, r8, asr #15
200007d8:	200007d0 	ldrdcs	r0, [r0], -r0	; <UNPREDICTABLE>
200007dc:	200007d0 	ldrdcs	r0, [r0], -r0	; <UNPREDICTABLE>
200007e0:	200007d8 	ldrdcs	r0, [r0], -r8
200007e4:	200007d8 	ldrdcs	r0, [r0], -r8
200007e8:	200007e0 	andcs	r0, r0, r0, ror #15
200007ec:	200007e0 	andcs	r0, r0, r0, ror #15
200007f0:	200007e8 	andcs	r0, r0, r8, ror #15
200007f4:	200007e8 	andcs	r0, r0, r8, ror #15
200007f8:	200007f0 	strdcs	r0, [r0], -r0	; <UNPREDICTABLE>
200007fc:	200007f0 	strdcs	r0, [r0], -r0	; <UNPREDICTABLE>
20000800:	200007f8 	strdcs	r0, [r0], -r8
20000804:	200007f8 	strdcs	r0, [r0], -r8
20000808:	20000800 	andcs	r0, r0, r0, lsl #16
2000080c:	20000800 	andcs	r0, r0, r0, lsl #16
20000810:	20000808 	andcs	r0, r0, r8, lsl #16
20000814:	20000808 	andcs	r0, r0, r8, lsl #16
20000818:	20000810 	andcs	r0, r0, r0, lsl r8
2000081c:	20000810 	andcs	r0, r0, r0, lsl r8
20000820:	20000818 	andcs	r0, r0, r8, lsl r8
20000824:	20000818 	andcs	r0, r0, r8, lsl r8
20000828:	20000820 	andcs	r0, r0, r0, lsr #16
2000082c:	20000820 	andcs	r0, r0, r0, lsr #16
20000830:	20000828 	andcs	r0, r0, r8, lsr #16
20000834:	20000828 	andcs	r0, r0, r8, lsr #16
20000838:	20000830 	andcs	r0, r0, r0, lsr r8
2000083c:	20000830 	andcs	r0, r0, r0, lsr r8
20000840:	20000838 	andcs	r0, r0, r8, lsr r8
20000844:	20000838 	andcs	r0, r0, r8, lsr r8
20000848:	20000840 	andcs	r0, r0, r0, asr #16
2000084c:	20000840 	andcs	r0, r0, r0, asr #16
20000850:	20000848 	andcs	r0, r0, r8, asr #16
20000854:	20000848 	andcs	r0, r0, r8, asr #16
20000858:	20000850 	andcs	r0, r0, r0, asr r8
2000085c:	20000850 	andcs	r0, r0, r0, asr r8
20000860:	20000858 	andcs	r0, r0, r8, asr r8
20000864:	20000858 	andcs	r0, r0, r8, asr r8
20000868:	20000860 	andcs	r0, r0, r0, ror #16
2000086c:	20000860 	andcs	r0, r0, r0, ror #16

Disassembly of section .bss:

20000870 <__bss_start__>:
20000870:	00000000 	andeq	r0, r0, r0

20000874 <object.0>:
	...

2000088c <g1>:
2000088c:	00000000 	andeq	r0, r0, r0

20000890 <g4>:
20000890:	00000000 	andeq	r0, r0, r0

20000894 <f2.0>:
20000894:	00000000 	andeq	r0, r0, r0

20000898 <__malloc_top_pad>:
20000898:	00000000 	andeq	r0, r0, r0

2000089c <__malloc_current_mallinfo>:
	...

200008c4 <__malloc_max_sbrked_mem>:
200008c4:	00000000 	andeq	r0, r0, r0

200008c8 <__malloc_max_total_mem>:
200008c8:	00000000 	andeq	r0, r0, r0

200008cc <errno>:
200008cc:	00000000 	andeq	r0, r0, r0

200008d0 <heap_end.0>:
200008d0:	00000000 	andeq	r0, r0, r0

Disassembly of section .ARM.attributes:

00000000 <__HeapLimit-0x200008d4>:
   0:	00002741 	andeq	r2, r0, r1, asr #14
   4:	61656100 	cmnvs	r5, r0, lsl #2
   8:	01006962 	tsteq	r0, r2, ror #18
   c:	0000001d 	andeq	r0, r0, sp, lsl r0
  10:	2d533605 	ldclcs	6, cr3, [r3, #-20]	; 0xffffffec
  14:	0c06004d 	stceq	0, cr0, [r6], {77}	; 0x4d
  18:	01094d07 	tsteq	r9, r7, lsl #26
  1c:	01140412 	tsteq	r4, r2, lsl r4
  20:	03170115 	tsteq	r7, #1073741829	; 0x40000005
  24:	011a0118 	tsteq	sl, r8, lsl r1

Disassembly of section .comment:

00000000 <.comment>:
   0:	3a434347 	bcc	10d0d24 <_bsl_base_address+0xeced24>
   4:	35312820 	ldrcc	r2, [r1, #-2080]!	; 0xfffff7e0
   8:	2e30313a 	mrccs	1, 1, r3, cr0, cr10, {1}
   c:	30322d33 	eorscc	r2, r2, r3, lsr sp
  10:	302e3132 	eorcc	r3, lr, r2, lsr r1
  14:	29342d37 	ldmdbcs	r4!, {r0, r1, r2, r4, r5, r8, sl, fp, sp}
  18:	2e303120 	rsfcssp	f3, f0, f0
  1c:	20312e33 	eorscs	r2, r1, r3, lsr lr
  20:	31323032 	teqcc	r2, r2, lsr r0
  24:	31323630 	teqcc	r2, r0, lsr r6
  28:	65722820 	ldrbvs	r2, [r2, #-2080]!	; 0xfffff7e0
  2c:	7361656c 	cmnvc	r1, #108, 10	; 0x1b000000
  30:	Address 0x0000000000000030 is out of bounds.


Disassembly of section .debug_line:

00000000 <.debug_line>:
       0:	00000088 	andeq	r0, r0, r8, lsl #1
       4:	00420003 	subeq	r0, r2, r3
       8:	01020000 	mrseq	r0, (UNDEF: 2)
       c:	000d0efb 	strdeq	r0, [sp], -fp
      10:	01010101 	tsteq	r1, r1, lsl #2
      14:	01000000 	mrseq	r0, (UNDEF: 0)
      18:	2e010000 	cdpcs	0, 0, cr0, cr1, cr0, {0}
      1c:	2e2e2f2e 	cdpcs	15, 2, cr2, cr14, cr14, {1}
      20:	2f2e2e2f 	svccs	0x002e2e2f
      24:	2e2f2e2e 	cdpcs	14, 2, cr2, cr15, cr14, {1}
      28:	2e2e2f2e 	cdpcs	15, 2, cr2, cr14, cr14, {1}
      2c:	2f2e2e2f 	svccs	0x002e2e2f
      30:	6c2f2e2e 	stcvs	14, cr2, [pc], #-184	; ffffff80 <__stack+0xdffff6a8>
      34:	6c676269 	sfmvs	f6, 2, [r7], #-420	; 0xfffffe5c
      38:	2f73736f 	svccs	0x0073736f
      3c:	006d7261 	rsbeq	r7, sp, r1, ror #4
      40:	74726300 	ldrbtvc	r6, [r2], #-768	; 0xfffffd00
      44:	00532e30 	subseq	r2, r3, r0, lsr lr
      48:	00000001 	andeq	r0, r0, r1
      4c:	98020500 	stmdals	r2, {r8, sl}
      50:	03000000 	movweq	r0, #0
      54:	210101e5 	smlattcs	r1, r5, r1, r0
      58:	03272121 			; <UNDEFINED> instruction: 0x03272121
      5c:	212e00e9 	smulwtcs	lr, r9, r0
      60:	09032125 	stmdbeq	r3, {r0, r2, r5, r8, sp}
      64:	21332320 	teqcs	r3, r0, lsr #6
      68:	21212221 			; <UNDEFINED> instruction: 0x21212221
      6c:	33200e03 			; <UNDEFINED> instruction: 0x33200e03
      70:	22212121 	eorcs	r2, r1, #1073741832	; 0x40000008
      74:	23212121 			; <UNDEFINED> instruction: 0x23212121
      78:	00fa0321 	rscseq	r0, sl, r1, lsr #6
      7c:	09032120 	stmdbeq	r3, {r5, r8, sp}
      80:	2f302120 	svccs	0x00302120
      84:	02302221 	eorseq	r2, r0, #268435458	; 0x10000002
      88:	01010010 	tsteq	r1, r0, lsl r0
      8c:	000000bf 	strheq	r0, [r0], -pc	; <UNPREDICTABLE>
      90:	00980003 	addseq	r0, r8, r3
      94:	01020000 	mrseq	r0, (UNDEF: 2)
      98:	000d0efb 	strdeq	r0, [sp], -fp
      9c:	01010101 	tsteq	r1, r1, lsl #2
      a0:	01000000 	mrseq	r0, (UNDEF: 0)
      a4:	2e010000 	cdpcs	0, 0, cr0, cr1, cr0, {0}
      a8:	2e2e2f2e 	cdpcs	15, 2, cr2, cr14, cr14, {1}
      ac:	2f2e2e2f 	svccs	0x002e2e2f
      b0:	2e2f2e2e 	cdpcs	14, 2, cr2, cr15, cr14, {1}
      b4:	2e2e2f2e 	cdpcs	15, 2, cr2, cr14, cr14, {1}
      b8:	2f2e2e2f 	svccs	0x002e2e2f
      bc:	6e2f2e2e 	cdpvs	14, 2, cr2, cr15, cr14, {1}
      c0:	696c7765 	stmdbvs	ip!, {r0, r2, r5, r6, r8, r9, sl, ip, sp, lr}^
      c4:	696c2f62 	stmdbvs	ip!, {r1, r5, r6, r8, r9, sl, fp, sp}^
      c8:	732f6362 			; <UNDEFINED> instruction: 0x732f6362
      cc:	696c6474 	stmdbvs	ip!, {r2, r4, r5, r6, sl, sp, lr}^
      d0:	622f0062 	eorvs	r0, pc, #98	; 0x62
      d4:	646c6975 	strbtvs	r6, [ip], #-2421	; 0xfffff68b
      d8:	77656e2f 	strbvc	r6, [r5, -pc, lsr #28]!
      dc:	2d62696c 			; <UNDEFINED> instruction: 0x2d62696c
      e0:	30334270 	eorscc	r4, r3, r0, ror r2
      e4:	6e2f6564 	cfsh64vs	mvdx6, mvdx15, #52
      e8:	696c7765 	stmdbvs	ip!, {r0, r2, r5, r6, r8, r9, sl, ip, sp, lr}^
      ec:	2e332d62 	cdpcs	13, 3, cr2, cr3, cr2, {3}
      f0:	2f302e33 	svccs	0x00302e33
      f4:	6c77656e 	cfldr64vs	mvdx6, [r7], #-440	; 0xfffffe48
      f8:	6c2f6269 	sfmvs	f6, 4, [pc], #-420	; ffffff5c <__stack+0xdffff684>
      fc:	2f636269 	svccs	0x00636269
     100:	6c636e69 	stclvs	14, cr6, [r3], #-420	; 0xfffffe5c
     104:	00656475 	rsbeq	r6, r5, r5, ror r4
     108:	65746100 	ldrbvs	r6, [r4, #-256]!	; 0xffffff00
     10c:	2e746978 			; <UNDEFINED> instruction: 0x2e746978
     110:	00010063 	andeq	r0, r1, r3, rrx
     114:	65746100 	ldrbvs	r6, [r4, #-256]!	; 0xffffff00
     118:	2e746978 			; <UNDEFINED> instruction: 0x2e746978
     11c:	00010068 	andeq	r0, r1, r8, rrx
     120:	64747300 	ldrbtvs	r7, [r4], #-768	; 0xfffffd00
     124:	2e62696c 	vnmulcs.f16	s13, s4, s25	; <UNPREDICTABLE>
     128:	00020068 	andeq	r0, r2, r8, rrx
     12c:	01050000 	mrseq	r0, (UNDEF: 5)
     130:	d4020500 	strle	r0, [r2], #-1280	; 0xfffffb00
     134:	03000001 	movweq	r0, #1
     138:	03050138 	movweq	r0, #20792	; 0x5138
     13c:	06010513 			; <UNDEFINED> instruction: 0x06010513
     140:	05222011 	streq	r2, [r2, #-17]!	; 0xffffffef
     144:	053c110a 	ldreq	r1, [ip, #-266]!	; 0xfffffef6
     148:	01022f01 	tsteq	r2, r1, lsl #30
     14c:	75010100 	strvc	r0, [r1, #-256]	; 0xffffff00
     150:	03000001 	movweq	r0, #1
     154:	00013300 	andeq	r3, r1, r0, lsl #6
     158:	fb010200 	blx	40962 <__data_load__+0x3fb02>
     15c:	01000d0e 	tsteq	r0, lr, lsl #26
     160:	00010101 	andeq	r0, r1, r1, lsl #2
     164:	00010000 	andeq	r0, r1, r0
     168:	2e2e0100 	sufcse	f0, f6, f0
     16c:	2f2e2e2f 	svccs	0x002e2e2f
     170:	2e2f2e2e 	cdpcs	14, 2, cr2, cr15, cr14, {1}
     174:	2e2e2f2e 	cdpcs	15, 2, cr2, cr14, cr14, {1}
     178:	2f2e2e2f 	svccs	0x002e2e2f
     17c:	2e2f2e2e 	cdpcs	14, 2, cr2, cr15, cr14, {1}
     180:	656e2f2e 	strbvs	r2, [lr, #-3886]!	; 0xfffff0d2
     184:	62696c77 	rsbvs	r6, r9, #30464	; 0x7700
     188:	62696c2f 	rsbvs	r6, r9, #12032	; 0x2f00
     18c:	74732f63 	ldrbtvc	r2, [r3], #-3939	; 0xfffff09d
     190:	62696c64 	rsbvs	r6, r9, #100, 24	; 0x6400
     194:	73752f00 	cmnvc	r5, #0, 30
     198:	696c2f72 	stmdbvs	ip!, {r1, r4, r5, r6, r8, r9, sl, fp, sp}^
     19c:	63672f62 	cmnvs	r7, #392	; 0x188
     1a0:	72612f63 	rsbvc	r2, r1, #396	; 0x18c
     1a4:	6f6e2d6d 	svcvs	0x006e2d6d
     1a8:	652d656e 	strvs	r6, [sp, #-1390]!	; 0xfffffa92
     1ac:	2f696261 	svccs	0x00696261
     1b0:	332e3031 			; <UNDEFINED> instruction: 0x332e3031
     1b4:	692f312e 	stmdbvs	pc!, {r1, r2, r3, r5, r8, ip, sp}	; <UNPREDICTABLE>
     1b8:	756c636e 	strbvc	r6, [ip, #-878]!	; 0xfffffc92
     1bc:	2f006564 	svccs	0x00006564
     1c0:	6c697562 	cfstr64vs	mvdx7, [r9], #-392	; 0xfffffe78
     1c4:	656e2f64 	strbvs	r2, [lr, #-3940]!	; 0xfffff09c
     1c8:	62696c77 	rsbvs	r6, r9, #30464	; 0x7700
     1cc:	3342702d 	movtcc	r7, #8237	; 0x202d
     1d0:	2f656430 	svccs	0x00656430
     1d4:	6c77656e 	cfldr64vs	mvdx6, [r7], #-440	; 0xfffffe48
     1d8:	332d6269 			; <UNDEFINED> instruction: 0x332d6269
     1dc:	302e332e 	eorcc	r3, lr, lr, lsr #6
     1e0:	77656e2f 	strbvc	r6, [r5, -pc, lsr #28]!
     1e4:	2f62696c 	svccs	0x0062696c
     1e8:	6362696c 	cmnvs	r2, #108, 18	; 0x1b0000
     1ec:	636e692f 	cmnvs	lr, #770048	; 0xbc000
     1f0:	6564756c 	strbvs	r7, [r4, #-1388]!	; 0xfffffa94
     1f4:	7379732f 	cmnvc	r9, #-1140850688	; 0xbc000000
     1f8:	75622f00 	strbvc	r2, [r2, #-3840]!	; 0xfffff100
     1fc:	2f646c69 	svccs	0x00646c69
     200:	6c77656e 	cfldr64vs	mvdx6, [r7], #-440	; 0xfffffe48
     204:	702d6269 	eorvc	r6, sp, r9, ror #4
     208:	64303342 	ldrtvs	r3, [r0], #-834	; 0xfffffcbe
     20c:	656e2f65 	strbvs	r2, [lr, #-3941]!	; 0xfffff09b
     210:	62696c77 	rsbvs	r6, r9, #30464	; 0x7700
     214:	332e332d 			; <UNDEFINED> instruction: 0x332e332d
     218:	6e2f302e 	cdpvs	0, 2, cr3, cr15, cr14, {1}
     21c:	696c7765 	stmdbvs	ip!, {r0, r2, r5, r6, r8, r9, sl, ip, sp, lr}^
     220:	696c2f62 	stmdbvs	ip!, {r1, r5, r6, r8, r9, sl, fp, sp}^
     224:	692f6362 	stmdbvs	pc!, {r1, r5, r6, r8, r9, sp, lr}	; <UNPREDICTABLE>
     228:	756c636e 	strbvc	r6, [ip, #-878]!	; 0xfffffc92
     22c:	00006564 	andeq	r6, r0, r4, ror #10
     230:	74697865 	strbtvc	r7, [r9], #-2149	; 0xfffff79b
     234:	0100632e 	tsteq	r0, lr, lsr #6
     238:	74730000 	ldrbtvc	r0, [r3], #-0
     23c:	66656464 	strbtvs	r6, [r5], -r4, ror #8
     240:	0200682e 	andeq	r6, r0, #3014656	; 0x2e0000
     244:	745f0000 	ldrbvc	r0, [pc], #-0	; 24c <__libc_init_array+0x20>
     248:	73657079 	cmnvc	r5, #121	; 0x79
     24c:	0300682e 	movweq	r6, #2094	; 0x82e
     250:	65720000 	ldrbvs	r0, [r2, #-0]!
     254:	2e746e65 	cdpcs	14, 7, cr6, cr4, cr5, {3}
     258:	00030068 	andeq	r0, r3, r8, rrx
     25c:	636f6c00 	cmnvs	pc, #0, 24
     260:	00682e6b 	rsbeq	r2, r8, fp, ror #28
     264:	61000003 	tstvs	r0, r3
     268:	69786574 	ldmdbvs	r8!, {r2, r4, r5, r6, r8, sl, sp, lr}^
     26c:	00682e74 	rsbeq	r2, r8, r4, ror lr
     270:	75000001 	strvc	r0, [r0, #-1]
     274:	7473696e 	ldrbtvc	r6, [r3], #-2414	; 0xfffff692
     278:	00682e64 	rsbeq	r2, r8, r4, ror #28
     27c:	73000003 	movwvc	r0, #3
     280:	696c6474 	stmdbvs	ip!, {r2, r4, r5, r6, sl, sp, lr}^
     284:	00682e62 	rsbeq	r2, r8, r2, ror #28
     288:	00000004 	andeq	r0, r0, r4
     28c:	05000105 	streq	r0, [r0, #-261]	; 0xfffffefb
     290:	0001e402 	andeq	lr, r1, r2, lsl #8
     294:	01350300 	teqeq	r5, r0, lsl #6
     298:	05180505 	ldreq	r0, [r8, #-1285]	; 0xfffffafb
     29c:	7a030601 	bvc	c1aa8 <__data_load__+0xc0c48>
     2a0:	26050501 	strcs	r0, [r5], -r1, lsl #10
     2a4:	7a030105 	bvc	c06c0 <__data_load__+0xbf860>
     2a8:	26050520 	strcs	r0, [r5], -r0, lsr #10
     2ac:	30060305 	andcc	r0, r6, r5, lsl #6
     2b0:	01061405 	tsteq	r6, r5, lsl #8
     2b4:	053c0605 	ldreq	r0, [ip, #-1541]!	; 0xfffff9fb
     2b8:	052f0605 	streq	r0, [pc, #-1541]!	; fffffcbb <__stack+0xdffff3e3>
     2bc:	05010606 	streq	r0, [r1, #-1542]	; 0xfffff9fa
     2c0:	02210603 	eoreq	r0, r1, #3145728	; 0x300000
     2c4:	01010005 	tsteq	r1, r5
     2c8:	000000eb 	andeq	r0, r0, fp, ror #1
     2cc:	007c0003 	rsbseq	r0, ip, r3
     2d0:	01020000 	mrseq	r0, (UNDEF: 2)
     2d4:	000d0efb 	strdeq	r0, [sp], -fp
     2d8:	01010101 	tsteq	r1, r1, lsl #2
     2dc:	01000000 	mrseq	r0, (UNDEF: 0)
     2e0:	2e010000 	cdpcs	0, 0, cr0, cr1, cr0, {0}
     2e4:	2e2e2f2e 	cdpcs	15, 2, cr2, cr14, cr14, {1}
     2e8:	2f2e2e2f 	svccs	0x002e2e2f
     2ec:	2e2f2e2e 	cdpcs	14, 2, cr2, cr15, cr14, {1}
     2f0:	2e2e2f2e 	cdpcs	15, 2, cr2, cr14, cr14, {1}
     2f4:	2f2e2e2f 	svccs	0x002e2e2f
     2f8:	6e2f2e2e 	cdpvs	14, 2, cr2, cr15, cr14, {1}
     2fc:	696c7765 	stmdbvs	ip!, {r0, r2, r5, r6, r8, r9, sl, ip, sp, lr}^
     300:	696c2f62 	stmdbvs	ip!, {r1, r5, r6, r8, r9, sl, fp, sp}^
     304:	6d2f6362 	stcvs	3, cr6, [pc, #-392]!	; 184 <func+0x20>
     308:	00637369 	rsbeq	r7, r3, r9, ror #6
     30c:	7273752f 	rsbsvc	r7, r3, #197132288	; 0xbc00000
     310:	62696c2f 	rsbvs	r6, r9, #12032	; 0x2f00
     314:	6363672f 	cmnvs	r3, #12320768	; 0xbc0000
     318:	6d72612f 	ldfvse	f6, [r2, #-188]!	; 0xffffff44
     31c:	6e6f6e2d 	cdpvs	14, 6, cr6, cr15, cr13, {1}
     320:	61652d65 	cmnvs	r5, r5, ror #26
     324:	312f6962 			; <UNDEFINED> instruction: 0x312f6962
     328:	2e332e30 	mrccs	14, 1, r2, cr3, cr0, {1}
     32c:	6e692f31 	mcrvs	15, 3, r2, cr9, cr1, {1}
     330:	64756c63 	ldrbtvs	r6, [r5], #-3171	; 0xfffff39d
     334:	66000065 	strvs	r0, [r0], -r5, rrx
     338:	2e696e69 	cdpcs	14, 6, cr6, cr9, cr9, {3}
     33c:	00010063 	andeq	r0, r1, r3, rrx
     340:	64747300 	ldrbtvs	r7, [r4], #-768	; 0xfffffd00
     344:	2e666564 	cdpcs	5, 6, cr6, cr6, cr4, {3}
     348:	00020068 	andeq	r0, r2, r8, rrx
     34c:	01050000 	mrseq	r0, (UNDEF: 5)
     350:	04020500 	streq	r0, [r2], #-1280	; 0xfffffb00
     354:	03000002 	movweq	r0, #2
     358:	0305011a 	movweq	r0, #20762	; 0x511a
     35c:	05141313 	ldreq	r1, [r4, #-787]	; 0xfffffced
     360:	050e0601 	streq	r0, [lr, #-1537]	; 0xfffff9ff
     364:	0305241c 	movweq	r2, #21532	; 0x541c
     368:	13054b06 	movwne	r4, #23302	; 0x5b06
     36c:	06030501 	streq	r0, [r3], -r1, lsl #10
     370:	00050501 	andeq	r0, r5, r1, lsl #10
     374:	06030402 	streq	r0, [r3], -r2, lsl #8
     378:	00190521 	andseq	r0, r9, r1, lsr #10
     37c:	06030402 	streq	r0, [r3], -r2, lsl #8
     380:	00170501 	andseq	r0, r7, r1, lsl #10
     384:	20030402 	andcs	r0, r3, r2, lsl #8
     388:	02000505 	andeq	r0, r0, #20971520	; 0x1400000
     38c:	05200304 	streq	r0, [r0, #-772]!	; 0xfffffcfc
     390:	0402001a 	streq	r0, [r2], #-26	; 0xffffffe6
     394:	052d0603 	streq	r0, [sp, #-1539]!	; 0xfffff9fd
     398:	04020013 	streq	r0, [r2], #-19	; 0xffffffed
     39c:	03050103 	movweq	r0, #20739	; 0x5103
     3a0:	03040200 	movweq	r0, #16896	; 0x4200
     3a4:	32060106 	andcc	r0, r6, #-2147483647	; 0x80000001
     3a8:	14060105 	strne	r0, [r6], #-261	; 0xfffffefb
     3ac:	05100305 	ldreq	r0, [r0, #-773]	; 0xfffffcfb
     3b0:	06023001 	streq	r3, [r2], -r1
     3b4:	e0010100 	and	r0, r1, r0, lsl #2
     3b8:	03000000 	movweq	r0, #0
     3bc:	0000da00 	andeq	sp, r0, r0, lsl #20
     3c0:	fb010200 	blx	40bca <__data_load__+0x3fd6a>
     3c4:	01000d0e 	tsteq	r0, lr, lsl #26
     3c8:	00010101 	andeq	r0, r1, r1, lsl #2
     3cc:	00010000 	andeq	r0, r1, r0
     3d0:	752f0100 	strvc	r0, [pc, #-256]!	; 2d8 <_malloc_r+0x40>
     3d4:	6c2f7273 	sfmvs	f7, 4, [pc], #-460	; 210 <__libc_fini_array+0xc>
     3d8:	672f6269 	strvs	r6, [pc, -r9, ror #4]!
     3dc:	612f6363 			; <UNDEFINED> instruction: 0x612f6363
     3e0:	6e2d6d72 	mcrvs	13, 1, r6, cr13, cr2, {3}
     3e4:	2d656e6f 	stclcs	14, cr6, [r5, #-444]!	; 0xfffffe44
     3e8:	69626165 	stmdbvs	r2!, {r0, r2, r5, r6, r8, sp, lr}^
     3ec:	2e30312f 	rsfcssp	f3, f0, #10.0
     3f0:	2f312e33 	svccs	0x00312e33
     3f4:	6c636e69 	stclvs	14, cr6, [r3], #-420	; 0xfffffe5c
     3f8:	00656475 	rsbeq	r6, r5, r5, ror r4
     3fc:	6975622f 	ldmdbvs	r5!, {r0, r1, r2, r3, r5, r9, sp, lr}^
     400:	6e2f646c 	cdpvs	4, 2, cr6, cr15, cr12, {3}
     404:	696c7765 	stmdbvs	ip!, {r0, r2, r5, r6, r8, r9, sl, ip, sp, lr}^
     408:	42702d62 	rsbsmi	r2, r0, #6272	; 0x1880
     40c:	65643033 	strbvs	r3, [r4, #-51]!	; 0xffffffcd
     410:	77656e2f 	strbvc	r6, [r5, -pc, lsr #28]!
     414:	2d62696c 			; <UNDEFINED> instruction: 0x2d62696c
     418:	2e332e33 	mrccs	14, 1, r2, cr3, cr3, {1}
     41c:	656e2f30 	strbvs	r2, [lr, #-3888]!	; 0xfffff0d0
     420:	62696c77 	rsbvs	r6, r9, #30464	; 0x7700
     424:	62696c2f 	rsbvs	r6, r9, #12032	; 0x2f00
     428:	6e692f63 	cdpvs	15, 6, cr2, cr9, cr3, {3}
     42c:	64756c63 	ldrbtvs	r6, [r5], #-3171	; 0xfffff39d
     430:	79732f65 	ldmdbvc	r3!, {r0, r2, r5, r6, r8, r9, sl, fp, sp}^
     434:	2e2e0073 	mcrcs	0, 1, r0, cr14, cr3, {3}
     438:	2f2e2e2f 	svccs	0x002e2e2f
     43c:	2e2f2e2e 	cdpcs	14, 2, cr2, cr15, cr14, {1}
     440:	2e2e2f2e 	cdpcs	15, 2, cr2, cr14, cr14, {1}
     444:	2f2e2e2f 	svccs	0x002e2e2f
     448:	2e2f2e2e 	cdpcs	14, 2, cr2, cr15, cr14, {1}
     44c:	656e2f2e 	strbvs	r2, [lr, #-3886]!	; 0xfffff0d2
     450:	62696c77 	rsbvs	r6, r9, #30464	; 0x7700
     454:	62696c2f 	rsbvs	r6, r9, #12032	; 0x2f00
     458:	65722f63 	ldrbvs	r2, [r2, #-3939]!	; 0xfffff09d
     45c:	00746e65 	rsbseq	r6, r4, r5, ror #28
     460:	64747300 	ldrbtvs	r7, [r4], #-768	; 0xfffffd00
     464:	2e666564 	cdpcs	5, 6, cr6, cr6, cr4, {3}
     468:	00010068 	andeq	r0, r1, r8, rrx
     46c:	79745f00 	ldmdbvc	r4!, {r8, r9, sl, fp, ip, lr}^
     470:	2e736570 	mrccs	5, 3, r6, cr3, cr0, {3}
     474:	00020068 	andeq	r0, r2, r8, rrx
     478:	65657200 	strbvs	r7, [r5, #-512]!	; 0xfffffe00
     47c:	682e746e 	stmdavs	lr!, {r1, r2, r3, r5, r6, sl, ip, sp, lr}
     480:	00000200 	andeq	r0, r0, r0, lsl #4
     484:	6b636f6c 	blvs	18dc23c <_bsl_base_address+0x16da23c>
     488:	0200682e 	andeq	r6, r0, #3014656	; 0x2e0000
     48c:	6d690000 	stclvs	0, cr0, [r9, #-0]
     490:	65727570 	ldrbvs	r7, [r2, #-1392]!	; 0xfffffa90
     494:	0300632e 	movweq	r6, #814	; 0x32e
     498:	23000000 	movwcs	r0, #0
     49c:	03000001 	movweq	r0, #1
     4a0:	00007c00 	andeq	r7, r0, r0, lsl #24
     4a4:	fb010200 	blx	40cae <__data_load__+0x3fe4e>
     4a8:	01000d0e 	tsteq	r0, lr, lsl #26
     4ac:	00010101 	andeq	r0, r1, r1, lsl #2
     4b0:	00010000 	andeq	r0, r1, r0
     4b4:	2e2e0100 	sufcse	f0, f6, f0
     4b8:	2f2e2e2f 	svccs	0x002e2e2f
     4bc:	2e2f2e2e 	cdpcs	14, 2, cr2, cr15, cr14, {1}
     4c0:	2e2e2f2e 	cdpcs	15, 2, cr2, cr14, cr14, {1}
     4c4:	2f2e2e2f 	svccs	0x002e2e2f
     4c8:	2e2f2e2e 	cdpcs	14, 2, cr2, cr15, cr14, {1}
     4cc:	656e2f2e 	strbvs	r2, [lr, #-3886]!	; 0xfffff0d2
     4d0:	62696c77 	rsbvs	r6, r9, #30464	; 0x7700
     4d4:	62696c2f 	rsbvs	r6, r9, #12032	; 0x2f00
     4d8:	696d2f63 	stmdbvs	sp!, {r0, r1, r5, r6, r8, r9, sl, fp, sp}^
     4dc:	2f006373 	svccs	0x00006373
     4e0:	2f727375 	svccs	0x00727375
     4e4:	2f62696c 	svccs	0x0062696c
     4e8:	2f636367 	svccs	0x00636367
     4ec:	2d6d7261 	sfmcs	f7, 2, [sp, #-388]!	; 0xfffffe7c
     4f0:	656e6f6e 	strbvs	r6, [lr, #-3950]!	; 0xfffff092
     4f4:	6261652d 	rsbvs	r6, r1, #188743680	; 0xb400000
     4f8:	30312f69 	eorscc	r2, r1, r9, ror #30
     4fc:	312e332e 			; <UNDEFINED> instruction: 0x312e332e
     500:	636e692f 	cmnvs	lr, #770048	; 0xbc000
     504:	6564756c 	strbvs	r7, [r4, #-1388]!	; 0xfffffa94
     508:	6e690000 	cdpvs	0, 6, cr0, cr9, cr0, {0}
     50c:	632e7469 			; <UNDEFINED> instruction: 0x632e7469
     510:	00000100 	andeq	r0, r0, r0, lsl #2
     514:	64647473 	strbtvs	r7, [r4], #-1139	; 0xfffffb8d
     518:	682e6665 	stmdavs	lr!, {r0, r2, r5, r6, r9, sl, sp, lr}
     51c:	00000200 	andeq	r0, r0, r0, lsl #4
     520:	00010500 	andeq	r0, r1, r0, lsl #10
     524:	022c0205 	eoreq	r0, ip, #1342177280	; 0x50000000
     528:	1e030000 	cdpne	0, 0, cr0, cr3, cr0, {0}
     52c:	13030501 	movwne	r0, #13569	; 0x3501
     530:	01051413 	tsteq	r5, r3, lsl r4
     534:	1f050e06 	svcne	0x00050e06
     538:	06030524 	streq	r0, [r3], -r4, lsr #10
     53c:	010f054b 	tsteq	pc, fp, asr #10
     540:	01060305 	tsteq	r6, r5, lsl #6
     544:	05200a05 	streq	r0, [r0, #-2565]!	; 0xfffff5fb
     548:	04020005 	streq	r0, [r2], #-5
     54c:	05210603 	streq	r0, [r1, #-1539]!	; 0xfffff9fd
     550:	0402001b 	streq	r0, [r2], #-27	; 0xffffffe5
     554:	051f0603 	ldreq	r0, [pc, #-1539]	; ffffff59 <__stack+0xdffff681>
     558:	04020005 	streq	r0, [r2], #-5
     55c:	1a052103 	bne	148970 <__data_load__+0x147b10>
     560:	03040200 	movweq	r0, #16896	; 0x4200
     564:	0f051f06 	svceq	0x00051f06
     568:	03040200 	movweq	r0, #16896	; 0x4200
     56c:	00030501 	andeq	r0, r3, r1, lsl #10
     570:	06030402 	streq	r0, [r3], -r2, lsl #8
     574:	31320601 	teqcc	r2, r1, lsl #12
     578:	01061c05 	tsteq	r6, r5, lsl #24
     57c:	0603052e 	streq	r0, [r3], -lr, lsr #10
     580:	010f052f 	tsteq	pc, pc, lsr #10
     584:	01060305 	tsteq	r6, r5, lsl #6
     588:	05200a05 	streq	r0, [r0, #-2565]!	; 0xfffff5fb
     58c:	04020005 	streq	r0, [r2], #-5
     590:	05210603 	streq	r0, [r1, #-1539]!	; 0xfffff9fd
     594:	0402001b 	streq	r0, [r2], #-27	; 0xffffffe5
     598:	051f0603 	ldreq	r0, [pc, #-1539]	; ffffff9d <__stack+0xdffff6c5>
     59c:	04020005 	streq	r0, [r2], #-5
     5a0:	1a052103 	bne	1489b4 <__data_load__+0x147b54>
     5a4:	03040200 	movweq	r0, #16896	; 0x4200
     5a8:	0f051f06 	svceq	0x00051f06
     5ac:	03040200 	movweq	r0, #16896	; 0x4200
     5b0:	00030501 	andeq	r0, r3, r1, lsl #10
     5b4:	06030402 	streq	r0, [r3], -r2, lsl #8
     5b8:	30010501 	andcc	r0, r1, r1, lsl #10
     5bc:	00090201 	andeq	r0, r9, r1, lsl #4
     5c0:	01610101 	cmneq	r1, r1, lsl #2
     5c4:	00030000 	andeq	r0, r3, r0
     5c8:	0000011d 	andeq	r0, r0, sp, lsl r1
     5cc:	0efb0102 	cdpeq	1, 15, cr0, cr11, cr2, {0}
     5d0:	0101000d 	tsteq	r1, sp
     5d4:	00000101 	andeq	r0, r0, r1, lsl #2
     5d8:	00000100 	andeq	r0, r0, r0, lsl #2
     5dc:	2f2e2e01 	svccs	0x002e2e01
     5e0:	2e2f2e2e 	cdpcs	14, 2, cr2, cr15, cr14, {1}
     5e4:	2e2e2f2e 	cdpcs	15, 2, cr2, cr14, cr14, {1}
     5e8:	2f2e2e2f 	svccs	0x002e2e2f
     5ec:	2e2f2e2e 	cdpcs	14, 2, cr2, cr15, cr14, {1}
     5f0:	2e2e2f2e 	cdpcs	15, 2, cr2, cr14, cr14, {1}
     5f4:	77656e2f 	strbvc	r6, [r5, -pc, lsr #28]!
     5f8:	2f62696c 	svccs	0x0062696c
     5fc:	6362696c 	cmnvs	r2, #108, 18	; 0x1b0000
     600:	6474732f 	ldrbtvs	r7, [r4], #-815	; 0xfffffcd1
     604:	0062696c 	rsbeq	r6, r2, ip, ror #18
     608:	7273752f 	rsbsvc	r7, r3, #197132288	; 0xbc00000
     60c:	62696c2f 	rsbvs	r6, r9, #12032	; 0x2f00
     610:	6363672f 	cmnvs	r3, #12320768	; 0xbc0000
     614:	6d72612f 	ldfvse	f6, [r2, #-188]!	; 0xffffff44
     618:	6e6f6e2d 	cdpvs	14, 6, cr6, cr15, cr13, {1}
     61c:	61652d65 	cmnvs	r5, r5, ror #26
     620:	312f6962 			; <UNDEFINED> instruction: 0x312f6962
     624:	2e332e30 	mrccs	14, 1, r2, cr3, cr0, {1}
     628:	6e692f31 	mcrvs	15, 3, r2, cr9, cr1, {1}
     62c:	64756c63 	ldrbtvs	r6, [r5], #-3171	; 0xfffff39d
     630:	622f0065 	eorvs	r0, pc, #101	; 0x65
     634:	646c6975 	strbtvs	r6, [ip], #-2421	; 0xfffff68b
     638:	77656e2f 	strbvc	r6, [r5, -pc, lsr #28]!
     63c:	2d62696c 			; <UNDEFINED> instruction: 0x2d62696c
     640:	30334270 	eorscc	r4, r3, r0, ror r2
     644:	6e2f6564 	cfsh64vs	mvdx6, mvdx15, #52
     648:	696c7765 	stmdbvs	ip!, {r0, r2, r5, r6, r8, r9, sl, ip, sp, lr}^
     64c:	2e332d62 	cdpcs	13, 3, cr2, cr3, cr2, {3}
     650:	2f302e33 	svccs	0x00302e33
     654:	6c77656e 	cfldr64vs	mvdx6, [r7], #-440	; 0xfffffe48
     658:	6c2f6269 	sfmvs	f6, 4, [pc], #-420	; 4bc <_malloc_r+0x224>
     65c:	2f636269 	svccs	0x00636269
     660:	6c636e69 	stclvs	14, cr6, [r3], #-420	; 0xfffffe5c
     664:	2f656475 	svccs	0x00656475
     668:	00737973 	rsbseq	r7, r3, r3, ror r9
     66c:	6975622f 	ldmdbvs	r5!, {r0, r1, r2, r3, r5, r9, sp, lr}^
     670:	6e2f646c 	cdpvs	4, 2, cr6, cr15, cr12, {3}
     674:	696c7765 	stmdbvs	ip!, {r0, r2, r5, r6, r8, r9, sl, ip, sp, lr}^
     678:	42702d62 	rsbsmi	r2, r0, #6272	; 0x1880
     67c:	65643033 	strbvs	r3, [r4, #-51]!	; 0xffffffcd
     680:	77656e2f 	strbvc	r6, [r5, -pc, lsr #28]!
     684:	2d62696c 			; <UNDEFINED> instruction: 0x2d62696c
     688:	2e332e33 	mrccs	14, 1, r2, cr3, cr3, {1}
     68c:	656e2f30 	strbvs	r2, [lr, #-3888]!	; 0xfffff0d0
     690:	62696c77 	rsbvs	r6, r9, #30464	; 0x7700
     694:	62696c2f 	rsbvs	r6, r9, #12032	; 0x2f00
     698:	6e692f63 	cdpvs	15, 6, cr2, cr9, cr3, {3}
     69c:	64756c63 	ldrbtvs	r6, [r5], #-3171	; 0xfffff39d
     6a0:	6d000065 	stcvs	0, cr0, [r0, #-404]	; 0xfffffe6c
     6a4:	6f6c6c61 	svcvs	0x006c6c61
     6a8:	00632e63 	rsbeq	r2, r3, r3, ror #28
     6ac:	73000001 	movwvc	r0, #1
     6b0:	65646474 	strbvs	r6, [r4, #-1140]!	; 0xfffffb8c
     6b4:	00682e66 	rsbeq	r2, r8, r6, ror #28
     6b8:	5f000002 	svcpl	0x00000002
     6bc:	65707974 	ldrbvs	r7, [r0, #-2420]!	; 0xfffff68c
     6c0:	00682e73 	rsbeq	r2, r8, r3, ror lr
     6c4:	72000003 	andvc	r0, r0, #3
     6c8:	746e6565 	strbtvc	r6, [lr], #-1381	; 0xfffffa9b
     6cc:	0300682e 	movweq	r6, #2094	; 0x82e
     6d0:	6f6c0000 	svcvs	0x006c0000
     6d4:	682e6b63 	stmdavs	lr!, {r0, r1, r5, r6, r8, r9, fp, sp, lr}
     6d8:	00000300 	andeq	r0, r0, r0, lsl #6
     6dc:	6c6c616d 	stfvse	f6, [ip], #-436	; 0xfffffe4c
     6e0:	682e636f 	stmdavs	lr!, {r0, r1, r2, r3, r5, r6, r8, r9, sp, lr}
     6e4:	00000400 	andeq	r0, r0, r0, lsl #8
     6e8:	00010500 	andeq	r0, r1, r0, lsl #10
     6ec:	02700205 	rsbseq	r0, r0, #1342177280	; 0x50000000
     6f0:	a2030000 	andge	r0, r3, #0
     6f4:	03050101 	movweq	r0, #20737	; 0x5101
     6f8:	06010513 			; <UNDEFINED> instruction: 0x06010513
     6fc:	210a0511 	tstcs	sl, r1, lsl r5
     700:	221f0105 	andscs	r0, pc, #1073741825	; 0x40000001
     704:	20110a05 	andscs	r0, r1, r5, lsl #20
     708:	062f0105 	strteq	r0, [pc], -r5, lsl #2
     70c:	1303054e 	movwne	r0, #13646	; 0x354e
     710:	11060105 	tstne	r6, r5, lsl #2
     714:	05210305 	streq	r0, [r1, #-773]!	; 0xfffffcfb
     718:	05221f01 	streq	r1, [r2, #-3841]!	; 0xfffff0ff
     71c:	05201103 	streq	r1, [r0, #-259]!	; 0xfffffefd
     720:	04022f01 	streq	r2, [r2], #-3841	; 0xfffff0ff
     724:	de010100 	adfles	f0, f1, f0
     728:	03000008 	movweq	r0, #8
     72c:	00011d00 	andeq	r1, r1, r0, lsl #26
     730:	fb010200 	blx	40f3a <__data_load__+0x400da>
     734:	01000d0e 	tsteq	r0, lr, lsl #26
     738:	00010101 	andeq	r0, r1, r1, lsl #2
     73c:	00010000 	andeq	r0, r1, r0
     740:	2e2e0100 	sufcse	f0, f6, f0
     744:	2f2e2e2f 	svccs	0x002e2e2f
     748:	2e2f2e2e 	cdpcs	14, 2, cr2, cr15, cr14, {1}
     74c:	2e2e2f2e 	cdpcs	15, 2, cr2, cr14, cr14, {1}
     750:	2f2e2e2f 	svccs	0x002e2e2f
     754:	2e2f2e2e 	cdpcs	14, 2, cr2, cr15, cr14, {1}
     758:	656e2f2e 	strbvs	r2, [lr, #-3886]!	; 0xfffff0d2
     75c:	62696c77 	rsbvs	r6, r9, #30464	; 0x7700
     760:	62696c2f 	rsbvs	r6, r9, #12032	; 0x2f00
     764:	74732f63 	ldrbtvc	r2, [r3], #-3939	; 0xfffff09d
     768:	62696c64 	rsbvs	r6, r9, #100, 24	; 0x6400
     76c:	73752f00 	cmnvc	r5, #0, 30
     770:	696c2f72 	stmdbvs	ip!, {r1, r4, r5, r6, r8, r9, sl, fp, sp}^
     774:	63672f62 	cmnvs	r7, #392	; 0x188
     778:	72612f63 	rsbvc	r2, r1, #396	; 0x18c
     77c:	6f6e2d6d 	svcvs	0x006e2d6d
     780:	652d656e 	strvs	r6, [sp, #-1390]!	; 0xfffffa92
     784:	2f696261 	svccs	0x00696261
     788:	332e3031 			; <UNDEFINED> instruction: 0x332e3031
     78c:	692f312e 	stmdbvs	pc!, {r1, r2, r3, r5, r8, ip, sp}	; <UNPREDICTABLE>
     790:	756c636e 	strbvc	r6, [ip, #-878]!	; 0xfffffc92
     794:	2f006564 	svccs	0x00006564
     798:	6c697562 	cfstr64vs	mvdx7, [r9], #-392	; 0xfffffe78
     79c:	656e2f64 	strbvs	r2, [lr, #-3940]!	; 0xfffff09c
     7a0:	62696c77 	rsbvs	r6, r9, #30464	; 0x7700
     7a4:	3342702d 	movtcc	r7, #8237	; 0x202d
     7a8:	2f656430 	svccs	0x00656430
     7ac:	6c77656e 	cfldr64vs	mvdx6, [r7], #-440	; 0xfffffe48
     7b0:	332d6269 			; <UNDEFINED> instruction: 0x332d6269
     7b4:	302e332e 	eorcc	r3, lr, lr, lsr #6
     7b8:	77656e2f 	strbvc	r6, [r5, -pc, lsr #28]!
     7bc:	2f62696c 	svccs	0x0062696c
     7c0:	6362696c 	cmnvs	r2, #108, 18	; 0x1b0000
     7c4:	636e692f 	cmnvs	lr, #770048	; 0xbc000
     7c8:	6564756c 	strbvs	r7, [r4, #-1388]!	; 0xfffffa94
     7cc:	7379732f 	cmnvc	r9, #-1140850688	; 0xbc000000
     7d0:	75622f00 	strbvc	r2, [r2, #-3840]!	; 0xfffff100
     7d4:	2f646c69 	svccs	0x00646c69
     7d8:	6c77656e 	cfldr64vs	mvdx6, [r7], #-440	; 0xfffffe48
     7dc:	702d6269 	eorvc	r6, sp, r9, ror #4
     7e0:	64303342 	ldrtvs	r3, [r0], #-834	; 0xfffffcbe
     7e4:	656e2f65 	strbvs	r2, [lr, #-3941]!	; 0xfffff09b
     7e8:	62696c77 	rsbvs	r6, r9, #30464	; 0x7700
     7ec:	332e332d 			; <UNDEFINED> instruction: 0x332e332d
     7f0:	6e2f302e 	cdpvs	0, 2, cr3, cr15, cr14, {1}
     7f4:	696c7765 	stmdbvs	ip!, {r0, r2, r5, r6, r8, r9, sl, ip, sp, lr}^
     7f8:	696c2f62 	stmdbvs	ip!, {r1, r5, r6, r8, r9, sl, fp, sp}^
     7fc:	692f6362 	stmdbvs	pc!, {r1, r5, r6, r8, r9, sp, lr}	; <UNPREDICTABLE>
     800:	756c636e 	strbvc	r6, [ip, #-878]!	; 0xfffffc92
     804:	00006564 	andeq	r6, r0, r4, ror #10
     808:	6c6c616d 	stfvse	f6, [ip], #-436	; 0xfffffe4c
     80c:	2e72636f 	cdpcs	3, 7, cr6, cr2, cr15, {3}
     810:	00010063 	andeq	r0, r1, r3, rrx
     814:	64747300 	ldrbtvs	r7, [r4], #-768	; 0xfffffd00
     818:	2e666564 	cdpcs	5, 6, cr6, cr6, cr4, {3}
     81c:	00020068 	andeq	r0, r2, r8, rrx
     820:	79745f00 	ldmdbvc	r4!, {r8, r9, sl, fp, ip, lr}^
     824:	2e736570 	mrccs	5, 3, r6, cr3, cr0, {3}
     828:	00030068 	andeq	r0, r3, r8, rrx
     82c:	65657200 	strbvs	r7, [r5, #-512]!	; 0xfffffe00
     830:	682e746e 	stmdavs	lr!, {r1, r2, r3, r5, r6, sl, ip, sp, lr}
     834:	00000300 	andeq	r0, r0, r0, lsl #6
     838:	6b636f6c 	blvs	18dc5f0 <_bsl_base_address+0x16da5f0>
     83c:	0300682e 	movweq	r6, #2094	; 0x82e
     840:	65720000 	ldrbvs	r0, [r2, #-0]!
     844:	2e746e65 	cdpcs	14, 7, cr6, cr4, cr5, {3}
     848:	00040068 	andeq	r0, r4, r8, rrx
     84c:	01050000 	mrseq	r0, (UNDEF: 5)
     850:	98020500 	stmdals	r2, {r8, sl}
     854:	03000002 	movweq	r0, #2
     858:	0501129c 	streq	r1, [r1, #-668]	; 0xfffffd64
     85c:	13131903 	tstne	r3, #49152	; 0xc000
     860:	13131313 	tstne	r3, #1275068416	; 0x4c000000
     864:	13131313 	tstne	r3, #1275068416	; 0x4c000000
     868:	01051413 	tsteq	r5, r3, lsl r4
     86c:	016c0306 	cmneq	ip, r6, lsl #6
     870:	14031905 	strne	r1, [r3], #-2309	; 0xfffff6fb
     874:	03010566 	movweq	r0, #5478	; 0x1566
     878:	19052e6c 	stmdbne	r5, {r2, r3, r5, r6, r9, sl, fp, sp}
     87c:	052e1403 	streq	r1, [lr, #-1027]!	; 0xfffffbfd
     880:	05310603 	ldreq	r0, [r1, #-1539]!	; 0xfffff9fd
     884:	05010614 	streq	r0, [r1, #-1556]	; 0xfffff9ec
     888:	32420603 	subcc	r0, r2, #3145728	; 0x300000
     88c:	05200e06 	streq	r0, [r0, #-3590]!	; 0xfffff1fa
     890:	16340605 	ldrtne	r0, [r4], -r5, lsl #12
     894:	01060905 	tsteq	r6, r5, lsl #18
     898:	2f060505 	svccs	0x00060505
     89c:	01060c05 	tsteq	r6, r5, lsl #24
     8a0:	40060505 	andmi	r0, r6, r5, lsl #10
     8a4:	01060805 	tsteq	r6, r5, lsl #16
     8a8:	44060705 	strmi	r0, [r6], #-1797	; 0xfffff8fb
     8ac:	01061305 	tsteq	r6, r5, lsl #6
     8b0:	4b060705 	blmi	1824cc <__data_load__+0x18166c>
     8b4:	1c030905 			; <UNDEFINED> instruction: 0x1c030905
     8b8:	20202001 	eorcs	r2, r0, r1
     8bc:	05202105 	streq	r2, [r0, #-261]!	; 0xfffffefb
     8c0:	07051309 	streq	r1, [r5, -r9, lsl #6]
     8c4:	01220306 			; <UNDEFINED> instruction: 0x01220306
     8c8:	051e222e 	ldreq	r2, [lr, #-558]	; 0xfffffdd2
     8cc:	052f0627 	streq	r0, [pc, #-1575]!	; 2ad <_malloc_r+0x15>
     8d0:	052f1307 	streq	r1, [pc, #-775]!	; 5d1 <_malloc_r+0x339>
     8d4:	0501060e 	streq	r0, [r1, #-1550]	; 0xfffff9f2
     8d8:	04020019 	streq	r0, [r2], #-25	; 0xffffffe7
     8dc:	7f9d0301 	svcvc	0x009d0301
     8e0:	0003053c 	andeq	r0, r3, ip, lsr r5
     8e4:	06010402 	streq	r0, [r1], -r2, lsl #8
     8e8:	00060531 	andeq	r0, r6, r1, lsr r5
     8ec:	06010402 	streq	r0, [r1], -r2, lsl #8
     8f0:	00140501 	andseq	r0, r4, r1, lsl #10
     8f4:	2e010402 	cdpcs	4, 0, cr0, cr1, cr2, {0}
     8f8:	42060305 	andmi	r0, r6, #335544320	; 0x14000000
     8fc:	06060532 			; <UNDEFINED> instruction: 0x06060532
     900:	06050501 	streq	r0, [r5], -r1, lsl #10
     904:	05582003 	ldrbeq	r2, [r8, #-3]
     908:	0001060b 	andeq	r0, r1, fp, lsl #12
     90c:	3c020402 	cfstrscc	mvf0, [r2], {2}
     910:	04040200 	streq	r0, [r4], #-512	; 0xfffffe00
     914:	0402003c 	streq	r0, [r2], #-60	; 0xffffffc4
     918:	05054b04 	streq	r4, [r5, #-2820]	; 0xfffff4fc
     91c:	18040200 	stmdane	r4, {r9}
     920:	0b052e06 	bleq	14c140 <__data_load__+0x14b2e0>
     924:	18040200 	stmdane	r4, {r9}
     928:	11050106 	tstne	r5, r6, lsl #2
     92c:	18040200 	stmdane	r4, {r9}
     930:	00090530 	andeq	r0, r9, r0, lsr r5
     934:	1e180402 	cfmulsne	mvf0, mvf8, mvf2
     938:	02000505 	andeq	r0, r0, #20971520	; 0x1400000
     93c:	22061804 	andcs	r1, r6, #4, 16	; 0x40000
     940:	02001e05 	andeq	r1, r0, #5, 28	; 0x50
     944:	05011804 	streq	r1, [r1, #-2052]	; 0xfffff7fc
     948:	04020005 	streq	r0, [r2], #-5
     94c:	05010618 	streq	r0, [r1, #-1560]	; 0xfffff9e8
     950:	0c053013 	stceq	0, cr3, [r5], {19}
     954:	3c090306 	stccc	3, cr0, [r9], {6}
     958:	01060f05 	tsteq	r6, r5, lsl #30
     95c:	02002d05 	andeq	r2, r0, #320	; 0x140
     960:	03060204 	movweq	r0, #25092	; 0x6204
     964:	34052e75 	strcc	r2, [r5], #-3701	; 0xfffff18b
     968:	02040200 	andeq	r0, r4, #0, 4
     96c:	1e050106 	adfnes	f0, f5, f6
     970:	02040200 	andeq	r0, r4, #0, 4
     974:	05052006 	streq	r2, [r5, #-6]
     978:	02040200 	andeq	r0, r4, #0, 4
     97c:	07050106 	streq	r0, [r5, -r6, lsl #2]
     980:	13053006 	movwne	r3, #20486	; 0x5006
     984:	07050106 	streq	r0, [r5, -r6, lsl #2]
     988:	18053d06 	stmdane	r5, {r1, r2, r8, sl, fp, ip, sp}
     98c:	07050106 	streq	r0, [r5, -r6, lsl #2]
     990:	0a052206 	beq	1491b0 <__data_load__+0x148350>
     994:	052e0106 	streq	r0, [lr, #-262]!	; 0xfffffefa
     998:	10030605 	andne	r0, r3, r5, lsl #12
     99c:	18030520 	stmdane	r3, {r5, r8, sl}
     9a0:	01060605 	tsteq	r6, r5, lsl #12
     9a4:	05201005 	streq	r1, [r0, #-5]!
     9a8:	05052006 	streq	r2, [r5, #-6]
     9ac:	11054c06 	tstne	r5, r6, lsl #24
     9b0:	05050106 	streq	r0, [r5, #-262]	; 0xfffffefa
     9b4:	16054b06 	strne	r4, [r5], -r6, lsl #22
     9b8:	05050106 	streq	r0, [r5, #-262]	; 0xfffffefa
     9bc:	08053006 	stmdaeq	r5, {r1, r2, ip, sp}
     9c0:	05050106 	streq	r0, [r5, #-262]	; 0xfffffefa
     9c4:	3c0c0306 	stccc	3, cr0, [ip], {6}
     9c8:	06080530 			; <UNDEFINED> instruction: 0x06080530
     9cc:	06050501 	streq	r0, [r5], -r1, lsl #10
     9d0:	002e0a03 	eoreq	r0, lr, r3, lsl #20
     9d4:	58010402 	stmdapl	r1, {r1, sl}
     9d8:	01040200 	mrseq	r0, R12_usr
     9dc:	02002006 	andeq	r2, r0, #6
     9e0:	20060104 	andcs	r0, r6, r4, lsl #2
     9e4:	01040200 	mrseq	r0, R12_usr
     9e8:	02002006 	andeq	r2, r0, #6
     9ec:	002e0104 	eoreq	r0, lr, r4, lsl #2
     9f0:	06010402 	streq	r0, [r1], -r2, lsl #8
     9f4:	04020058 	streq	r0, [r2], #-88	; 0xffffffa8
     9f8:	02000101 	andeq	r0, r0, #1073741824	; 0x40000000
     9fc:	00010104 	andeq	r0, r1, r4, lsl #2
     a00:	20010402 	andcs	r0, r1, r2, lsl #8
     a04:	01040200 	mrseq	r0, R12_usr
     a08:	003e0520 	eorseq	r0, lr, r0, lsr #10
     a0c:	2e250402 	cdpcs	4, 2, cr0, cr5, cr2, {0}
     a10:	02000305 	andeq	r0, r0, #335544320	; 0x14000000
     a14:	051a2504 	ldreq	r2, [sl, #-1284]	; 0xfffffafc
     a18:	0402000f 	streq	r0, [r2], #-15
     a1c:	05010625 	streq	r0, [r1, #-1573]	; 0xfffff9db
     a20:	04020011 	streq	r0, [r2], #-17	; 0xffffffef
     a24:	0f052025 	svceq	0x00052025
     a28:	25040200 	strcs	r0, [r4, #-512]	; 0xfffffe00
     a2c:	00060520 	andeq	r0, r6, r0, lsr #10
     a30:	20250402 	eorcs	r0, r5, r2, lsl #8
     a34:	33060505 	movwcc	r0, #25861	; 0x6505
     a38:	01060805 	tsteq	r6, r5, lsl #16
     a3c:	31060705 	tstcc	r6, r5, lsl #14
     a40:	01061205 	tsteq	r6, r5, lsl #4
     a44:	052f0d05 	streq	r0, [pc, #-3333]!	; fffffd47 <__stack+0xdffff46f>
     a48:	07051f0b 	streq	r1, [r5, -fp, lsl #30]
     a4c:	05132106 	ldreq	r2, [r3, #-262]	; 0xfffffefa
     a50:	1705010d 	strne	r0, [r5, -sp, lsl #2]
     a54:	2e140306 	cdpcs	3, 1, cr0, cr4, cr6, {0}
     a58:	03060505 	movweq	r0, #25861	; 0x6505
     a5c:	07052e74 	smlsdxeq	r5, r4, lr, r2
     a60:	0f051314 	svceq	0x00051314
     a64:	053c0106 	ldreq	r0, [ip, #-262]!	; 0xfffffefa
     a68:	05310607 	ldreq	r0, [r1, #-1543]!	; 0xfffff9f9
     a6c:	15051609 	strne	r1, [r5, #-1545]	; 0xfffff9f7
     a70:	22050106 	andcs	r0, r5, #-2147483647	; 0x80000001
     a74:	09052e06 	stmdbeq	r5, {r1, r2, r9, sl, fp, sp}
     a78:	052e0106 	streq	r0, [lr, #-262]!	; 0xfffffefa
     a7c:	12030610 	andne	r0, r3, #16, 12	; 0x1000000
     a80:	06130520 	ldreq	r0, [r3], -r0, lsr #10
     a84:	00310501 	eorseq	r0, r1, r1, lsl #10
     a88:	06020402 	streq	r0, [r2], -r2, lsl #8
     a8c:	053c6e03 	ldreq	r6, [ip, #-3587]!	; 0xfffff1fd
     a90:	04020038 	streq	r0, [r2], #-56	; 0xffffffc8
     a94:	05010602 	streq	r0, [r1, #-1538]	; 0xfffff9fe
     a98:	04020022 	streq	r0, [r2], #-34	; 0xffffffde
     a9c:	05200602 	streq	r0, [r0, #-1538]!	; 0xfffff9fe
     aa0:	04020009 	streq	r0, [r2], #-9
     aa4:	05010602 	streq	r0, [r1, #-1538]	; 0xfffff9fe
     aa8:	053e060b 	ldreq	r0, [lr, #-1547]!	; 0xfffff9f5
     aac:	05010617 	streq	r0, [r1, #-1559]	; 0xfffff9e9
     ab0:	053d060b 	ldreq	r0, [sp, #-1547]!	; 0xfffff9f5
     ab4:	0501061c 	streq	r0, [r1, #-1564]	; 0xfffff9e4
     ab8:	0522060b 	streq	r0, [r2, #-1547]!	; 0xfffff9f5
     abc:	0501060e 	streq	r0, [r1, #-1550]	; 0xfffff9f2
     ac0:	0630060d 	ldrteq	r0, [r0], -sp, lsl #12
     ac4:	17052013 	smladne	r5, r3, r0, r2
     ac8:	060d051f 			; <UNDEFINED> instruction: 0x060d051f
     acc:	012e2f21 			; <UNDEFINED> instruction: 0x012e2f21
     ad0:	061f1306 	ldreq	r1, [pc], -r6, lsl #6
     ad4:	20250520 	eorcs	r0, r5, r0, lsr #10
     ad8:	06130d05 	ldreq	r0, [r3], -r5, lsl #26
     adc:	061f2013 			; <UNDEFINED> instruction: 0x061f2013
     ae0:	1f13062e 	svcne	0x0013062e
     ae4:	05240605 	streq	r0, [r4, #-1541]!	; 0xfffff9fb
     ae8:	2b051c0d 	blcs	147b24 <__data_load__+0x146cc4>
     aec:	0d052006 	stceq	0, cr2, [r5, #-24]	; 0xffffffe8
     af0:	2d051313 	stccs	3, cr1, [r5, #-76]	; 0xffffffb4
     af4:	13060521 	movwne	r0, #25889	; 0x6521
     af8:	052f0d05 	streq	r0, [pc, #-3333]!	; fffffdfb <__stack+0xdffff523>
     afc:	05010614 	streq	r0, [r1, #-1556]	; 0xfffff9ec
     b00:	ea030605 	b	c231c <__data_load__+0xc14bc>
     b04:	0c053c7e 	stceq	12, cr3, [r5], {126}	; 0x7e
     b08:	1f210106 	svcne	0x00210106
     b0c:	21060505 	tstcs	r6, r5, lsl #10
     b10:	03060105 	movweq	r0, #24837	; 0x6105
     b14:	200101ef 	andcs	r0, r1, pc, ror #3
     b18:	030b0566 	movweq	r0, #46438	; 0xb566
     b1c:	05207eb8 	streq	r7, [r0, #-3768]!	; 0xfffff148
     b20:	6d030607 	stcvs	6, cr0, [r3, #-28]	; 0xffffffe4
     b24:	0e051358 	mcreq	3, 0, r1, cr5, cr8, {2}
     b28:	05050106 	streq	r0, [r5, #-262]	; 0xfffffefa
     b2c:	09052306 	stmdbeq	r5, {r1, r2, r8, r9, sp}
     b30:	010a0306 	tsteq	sl, r6, lsl #6
     b34:	76030805 	strvc	r0, [r3], -r5, lsl #16
     b38:	06030520 	streq	r0, [r3], -r0, lsr #10
     b3c:	053c2d03 	ldreq	r2, [ip, #-3331]!	; 0xfffff2fd
     b40:	05010606 	streq	r0, [r1, #-1542]	; 0xfffff9fa
     b44:	06052010 			; <UNDEFINED> instruction: 0x06052010
     b48:	030f0520 	movweq	r0, #62752	; 0xf520
     b4c:	27054a25 	strcs	r4, [r5, -r5, lsr #20]
     b50:	063e0520 	ldrteq	r0, [lr], -r0, lsr #10
     b54:	05207803 	streq	r7, [r0, #-2051]!	; 0xfffff7fd
     b58:	11051a03 	tstne	r5, r3, lsl #20
     b5c:	0f050106 	svceq	0x00050106
     b60:	20060520 	andcs	r0, r6, r0, lsr #10
     b64:	03060305 	movweq	r0, #25349	; 0x6305
     b68:	052e00e4 	streq	r0, [lr, #-228]!	; 0xffffff1c
     b6c:	2e010614 	mcrcs	6, 0, r0, cr1, cr4, {0}
     b70:	3d060305 	stccc	3, cr0, [r6, #-20]	; 0xffffffec
     b74:	01060605 	tsteq	r6, r5, lsl #12
     b78:	02001405 	andeq	r1, r0, #83886080	; 0x5000000
     b7c:	052d0104 	streq	r0, [sp, #-260]!	; 0xfffffefc
     b80:	0402001b 	streq	r0, [r2], #-27	; 0xffffffe5
     b84:	05052101 	streq	r2, [r5, #-257]	; 0xfffffeff
     b88:	3c0e0306 	stccc	3, cr0, [lr], {6}
     b8c:	c5030d05 	strgt	r0, [r3, #-3333]	; 0xfffff2fb
     b90:	0305017c 	movweq	r0, #20860	; 0x517c
     b94:	13131317 	tstne	r3, #1543503872	; 0x5c000000
     b98:	13141313 	tstne	r4, #1275068416	; 0x4c000000
     b9c:	060d0513 			; <UNDEFINED> instruction: 0x060d0513
     ba0:	03110501 	tsteq	r1, #4194304	; 0x400000
     ba4:	0d052e0b 	stceq	14, cr2, [r5, #-44]	; 0xffffffd4
     ba8:	05207503 	streq	r7, [r0, #-1283]!	; 0xfffffafd
     bac:	05240603 	streq	r0, [r4, #-1539]!	; 0xfffff9fd
     bb0:	05010629 	streq	r0, [r1, #-1577]	; 0xfffff9d7
     bb4:	29052711 	stmdbcs	r5, {r0, r4, r8, r9, sl, sp}
     bb8:	05207903 	streq	r7, [r0, #-2307]!	; 0xfffff6fd
     bbc:	29052706 	stmdbcs	r5, {r1, r2, r8, r9, sl, sp}
     bc0:	05207903 	streq	r7, [r0, #-2307]!	; 0xfffff6fd
     bc4:	182f0603 	stmdane	pc!, {r0, r1, r9, sl}	; <UNPREDICTABLE>
     bc8:	01060605 	tsteq	r6, r5, lsl #12
     bcc:	3d060505 	cfstr32cc	mvfx0, [r6, #-20]	; 0xffffffec
     bd0:	01061c05 	tsteq	r6, r5, lsl #24
     bd4:	203c0f05 	eorscs	r0, ip, r5, lsl #30
     bd8:	30060305 	andcc	r0, r6, r5, lsl #6
     bdc:	01061105 	tsteq	r6, r5, lsl #2
     be0:	3106052e 	tstcc	r6, lr, lsr #10
     be4:	051d1105 	ldreq	r1, [sp, #-261]	; 0xfffffefb
     be8:	05230603 	streq	r0, [r3, #-1539]!	; 0xfffff9fd
     bec:	05010606 	streq	r0, [r1, #-1542]	; 0xfffff9fa
     bf0:	03053c28 	movweq	r3, #23592	; 0x5c28
     bf4:	0e054e06 	cdpeq	14, 0, cr4, cr5, cr6, {0}
     bf8:	052e0106 	streq	r0, [lr, #-262]!	; 0xfffffefa
     bfc:	05680603 	strbeq	r0, [r8, #-1539]!	; 0xfffff9fd
     c00:	05010606 	streq	r0, [r1, #-1542]	; 0xfffff9fa
     c04:	06051e0e 	streq	r1, [r5], -lr, lsl #28
     c08:	06050522 	streq	r0, [r5], -r2, lsr #10
     c0c:	053c0903 	ldreq	r0, [ip, #-2307]!	; 0xfffff6fd
     c10:	05010608 	streq	r0, [r1, #-1544]	; 0xfffff9f8
     c14:	055b0607 	ldrbeq	r0, [fp, #-1543]	; 0xfffff9f9
     c18:	05010619 	streq	r0, [r1, #-1561]	; 0xfffff9e7
     c1c:	05053c12 	streq	r3, [r5, #-3090]	; 0xfffff3ee
     c20:	14053f06 	strne	r3, [r5], #-3846	; 0xfffff0fa
     c24:	08050106 	stmdaeq	r5, {r1, r2, r8}
     c28:	1f14052f 	svcne	0x0014052f
     c2c:	2f060505 	svccs	0x00060505
     c30:	01060805 	tsteq	r6, r5, lsl #16
     c34:	3e060705 	cdpcc	7, 0, cr0, cr6, cr5, {0}
     c38:	060b0513 			; <UNDEFINED> instruction: 0x060b0513
     c3c:	2d120501 	cfldr32cs	mvfx0, [r2, #-4]
     c40:	05353005 	ldreq	r3, [r5, #-5]!
     c44:	207a030b 	rsbscs	r0, sl, fp, lsl #6
     c48:	26060505 	strcs	r0, [r6], -r5, lsl #10
     c4c:	01063005 	tsteq	r6, r5
     c50:	69060505 	stmdbvs	r6, {r0, r2, r8, sl}
     c54:	15061705 	strne	r1, [r6, #-1797]	; 0xfffff8fb
     c58:	0605052e 	streq	r0, [r5], -lr, lsr #10
     c5c:	06170520 	ldreq	r0, [r7], -r0, lsr #10
     c60:	06050501 	streq	r0, [r5], -r1, lsl #10
     c64:	0608052f 	streq	r0, [r8], -pc, lsr #10
     c68:	03180501 	tsteq	r8, #4194304	; 0x400000
     c6c:	0e053c0c 	cdpeq	12, 0, cr3, cr5, cr12, {0}
     c70:	0605052e 	streq	r0, [r5], -lr, lsr #10
     c74:	06100539 			; <UNDEFINED> instruction: 0x06100539
     c78:	40050501 	andmi	r0, r5, r1, lsl #10
     c7c:	051c1005 	ldreq	r1, [ip, #-5]
     c80:	05300605 	ldreq	r0, [r0, #-1541]!	; 0xfffff9fb
     c84:	05010609 	streq	r0, [r1, #-1545]	; 0xfffff9f7
     c88:	09052205 	stmdbeq	r5, {r0, r2, r9, sp}
     c8c:	0605051e 			; <UNDEFINED> instruction: 0x0605051e
     c90:	053e1321 	ldreq	r1, [lr, #-801]!	; 0xfffffcdf
     c94:	05010608 	streq	r0, [r1, #-1544]	; 0xfffff9f8
     c98:	05430607 	strbeq	r0, [r3, #-1543]	; 0xfffff9f9
     c9c:	0501060a 	streq	r0, [r1, #-1546]	; 0xfffff9f6
     ca0:	05510607 	ldrbeq	r0, [r1, #-1543]	; 0xfffff9f9
     ca4:	05010614 	streq	r0, [r1, #-1556]	; 0xfffff9ec
     ca8:	14052024 	strne	r2, [r5], #-36	; 0xffffffdc
     cac:	06070520 	streq	r0, [r7], -r0, lsr #10
     cb0:	063e0521 	ldrteq	r0, [lr], -r1, lsr #10
     cb4:	1f07052f 	svcne	0x0007052f
     cb8:	3e052f06 	cdpcc	15, 0, cr2, cr5, cr6, {0}
     cbc:	07050106 	streq	r0, [r5, -r6, lsl #2]
     cc0:	3e053006 	cdpcc	0, 0, cr3, cr5, cr6, {0}
     cc4:	07050106 	streq	r0, [r5, -r6, lsl #2]
     cc8:	0a052306 	beq	1498e8 <__data_load__+0x148a88>
     ccc:	16050106 	strne	r0, [r5], -r6, lsl #2
     cd0:	3c02d303 	stccc	3, cr13, [r2], {3}
     cd4:	03052020 	movweq	r2, #20512	; 0x5020
     cd8:	7db20306 	ldcvc	3, cr0, [r2, #24]!
     cdc:	06060520 	streq	r0, [r6], -r0, lsr #10
     ce0:	06050501 	streq	r0, [r5], -r1, lsl #10
     ce4:	0614054b 	ldreq	r0, [r4], -fp, asr #10
     ce8:	06030501 	streq	r0, [r3], -r1, lsl #10
     cec:	06060533 			; <UNDEFINED> instruction: 0x06060533
     cf0:	06050501 	streq	r0, [r5], -r1, lsl #10
     cf4:	06130559 			; <UNDEFINED> instruction: 0x06130559
     cf8:	03053c01 	movweq	r3, #23553	; 0x5c01
     cfc:	02cf0306 	sbceq	r0, pc, #402653184	; 0x18000000
     d00:	30061301 	andcc	r1, r6, r1, lsl #6
     d04:	2109051e 	tstcs	r9, lr, lsl r5
     d08:	061f0305 	ldreq	r0, [pc], -r5, lsl #6
     d0c:	05150621 	ldreq	r0, [r5, #-1569]	; 0xfffff9df
     d10:	03051d07 	movweq	r1, #23815	; 0x5d07
     d14:	23052106 	movwcs	r2, #20742	; 0x5106
     d18:	13030521 	movwne	r0, #13601	; 0x3521
     d1c:	060a052f 	streq	r0, [sl], -pc, lsr #10
     d20:	00050501 	andeq	r0, r5, r1, lsl #10
     d24:	06020402 	streq	r0, [r2], -r2, lsl #8
     d28:	3c7ef603 	ldclcc	6, cr15, [lr], #-12
     d2c:	08040200 	stmdaeq	r4, {r9}
     d30:	02003c06 	andeq	r3, r0, #1536	; 0x600
     d34:	003c0a04 	eorseq	r0, ip, r4, lsl #20
     d38:	200a0402 	andcs	r0, sl, r2, lsl #8
     d3c:	1a040200 	bne	101544 <__data_load__+0x1006e4>
     d40:	02003c06 	andeq	r3, r0, #1536	; 0x600
     d44:	20061a04 	andcs	r1, r6, r4, lsl #20
     d48:	1a040200 	bne	101550 <__data_load__+0x1006f0>
     d4c:	02004a06 	andeq	r4, r0, #24576	; 0x6000
     d50:	002e1a04 	eoreq	r1, lr, r4, lsl #20
     d54:	06200402 	strteq	r0, [r0], -r2, lsl #8
     d58:	04020058 	streq	r0, [r2], #-88	; 0xffffffa8
     d5c:	00580622 	subseq	r0, r8, r2, lsr #12
     d60:	20220402 	eorcs	r0, r2, r2, lsl #8
     d64:	23040200 	movwcs	r0, #16896	; 0x4200
     d68:	0027052e 	eoreq	r0, r7, lr, lsr #10
     d6c:	06230402 	strteq	r0, [r3], -r2, lsl #8
     d70:	00050536 	andeq	r0, r5, r6, lsr r5
     d74:	06240402 	strteq	r0, [r4], -r2, lsl #8
     d78:	00207803 	eoreq	r7, r0, r3, lsl #16
     d7c:	3c240402 	cfstrscc	mvf0, [r4], #-8
     d80:	24040200 	strcs	r0, [r4], #-512	; 0xfffffe00
     d84:	000b0501 	andeq	r0, fp, r1, lsl #10
     d88:	06050402 	streq	r0, [r5], -r2, lsl #8
     d8c:	00c84503 	sbceq	r4, r8, r3, lsl #10
     d90:	2e080402 	cdpcs	4, 0, cr0, cr8, cr2, {0}
     d94:	0a040200 	beq	10159c <__data_load__+0x10073c>
     d98:	0402003c 	streq	r0, [r2], #-60	; 0xffffffc4
     d9c:	08054b0a 	stmdaeq	r5, {r1, r3, r8, r9, fp, lr}
     da0:	00fb0306 	rscseq	r0, fp, r6, lsl #6
     da4:	060c053c 			; <UNDEFINED> instruction: 0x060c053c
     da8:	03070501 	movweq	r0, #29953	; 0x7501
     dac:	0c052e09 	stceq	14, cr2, [r5], {9}
     db0:	05207703 	streq	r7, [r0, #-1795]!	; 0xfffff8fd
     db4:	0903060f 	stmdbeq	r3, {r0, r1, r2, r3, r9, sl}
     db8:	06070520 	streq	r0, [r7], -r0, lsr #10
     dbc:	0d052e01 	stceq	14, cr2, [r5, #-4]
     dc0:	666e0306 	strbtvs	r0, [lr], -r6, lsl #6
     dc4:	05202006 	streq	r2, [r0, #-6]!
     dc8:	0d052306 	stceq	3, cr2, [r5, #-24]	; 0xffffffe8
     dcc:	202f061d 	eorcs	r0, pc, sp, lsl r6	; <UNPREDICTABLE>
     dd0:	25052020 	strcs	r2, [r5, #-32]	; 0xffffffe0
     dd4:	132d0520 			; <UNDEFINED> instruction: 0x132d0520
     dd8:	05130605 	ldreq	r0, [r3, #-1541]	; 0xfffff9fb
     ddc:	14052f0d 	strne	r2, [r5], #-3853	; 0xfffff0f3
     de0:	053c0106 	ldreq	r0, [ip, #-262]!	; 0xfffffefa
     de4:	7eef0309 	cdpvc	3, 14, cr0, cr15, cr9, {0}
     de8:	06070520 	streq	r0, [r7], -r0, lsr #10
     dec:	063c3f03 	ldrteq	r3, [ip], -r3, lsl #30
     df0:	1f110513 	svcne	0x00110513
     df4:	21060705 	tstcs	r6, r5, lsl #14
     df8:	25052e2f 	strcs	r2, [r5, #-3631]	; 0xfffff1d1
     dfc:	1307052e 	movwne	r0, #29998	; 0x752e
     e00:	061f2106 	ldreq	r2, [pc], -r6, lsl #2
     e04:	1e14062f 	cfmsub32ne	mvax1, mvfx0, mvfx4, mvfx15
     e08:	21062705 	tstcs	r6, r5, lsl #14
     e0c:	2f130705 	svccs	0x00130705
     e10:	01060e05 	tsteq	r6, r5, lsl #28
     e14:	02000505 	andeq	r0, r0, #20971520	; 0x1400000
     e18:	0f030704 	svceq	0x00030704
     e1c:	0402003c 	streq	r0, [r2], #-60	; 0xffffffc4
     e20:	16052e07 	strne	r2, [r5], -r7, lsl #28
     e24:	4a7de003 	bmi	1f78e38 <_bsl_base_address+0x1d76e38>
     e28:	2e039c03 	cdpcs	12, 0, cr9, cr3, cr3, {0}
     e2c:	06030520 	streq	r0, [r3], -r0, lsr #10
     e30:	207dbd03 	rsbscs	fp, sp, r3, lsl #26
     e34:	05050106 	streq	r0, [r5, #-262]	; 0xfffffefa
     e38:	02c30306 	sbceq	r0, r3, #402653184	; 0x18000000
     e3c:	06160501 	ldreq	r0, [r6], -r1, lsl #10
     e40:	06050501 	streq	r0, [r5], -r1, lsl #10
     e44:	0608053d 			; <UNDEFINED> instruction: 0x0608053d
     e48:	001d0501 	andseq	r0, sp, r1, lsl #10
     e4c:	2e010402 	cdpcs	4, 0, cr0, cr1, cr2, {0}
     e50:	3e060705 	cdpcc	7, 0, cr0, cr6, cr5, {0}
     e54:	060e053d 			; <UNDEFINED> instruction: 0x060e053d
     e58:	000b0501 	andeq	r0, fp, r1, lsl #10
     e5c:	03070402 	movweq	r0, #29698	; 0x7402
     e60:	002e7ec5 	eoreq	r7, lr, r5, asr #29
     e64:	3d070402 	cfstrscc	mvf0, [r7, #-8]
     e68:	03060905 	movweq	r0, #26885	; 0x6905
     e6c:	053c018f 	ldreq	r0, [ip, #-399]!	; 0xfffffe71
     e70:	0513060a 	ldreq	r0, [r3, #-1546]	; 0xfffff9f6
     e74:	09054b07 	stmdbeq	r5, {r0, r1, r2, r8, r9, fp, lr}
     e78:	0608052c 	streq	r0, [r8], -ip, lsr #10
     e7c:	130f0521 	movwne	r0, #62753	; 0xf521
     e80:	01060705 	tsteq	r6, r5, lsl #14
     e84:	3c770306 	ldclcc	3, cr0, [r7], #-24	; 0xffffffe8
     e88:	05140905 	ldreq	r0, [r4, #-2309]	; 0xfffff6fb
     e8c:	0501060c 	streq	r0, [r1, #-1548]	; 0xfffff9f4
     e90:	053e060b 	ldreq	r0, [lr, #-1547]!	; 0xfffff9f5
     e94:	05010615 	streq	r0, [r1, #-1557]	; 0xfffff9eb
     e98:	053d060b 	ldreq	r0, [sp, #-1547]!	; 0xfffff9f5
     e9c:	13051a07 	movwne	r1, #23047	; 0x5a07
     ea0:	0a050106 	beq	1412c0 <__data_load__+0x140460>
     ea4:	00270520 	eoreq	r0, r7, r0, lsr #10
     ea8:	3c010402 	cfstrscc	mvf0, [r1], {2}
     eac:	40060b05 	andmi	r0, r6, r5, lsl #22
     eb0:	01060f05 	tsteq	r6, r5, lsl #30
     eb4:	052f1105 	streq	r1, [pc, #-261]!	; db7 <_exit+0x3>
     eb8:	0b051f0f 	bleq	148afc <__data_load__+0x147c9c>
     ebc:	0f052106 	svceq	0x00052106
     ec0:	0605050f 	streq	r0, [r5], -pc, lsl #10
     ec4:	2e7fa303 	cdpcs	3, 7, cr10, cr15, cr3, {0}
     ec8:	03160520 	tsteq	r6, #32, 10	; 0x8000000
     ecc:	20207dd2 	ldrdcs	r7, [r0], -r2	; <UNPREDICTABLE>
     ed0:	0005052e 	andeq	r0, r5, lr, lsr #10
     ed4:	061c0402 	ldreq	r0, [ip], -r2, lsl #8
     ed8:	0102ae03 	tsteq	r2, r3, lsl #28
     edc:	1c040200 	sfmne	f0, 4, [r4], {-0}
     ee0:	03062006 	movweq	r2, #24582	; 0x6006
     ee4:	15667dfe 	strbne	r7, [r6, #-3582]!	; 0xfffff202
     ee8:	0f063005 	svceq	0x00063005
     eec:	05261705 	streq	r1, [r6, #-1797]!	; 0xfffff8fb
     ef0:	207a0330 	rsbscs	r0, sl, r0, lsr r3
     ef4:	20501705 	subscs	r1, r0, r5, lsl #14
     ef8:	20060505 	andcs	r0, r6, r5, lsl #10
     efc:	01061705 	tsteq	r6, r5, lsl #14
     f00:	2f060505 	svccs	0x00060505
     f04:	01060805 	tsteq	r6, r5, lsl #16
     f08:	3c3e0d05 	ldccc	13, cr0, [lr], #-20	; 0xffffffec
     f0c:	02000505 	andeq	r0, r0, #20971520	; 0x1400000
     f10:	f9030b04 			; <UNDEFINED> instruction: 0xf9030b04
     f14:	02000101 	andeq	r0, r0, #1073741824	; 0x40000000
     f18:	002e0d04 	eoreq	r0, lr, r4, lsl #26
     f1c:	2e0d0402 	cdpcs	4, 0, cr0, cr13, cr2, {0}
     f20:	02000b05 	andeq	r0, r0, #5120	; 0x1400
     f24:	45030b04 	strmi	r0, [r3, #-2820]	; 0xfffff4fc
     f28:	0402004a 	streq	r0, [r2], #-74	; 0xffffffb6
     f2c:	02004a0d 	andeq	r4, r0, #53248	; 0xd000
     f30:	054b0d04 	strbeq	r0, [fp, #-3332]	; 0xfffff2fc
     f34:	9d030603 	stcls	6, cr0, [r3, #-12]
     f38:	0e053c7e 	mcreq	12, 0, r3, cr5, cr14, {3}
     f3c:	03050106 	movweq	r0, #20742	; 0x5106
     f40:	21057606 	tstcs	r5, r6, lsl #12
     f44:	07052206 	streq	r2, [r5, -r6, lsl #4]
     f48:	06050520 	streq	r0, [r5], -r0, lsr #10
     f4c:	0e051330 	mcreq	3, 0, r1, cr5, cr0, {1}
     f50:	05051106 	streq	r1, [r5, #-262]	; 0xfffffefa
     f54:	1f0e0521 	svcne	0x000e0521
     f58:	2e210505 	cfsh64cs	mvdx0, mvdx1, #5
     f5c:	33060705 	movwcc	r0, #26373	; 0x6705
     f60:	01061105 	tsteq	r6, r5, lsl #2
     f64:	0905204a 	stmdbeq	r5, {r1, r3, r6, sp}
     f68:	202e0306 	eorcs	r0, lr, r6, lsl #6
     f6c:	03030521 	movweq	r0, #13601	; 0x3521
     f70:	0106011b 	tsteq	r6, fp, lsl r1
     f74:	03060505 	movweq	r0, #25861	; 0x6505
     f78:	130102c3 	movwne	r0, #4803	; 0x12c3
     f7c:	0e040200 	cdpeq	2, 0, cr0, cr4, cr0, {0}
     f80:	7f830306 	svcvc	0x00830306
     f84:	04020020 	streq	r0, [r2], #-32	; 0xffffffe0
     f88:	0200200e 	andeq	r2, r0, #14
     f8c:	053c1004 	ldreq	r1, [ip, #-4]!
     f90:	0402000b 	streq	r0, [r2], #-11
     f94:	6645030e 	strbvs	r0, [r5], -lr, lsl #6
     f98:	10040200 	andne	r0, r4, r0, lsl #4
     f9c:	0402003c 	streq	r0, [r2], #-60	; 0xffffffc4
     fa0:	02054b10 	andeq	r4, r5, #16, 22	; 0x4000
     fa4:	7ec10306 	cdpvc	3, 12, cr0, cr1, cr6, {0}
     fa8:	1313133c 	tstne	r3, #60, 6	; 0xf0000000
     fac:	05130405 	ldreq	r0, [r3, #-1029]	; 0xfffffbfb
     fb0:	0501060c 	streq	r0, [r1, #-1548]	; 0xfffff9f4
     fb4:	0c054218 	sfmeq	f4, 4, [r5], {24}
     fb8:	05207a03 	streq	r7, [r0, #-2563]!	; 0xfffff5fd
     fbc:	0d053418 	cfstrseq	mvf3, [r5, #-96]	; 0xffffffa0
     fc0:	052e7603 	streq	r7, [lr, #-1539]!	; 0xfffff9fd
     fc4:	23030609 	movwcs	r0, #13833	; 0x3609
     fc8:	0607053c 			; <UNDEFINED> instruction: 0x0607053c
     fcc:	0316055c 	tsteq	r6, #92, 10	; 0x17000000
     fd0:	052002ce 	streq	r0, [r0, #-718]!	; 0xfffffd32
     fd4:	7db20307 	ldcvc	3, cr0, [r2, #28]!
     fd8:	03160520 	tsteq	r6, #32, 10	; 0x8000000
     fdc:	052002ce 	streq	r0, [r0, #-718]!	; 0xfffffd32
     fe0:	04020005 	streq	r0, [r2], #-5
     fe4:	7f840311 	svcvc	0x00840311
     fe8:	0402002e 	streq	r0, [r2], #-46	; 0xffffffd2
     fec:	02003c13 	andeq	r3, r0, #4864	; 0x1300
     ff0:	05661304 	strbeq	r1, [r6, #-772]!	; 0xfffffcfc
     ff4:	2045030b 	subcs	r0, r5, fp, lsl #6
     ff8:	03050558 	movweq	r0, #21848	; 0x5558
     ffc:	1d05203b 	stcne	0, cr2, [r5, #-236]	; 0xffffff14
    1000:	3c00db03 			; <UNDEFINED> instruction: 0x3c00db03
    1004:	01000502 	tsteq	r0, r2, lsl #10
    1008:	0001ca01 	andeq	ip, r1, r1, lsl #20
    100c:	c2000300 	andgt	r0, r0, #0, 6
    1010:	02000000 	andeq	r0, r0, #0
    1014:	0d0efb01 	vstreq	d15, [lr, #-4]
    1018:	01010100 	mrseq	r0, (UNDEF: 17)
    101c:	00000001 	andeq	r0, r0, r1
    1020:	01000001 	tsteq	r0, r1
    1024:	2e2f2e2e 	cdpcs	14, 2, cr2, cr15, cr14, {1}
    1028:	2e2e2f2e 	cdpcs	15, 2, cr2, cr14, cr14, {1}
    102c:	2f2e2e2f 	svccs	0x002e2e2f
    1030:	2e2f2e2e 	cdpcs	14, 2, cr2, cr15, cr14, {1}
    1034:	2e2e2f2e 	cdpcs	15, 2, cr2, cr14, cr14, {1}
    1038:	2f2e2e2f 	svccs	0x002e2e2f
    103c:	6c77656e 	cfldr64vs	mvdx6, [r7], #-440	; 0xfffffe48
    1040:	6c2f6269 	sfmvs	f6, 4, [pc], #-420	; ea4 <__data_load__+0x44>
    1044:	2f636269 	svccs	0x00636269
    1048:	69727473 	ldmdbvs	r2!, {r0, r1, r4, r5, r6, sl, ip, sp, lr}^
    104c:	2f00676e 	svccs	0x0000676e
    1050:	2f727375 	svccs	0x00727375
    1054:	2f62696c 	svccs	0x0062696c
    1058:	2f636367 	svccs	0x00636367
    105c:	2d6d7261 	sfmcs	f7, 2, [sp, #-388]!	; 0xfffffe7c
    1060:	656e6f6e 	strbvs	r6, [lr, #-3950]!	; 0xfffff092
    1064:	6261652d 	rsbvs	r6, r1, #188743680	; 0xb400000
    1068:	30312f69 	eorscc	r2, r1, r9, ror #30
    106c:	312e332e 			; <UNDEFINED> instruction: 0x312e332e
    1070:	636e692f 	cmnvs	lr, #770048	; 0xbc000
    1074:	6564756c 	strbvs	r7, [r4, #-1388]!	; 0xfffffa94
    1078:	75622f00 	strbvc	r2, [r2, #-3840]!	; 0xfffff100
    107c:	2f646c69 	svccs	0x00646c69
    1080:	6c77656e 	cfldr64vs	mvdx6, [r7], #-440	; 0xfffffe48
    1084:	702d6269 	eorvc	r6, sp, r9, ror #4
    1088:	64303342 	ldrtvs	r3, [r0], #-834	; 0xfffffcbe
    108c:	656e2f65 	strbvs	r2, [lr, #-3941]!	; 0xfffff09b
    1090:	62696c77 	rsbvs	r6, r9, #30464	; 0x7700
    1094:	332e332d 			; <UNDEFINED> instruction: 0x332e332d
    1098:	6e2f302e 	cdpvs	0, 2, cr3, cr15, cr14, {1}
    109c:	696c7765 	stmdbvs	ip!, {r0, r2, r5, r6, r8, r9, sl, ip, sp, lr}^
    10a0:	696c2f62 	stmdbvs	ip!, {r1, r5, r6, r8, r9, sl, fp, sp}^
    10a4:	692f6362 	stmdbvs	pc!, {r1, r5, r6, r8, r9, sp, lr}	; <UNPREDICTABLE>
    10a8:	756c636e 	strbvc	r6, [ip, #-878]!	; 0xfffffc92
    10ac:	00006564 	andeq	r6, r0, r4, ror #10
    10b0:	736d656d 	cmnvc	sp, #457179136	; 0x1b400000
    10b4:	632e7465 			; <UNDEFINED> instruction: 0x632e7465
    10b8:	00000100 	andeq	r0, r0, r0, lsl #2
    10bc:	64647473 	strbtvs	r7, [r4], #-1139	; 0xfffffb8d
    10c0:	682e6665 	stmdavs	lr!, {r0, r2, r5, r6, r9, sl, sp, lr}
    10c4:	00000200 	andeq	r0, r0, r0, lsl #4
    10c8:	69727473 	ldmdbvs	r2!, {r0, r1, r4, r5, r6, sl, ip, sp, lr}^
    10cc:	682e676e 	stmdavs	lr!, {r1, r2, r3, r5, r6, r8, r9, sl, sp, lr}
    10d0:	00000300 	andeq	r0, r0, r0, lsl #6
    10d4:	00010500 	andeq	r0, r1, r0, lsl #10
    10d8:	080c0205 	stmdaeq	ip, {r0, r2, r9}
    10dc:	28030000 	stmdacs	r3, {}	; <UNPREDICTABLE>
    10e0:	13030501 	movwne	r0, #13569	; 0x3501
    10e4:	13131315 	tstne	r3, #1409286144	; 0x54000000
    10e8:	01090515 	tsteq	r9, r5, lsl r5
    10ec:	03060105 	movweq	r0, #24837	; 0x6105
    10f0:	0a050176 	beq	1416d0 <__data_load__+0x140870>
    10f4:	05200a03 	streq	r0, [r0, #-2563]!	; 0xfffff5fd
    10f8:	07052009 	streq	r2, [r5, -r9]
    10fc:	0c053006 	stceq	0, cr3, [r5], {6}
    1100:	0a050106 	beq	141520 <__data_load__+0x1406c0>
    1104:	03090520 	movweq	r0, #38176	; 0x9520
    1108:	0a052e75 	beq	14cae4 <__data_load__+0x14bc84>
    110c:	05200903 	streq	r0, [r0, #-2307]!	; 0xfffff6fd
    1110:	0a052310 	beq	149d58 <__data_load__+0x148ef8>
    1114:	0607052d 	streq	r0, [r7], -sp, lsr #10
    1118:	1309053c 	movwne	r0, #38204	; 0x953c
    111c:	01060b05 	tsteq	r6, r5, lsl #22
    1120:	05200e05 	streq	r0, [r0, #-3589]!	; 0xfffff1fb
    1124:	051d0609 	ldreq	r0, [sp, #-1545]	; 0xfffff9f7
    1128:	06053603 	streq	r3, [r5], -r3, lsl #12
    112c:	10050106 	andne	r0, r5, r6, lsl #2
    1130:	052e7503 	streq	r7, [lr, #-1283]!	; 0xfffffafd
    1134:	0e030607 	cfmadd32eq	mvax0, mvfx0, mvfx3, mvfx7
    1138:	1305162e 	movwne	r1, #22062	; 0x562e
    113c:	0e050106 	adfeqs	f0, f5, f6
    1140:	06070520 	streq	r0, [r7], -r0, lsr #10
    1144:	06190521 	ldreq	r0, [r9], -r1, lsr #10
    1148:	200e0501 	andcs	r0, lr, r1, lsl #10
    114c:	21060705 	tstcs	r6, r5, lsl #14
    1150:	05011405 	streq	r1, [r1, #-1029]	; 0xfffffbfb
    1154:	0b05160d 	bleq	146990 <__data_load__+0x145b30>
    1158:	061b05ae 	ldreq	r0, [fp], -lr, lsr #11
    115c:	060b0501 	streq	r0, [fp], -r1, lsl #10
    1160:	061b0521 	ldreq	r0, [fp], -r1, lsr #10
    1164:	060b0501 	streq	r0, [fp], -r1, lsl #10
    1168:	061b0521 	ldreq	r0, [fp], -r1, lsr #10
    116c:	060b0501 	streq	r0, [fp], -r1, lsl #10
    1170:	061b0521 	ldreq	r0, [fp], -r1, lsr #10
    1174:	060b0501 	streq	r0, [fp], -r1, lsl #10
    1178:	030d0521 	movweq	r0, #54561	; 0xd521
    117c:	2006017a 	andcs	r0, r6, sl, ror r1
    1180:	2e331805 	cdpcs	8, 3, cr1, cr3, cr5, {0}
    1184:	23210d05 			; <UNDEFINED> instruction: 0x23210d05
    1188:	0623061d 			; <UNDEFINED> instruction: 0x0623061d
    118c:	060b054a 	streq	r0, [fp], -sl, asr #10
    1190:	061b0576 			; <UNDEFINED> instruction: 0x061b0576
    1194:	060b0501 	streq	r0, [fp], -r1, lsl #10
    1198:	0f0d0521 	svceq	0x000d0521
    119c:	18053106 	stmdane	r5, {r1, r2, r8, ip, sp}
    11a0:	0d052e1f 	stceq	14, cr2, [r5, #-124]	; 0xffffff84
    11a4:	06090521 	streq	r0, [r9], -r1, lsr #10
    11a8:	05010628 	streq	r0, [r1, #-1576]	; 0xfffff9d8
    11ac:	2e5a0310 	mrccs	3, 2, r0, cr10, cr0, {0}
    11b0:	06050520 	streq	r0, [r5], -r0, lsr #10
    11b4:	05202703 	streq	r2, [r0, #-1795]!	; 0xfffff8fd
    11b8:	0501060a 	streq	r0, [r1, #-1546]	; 0xfffff9f6
    11bc:	061f0609 	ldreq	r0, [pc], -r9, lsl #12
    11c0:	01052001 	tsteq	r5, r1
    11c4:	03090532 	movweq	r0, #38194	; 0x9532
    11c8:	0903204a 	stmdbeq	r3, {r1, r3, r6, sp}
    11cc:	030d0520 	movweq	r0, #54560	; 0xd520
    11d0:	02022e15 	andeq	r2, r2, #336	; 0x150
    11d4:	3a010100 	bcc	415dc <__data_load__+0x4077c>
    11d8:	03000001 	movweq	r0, #1
    11dc:	00011c00 	andeq	r1, r1, r0, lsl #24
    11e0:	fb010200 	blx	419ea <__data_load__+0x40b8a>
    11e4:	01000d0e 	tsteq	r0, lr, lsl #26
    11e8:	00010101 	andeq	r0, r1, r1, lsl #2
    11ec:	00010000 	andeq	r0, r1, r0
    11f0:	2e2e0100 	sufcse	f0, f6, f0
    11f4:	2f2e2e2f 	svccs	0x002e2e2f
    11f8:	2e2f2e2e 	cdpcs	14, 2, cr2, cr15, cr14, {1}
    11fc:	2e2e2f2e 	cdpcs	15, 2, cr2, cr14, cr14, {1}
    1200:	2f2e2e2f 	svccs	0x002e2e2f
    1204:	2e2f2e2e 	cdpcs	14, 2, cr2, cr15, cr14, {1}
    1208:	656e2f2e 	strbvs	r2, [lr, #-3886]!	; 0xfffff0d2
    120c:	62696c77 	rsbvs	r6, r9, #30464	; 0x7700
    1210:	62696c2f 	rsbvs	r6, r9, #12032	; 0x2f00
    1214:	74732f63 	ldrbtvc	r2, [r3], #-3939	; 0xfffff09d
    1218:	62696c64 	rsbvs	r6, r9, #100, 24	; 0x6400
    121c:	73752f00 	cmnvc	r5, #0, 30
    1220:	696c2f72 	stmdbvs	ip!, {r1, r4, r5, r6, r8, r9, sl, fp, sp}^
    1224:	63672f62 	cmnvs	r7, #392	; 0x188
    1228:	72612f63 	rsbvc	r2, r1, #396	; 0x18c
    122c:	6f6e2d6d 	svcvs	0x006e2d6d
    1230:	652d656e 	strvs	r6, [sp, #-1390]!	; 0xfffffa92
    1234:	2f696261 	svccs	0x00696261
    1238:	332e3031 			; <UNDEFINED> instruction: 0x332e3031
    123c:	692f312e 	stmdbvs	pc!, {r1, r2, r3, r5, r8, ip, sp}	; <UNPREDICTABLE>
    1240:	756c636e 	strbvc	r6, [ip, #-878]!	; 0xfffffc92
    1244:	2f006564 	svccs	0x00006564
    1248:	6c697562 	cfstr64vs	mvdx7, [r9], #-392	; 0xfffffe78
    124c:	656e2f64 	strbvs	r2, [lr, #-3940]!	; 0xfffff09c
    1250:	62696c77 	rsbvs	r6, r9, #30464	; 0x7700
    1254:	3342702d 	movtcc	r7, #8237	; 0x202d
    1258:	2f656430 	svccs	0x00656430
    125c:	6c77656e 	cfldr64vs	mvdx6, [r7], #-440	; 0xfffffe48
    1260:	332d6269 			; <UNDEFINED> instruction: 0x332d6269
    1264:	302e332e 	eorcc	r3, lr, lr, lsr #6
    1268:	77656e2f 	strbvc	r6, [r5, -pc, lsr #28]!
    126c:	2f62696c 	svccs	0x0062696c
    1270:	6362696c 	cmnvs	r2, #108, 18	; 0x1b0000
    1274:	636e692f 	cmnvs	lr, #770048	; 0xbc000
    1278:	6564756c 	strbvs	r7, [r4, #-1388]!	; 0xfffffa94
    127c:	7379732f 	cmnvc	r9, #-1140850688	; 0xbc000000
    1280:	75622f00 	strbvc	r2, [r2, #-3840]!	; 0xfffff100
    1284:	2f646c69 	svccs	0x00646c69
    1288:	6c77656e 	cfldr64vs	mvdx6, [r7], #-440	; 0xfffffe48
    128c:	702d6269 	eorvc	r6, sp, r9, ror #4
    1290:	64303342 	ldrtvs	r3, [r0], #-834	; 0xfffffcbe
    1294:	656e2f65 	strbvs	r2, [lr, #-3941]!	; 0xfffff09b
    1298:	62696c77 	rsbvs	r6, r9, #30464	; 0x7700
    129c:	332e332d 			; <UNDEFINED> instruction: 0x332e332d
    12a0:	6e2f302e 	cdpvs	0, 2, cr3, cr15, cr14, {1}
    12a4:	696c7765 	stmdbvs	ip!, {r0, r2, r5, r6, r8, r9, sl, ip, sp, lr}^
    12a8:	696c2f62 	stmdbvs	ip!, {r1, r5, r6, r8, r9, sl, fp, sp}^
    12ac:	692f6362 	stmdbvs	pc!, {r1, r5, r6, r8, r9, sp, lr}	; <UNPREDICTABLE>
    12b0:	756c636e 	strbvc	r6, [ip, #-878]!	; 0xfffffc92
    12b4:	00006564 	andeq	r6, r0, r4, ror #10
    12b8:	636f6c6d 	cmnvs	pc, #27904	; 0x6d00
    12bc:	00632e6b 	rsbeq	r2, r3, fp, ror #28
    12c0:	73000001 	movwvc	r0, #1
    12c4:	65646474 	strbvs	r6, [r4, #-1140]!	; 0xfffffb8c
    12c8:	00682e66 	rsbeq	r2, r8, r6, ror #28
    12cc:	5f000002 	svcpl	0x00000002
    12d0:	65707974 	ldrbvs	r7, [r0, #-2420]!	; 0xfffff68c
    12d4:	00682e73 	rsbeq	r2, r8, r3, ror lr
    12d8:	72000003 	andvc	r0, r0, #3
    12dc:	746e6565 	strbtvc	r6, [lr], #-1381	; 0xfffffa9b
    12e0:	0300682e 	movweq	r6, #2094	; 0x82e
    12e4:	6f6c0000 	svcvs	0x006c0000
    12e8:	682e6b63 	stmdavs	lr!, {r0, r1, r5, r6, r8, r9, fp, sp, lr}
    12ec:	00000300 	andeq	r0, r0, r0, lsl #6
    12f0:	6c6c616d 	stfvse	f6, [ip], #-436	; 0xfffffe4c
    12f4:	682e636f 	stmdavs	lr!, {r0, r1, r2, r3, r5, r6, r8, r9, sp, lr}
    12f8:	00000400 	andeq	r0, r0, r0, lsl #8
    12fc:	00010500 	andeq	r0, r1, r0, lsl #10
    1300:	08b40205 	ldmeq	r4!, {r0, r2, r9}
    1304:	29030000 	stmdbcs	r3, {}	; <UNPREDICTABLE>
    1308:	14030501 	strne	r0, [r3], #-1281	; 0xfffffaff
    130c:	14060105 	strne	r0, [r6], #-261	; 0xfffffefb
    1310:	01000302 	tsteq	r0, r2, lsl #6
    1314:	00017f01 	andeq	r7, r1, r1, lsl #30
    1318:	26000300 	strcs	r0, [r0], -r0, lsl #6
    131c:	02000001 	andeq	r0, r0, #1
    1320:	0d0efb01 	vstreq	d15, [lr, #-4]
    1324:	01010100 	mrseq	r0, (UNDEF: 17)
    1328:	00000001 	andeq	r0, r0, r1
    132c:	01000001 	tsteq	r0, r1
    1330:	2e2f2e2e 	cdpcs	14, 2, cr2, cr15, cr14, {1}
    1334:	2e2e2f2e 	cdpcs	15, 2, cr2, cr14, cr14, {1}
    1338:	2f2e2e2f 	svccs	0x002e2e2f
    133c:	2e2f2e2e 	cdpcs	14, 2, cr2, cr15, cr14, {1}
    1340:	2e2e2f2e 	cdpcs	15, 2, cr2, cr14, cr14, {1}
    1344:	2f2e2e2f 	svccs	0x002e2e2f
    1348:	6c77656e 	cfldr64vs	mvdx6, [r7], #-440	; 0xfffffe48
    134c:	6c2f6269 	sfmvs	f6, 4, [pc], #-420	; 11b0 <__data_load__+0x350>
    1350:	2f636269 	svccs	0x00636269
    1354:	6e656572 	mcrvs	5, 3, r6, cr5, cr2, {3}
    1358:	752f0074 	strvc	r0, [pc, #-116]!	; 12ec <__data_load__+0x48c>
    135c:	6c2f7273 	sfmvs	f7, 4, [pc], #-460	; 1198 <__data_load__+0x338>
    1360:	672f6269 	strvs	r6, [pc, -r9, ror #4]!
    1364:	612f6363 			; <UNDEFINED> instruction: 0x612f6363
    1368:	6e2d6d72 	mcrvs	13, 1, r6, cr13, cr2, {3}
    136c:	2d656e6f 	stclcs	14, cr6, [r5, #-444]!	; 0xfffffe44
    1370:	69626165 	stmdbvs	r2!, {r0, r2, r5, r6, r8, sp, lr}^
    1374:	2e30312f 	rsfcssp	f3, f0, #10.0
    1378:	2f312e33 	svccs	0x00312e33
    137c:	6c636e69 	stclvs	14, cr6, [r3], #-420	; 0xfffffe5c
    1380:	00656475 	rsbeq	r6, r5, r5, ror r4
    1384:	6975622f 	ldmdbvs	r5!, {r0, r1, r2, r3, r5, r9, sp, lr}^
    1388:	6e2f646c 	cdpvs	4, 2, cr6, cr15, cr12, {3}
    138c:	696c7765 	stmdbvs	ip!, {r0, r2, r5, r6, r8, r9, sl, ip, sp, lr}^
    1390:	42702d62 	rsbsmi	r2, r0, #6272	; 0x1880
    1394:	65643033 	strbvs	r3, [r4, #-51]!	; 0xffffffcd
    1398:	77656e2f 	strbvc	r6, [r5, -pc, lsr #28]!
    139c:	2d62696c 			; <UNDEFINED> instruction: 0x2d62696c
    13a0:	2e332e33 	mrccs	14, 1, r2, cr3, cr3, {1}
    13a4:	656e2f30 	strbvs	r2, [lr, #-3888]!	; 0xfffff0d0
    13a8:	62696c77 	rsbvs	r6, r9, #30464	; 0x7700
    13ac:	62696c2f 	rsbvs	r6, r9, #12032	; 0x2f00
    13b0:	6e692f63 	cdpvs	15, 6, cr2, cr9, cr3, {3}
    13b4:	64756c63 	ldrbtvs	r6, [r5], #-3171	; 0xfffff39d
    13b8:	79732f65 	ldmdbvc	r3!, {r0, r2, r5, r6, r8, r9, sl, fp, sp}^
    13bc:	622f0073 	eorvs	r0, pc, #115	; 0x73
    13c0:	646c6975 	strbtvs	r6, [ip], #-2421	; 0xfffff68b
    13c4:	77656e2f 	strbvc	r6, [r5, -pc, lsr #28]!
    13c8:	2d62696c 			; <UNDEFINED> instruction: 0x2d62696c
    13cc:	30334270 	eorscc	r4, r3, r0, ror r2
    13d0:	6e2f6564 	cfsh64vs	mvdx6, mvdx15, #52
    13d4:	696c7765 	stmdbvs	ip!, {r0, r2, r5, r6, r8, r9, sl, ip, sp, lr}^
    13d8:	2e332d62 	cdpcs	13, 3, cr2, cr3, cr2, {3}
    13dc:	2f302e33 	svccs	0x00302e33
    13e0:	6c77656e 	cfldr64vs	mvdx6, [r7], #-440	; 0xfffffe48
    13e4:	6c2f6269 	sfmvs	f6, 4, [pc], #-420	; 1248 <__data_load__+0x3e8>
    13e8:	2f636269 	svccs	0x00636269
    13ec:	6c636e69 	stclvs	14, cr6, [r3], #-420	; 0xfffffe5c
    13f0:	00656475 	rsbeq	r6, r5, r5, ror r4
    13f4:	72627300 	rsbvc	r7, r2, #0, 6
    13f8:	632e726b 			; <UNDEFINED> instruction: 0x632e726b
    13fc:	00000100 	andeq	r0, r0, r0, lsl #2
    1400:	64647473 	strbtvs	r7, [r4], #-1139	; 0xfffffb8d
    1404:	682e6665 	stmdavs	lr!, {r0, r2, r5, r6, r9, sl, sp, lr}
    1408:	00000200 	andeq	r0, r0, r0, lsl #4
    140c:	7079745f 	rsbsvc	r7, r9, pc, asr r4
    1410:	682e7365 	stmdavs	lr!, {r0, r2, r5, r6, r8, r9, ip, sp, lr}
    1414:	00000300 	andeq	r0, r0, r0, lsl #6
    1418:	6e656572 	mcrvs	5, 3, r6, cr5, cr2, {3}
    141c:	00682e74 	rsbeq	r2, r8, r4, ror lr
    1420:	6c000003 	stcvs	0, cr0, [r0], {3}
    1424:	2e6b636f 	cdpcs	3, 6, cr6, cr11, cr15, {3}
    1428:	00030068 	andeq	r0, r3, r8, rrx
    142c:	65657200 	strbvs	r7, [r5, #-512]!	; 0xfffffe00
    1430:	682e746e 	stmdavs	lr!, {r1, r2, r3, r5, r6, sl, ip, sp, lr}
    1434:	00000400 	andeq	r0, r0, r0, lsl #8
    1438:	73696e75 	cmnvc	r9, #1872	; 0x750
    143c:	682e6474 	stmdavs	lr!, {r2, r4, r5, r6, sl, sp, lr}
    1440:	00000300 	andeq	r0, r0, r0, lsl #6
    1444:	00010500 	andeq	r0, r1, r0, lsl #10
    1448:	08bc0205 	ldmeq	ip!, {r0, r2, r9}
    144c:	2d030000 	stccs	0, cr0, [r3, #-0]
    1450:	13030501 	movwne	r0, #13569	; 0x3501
    1454:	09051413 	stmdbeq	r5, {r0, r1, r4, sl, ip}
    1458:	01050106 	tsteq	r5, r6, lsl #2
    145c:	2409051c 	strcs	r0, [r9], #-1308	; 0xfffffae4
    1460:	051c0105 	ldreq	r0, [ip, #-261]	; 0xfffffefb
    1464:	03053209 	movweq	r3, #21001	; 0x5209
    1468:	17052106 	strne	r2, [r5, -r6, lsl #2]
    146c:	06050106 	streq	r0, [r5], -r6, lsl #2
    1470:	3101052e 	tstcc	r1, lr, lsr #10
    1474:	003e0501 	eorseq	r0, lr, r1, lsl #10
    1478:	1d010402 	cfstrsne	mvf0, [r1, #-8]
    147c:	02003505 	andeq	r3, r0, #20971520	; 0x1400000
    1480:	05200104 	streq	r0, [r0, #-260]!	; 0xfffffefc
    1484:	052f0605 	streq	r0, [pc, #-1541]!	; e87 <__data_load__+0x27>
    1488:	05010611 	streq	r0, [r1, #-1553]	; 0xfffff9ef
    148c:	05210603 	streq	r0, [r1, #-1539]!	; 0xfffff9fd
    1490:	0201060a 	andeq	r0, r1, #10485760	; 0xa00000
    1494:	01010003 	tsteq	r1, r3
    1498:	000001b4 			; <UNDEFINED> instruction: 0x000001b4
    149c:	00e90003 	rsceq	r0, r9, r3
    14a0:	01020000 	mrseq	r0, (UNDEF: 2)
    14a4:	000d0efb 	strdeq	r0, [sp], -fp
    14a8:	01010101 	tsteq	r1, r1, lsl #2
    14ac:	01000000 	mrseq	r0, (UNDEF: 0)
    14b0:	2e010000 	cdpcs	0, 0, cr0, cr1, cr0, {0}
    14b4:	2e2e2f2e 	cdpcs	15, 2, cr2, cr14, cr14, {1}
    14b8:	2f2e2e2f 	svccs	0x002e2e2f
    14bc:	2e2f2e2e 	cdpcs	14, 2, cr2, cr15, cr14, {1}
    14c0:	2e2e2f2e 	cdpcs	15, 2, cr2, cr14, cr14, {1}
    14c4:	2f2e2e2f 	svccs	0x002e2e2f
    14c8:	6e2f2e2e 	cdpvs	14, 2, cr2, cr15, cr14, {1}
    14cc:	696c7765 	stmdbvs	ip!, {r0, r2, r5, r6, r8, r9, sl, ip, sp, lr}^
    14d0:	696c2f62 	stmdbvs	ip!, {r1, r5, r6, r8, r9, sl, fp, sp}^
    14d4:	732f6362 			; <UNDEFINED> instruction: 0x732f6362
    14d8:	696c6474 	stmdbvs	ip!, {r2, r4, r5, r6, sl, sp, lr}^
    14dc:	752f0062 	strvc	r0, [pc, #-98]!	; 1482 <__data_load__+0x622>
    14e0:	6c2f7273 	sfmvs	f7, 4, [pc], #-460	; 131c <__data_load__+0x4bc>
    14e4:	672f6269 	strvs	r6, [pc, -r9, ror #4]!
    14e8:	612f6363 			; <UNDEFINED> instruction: 0x612f6363
    14ec:	6e2d6d72 	mcrvs	13, 1, r6, cr13, cr2, {3}
    14f0:	2d656e6f 	stclcs	14, cr6, [r5, #-444]!	; 0xfffffe44
    14f4:	69626165 	stmdbvs	r2!, {r0, r2, r5, r6, r8, sp, lr}^
    14f8:	2e30312f 	rsfcssp	f3, f0, #10.0
    14fc:	2f312e33 	svccs	0x00312e33
    1500:	6c636e69 	stclvs	14, cr6, [r3], #-420	; 0xfffffe5c
    1504:	00656475 	rsbeq	r6, r5, r5, ror r4
    1508:	6975622f 	ldmdbvs	r5!, {r0, r1, r2, r3, r5, r9, sp, lr}^
    150c:	6e2f646c 	cdpvs	4, 2, cr6, cr15, cr12, {3}
    1510:	696c7765 	stmdbvs	ip!, {r0, r2, r5, r6, r8, r9, sl, ip, sp, lr}^
    1514:	42702d62 	rsbsmi	r2, r0, #6272	; 0x1880
    1518:	65643033 	strbvs	r3, [r4, #-51]!	; 0xffffffcd
    151c:	77656e2f 	strbvc	r6, [r5, -pc, lsr #28]!
    1520:	2d62696c 			; <UNDEFINED> instruction: 0x2d62696c
    1524:	2e332e33 	mrccs	14, 1, r2, cr3, cr3, {1}
    1528:	656e2f30 	strbvs	r2, [lr, #-3888]!	; 0xfffff0d0
    152c:	62696c77 	rsbvs	r6, r9, #30464	; 0x7700
    1530:	62696c2f 	rsbvs	r6, r9, #12032	; 0x2f00
    1534:	6e692f63 	cdpvs	15, 6, cr2, cr9, cr3, {3}
    1538:	64756c63 	ldrbtvs	r6, [r5], #-3171	; 0xfffff39d
    153c:	79732f65 	ldmdbvc	r3!, {r0, r2, r5, r6, r8, r9, sl, fp, sp}^
    1540:	5f000073 	svcpl	0x00000073
    1544:	6574615f 	ldrbvs	r6, [r4, #-351]!	; 0xfffffea1
    1548:	2e746978 			; <UNDEFINED> instruction: 0x2e746978
    154c:	00010063 	andeq	r0, r1, r3, rrx
    1550:	64747300 	ldrbtvs	r7, [r4], #-768	; 0xfffffd00
    1554:	2e666564 	cdpcs	5, 6, cr6, cr6, cr4, {3}
    1558:	00020068 	andeq	r0, r2, r8, rrx
    155c:	79745f00 	ldmdbvc	r4!, {r8, r9, sl, fp, ip, lr}^
    1560:	2e736570 	mrccs	5, 3, r6, cr3, cr0, {3}
    1564:	00030068 	andeq	r0, r3, r8, rrx
    1568:	65657200 	strbvs	r7, [r5, #-512]!	; 0xfffffe00
    156c:	682e746e 	stmdavs	lr!, {r1, r2, r3, r5, r6, sl, ip, sp, lr}
    1570:	00000300 	andeq	r0, r0, r0, lsl #6
    1574:	6b636f6c 	blvs	18dd32c <_bsl_base_address+0x16db32c>
    1578:	0300682e 	movweq	r6, #2094	; 0x82e
    157c:	74610000 	strbtvc	r0, [r1], #-0
    1580:	74697865 	strbtvc	r7, [r9], #-2149	; 0xfffff79b
    1584:	0100682e 	tsteq	r0, lr, lsr #16
    1588:	05000000 	streq	r0, [r0, #-0]
    158c:	02050001 	andeq	r0, r5, #1
    1590:	000008e0 	andeq	r0, r0, r0, ror #17
    1594:	0100c703 	tsteq	r0, r3, lsl #14
    1598:	13130305 	tstne	r3, #335544320	; 0x14000000
    159c:	01051515 	tsteq	r5, r5, lsl r5
    15a0:	01780306 	cmneq	r8, r6, lsl #6
    15a4:	05440705 	strbeq	r0, [r4, #-1797]	; 0xfffff8fb
    15a8:	20780301 	rsbscs	r0, r8, r1, lsl #6
    15ac:	05280705 	streq	r0, [r8, #-1797]!	; 0xfffff8fb
    15b0:	03052e05 	movweq	r2, #24069	; 0x5e05
    15b4:	06054b06 	streq	r4, [r5], -r6, lsl #22
    15b8:	03050106 	movweq	r0, #20742	; 0x5106
    15bc:	2e090306 	cdpcs	3, 0, cr0, cr9, cr6, {0}
    15c0:	01060805 	tsteq	r6, r5, lsl #16
    15c4:	05200605 	streq	r0, [r0, #-1541]!	; 0xfffff9fb
    15c8:	1c030603 	stcne	6, cr0, [r3], {3}
    15cc:	0606052e 	streq	r0, [r6], -lr, lsr #10
    15d0:	06030501 	streq	r0, [r3], -r1, lsl #10
    15d4:	052e2403 	streq	r2, [lr, #-1027]!	; 0xfffffbfd
    15d8:	0516060a 	ldreq	r0, [r6, #-1546]	; 0xfffff9f6
    15dc:	16051c12 			; <UNDEFINED> instruction: 0x16051c12
    15e0:	2e120520 	cfmul64cs	mvdx0, mvdx2, mvdx0
    15e4:	05201605 	streq	r1, [r0, #-1541]!	; 0xfffff9fb
    15e8:	14220603 	strtne	r0, [r2], #-1539	; 0xfffff9fd
    15ec:	13060105 	movwne	r0, #24837	; 0x6105
    15f0:	06070520 	streq	r0, [r7], -r0, lsr #10
    15f4:	143c7303 	ldrtne	r7, [ip], #-771	; 0xfffffcfd
    15f8:	01061e05 	tsteq	r6, r5, lsl #28
    15fc:	4b060705 	blmi	183218 <__data_load__+0x1823b8>
    1600:	01061605 	tsteq	r6, r5, lsl #12
    1604:	053c1c05 	ldreq	r1, [ip, #-3077]!	; 0xfffff3fb
    1608:	1c052016 	stcne	0, cr2, [r5], {22}
    160c:	2016052e 	andscs	r0, r6, lr, lsr #10
    1610:	05201c05 	streq	r1, [r0, #-3077]!	; 0xfffff3fb
    1614:	07052016 	smladeq	r5, r6, r0, r2
    1618:	22053d06 	andcs	r3, r5, #384	; 0x180
    161c:	07050106 	streq	r0, [r5, -r6, lsl #2]
    1620:	0a053d06 	beq	150a40 <__data_load__+0x14fbe0>
    1624:	02050106 	andeq	r0, r5, #-2147483647	; 0x80000001
    1628:	10052f06 	andne	r2, r5, r6, lsl #30
    162c:	20200106 	eorcs	r0, r0, r6, lsl #2
    1630:	06070558 			; <UNDEFINED> instruction: 0x06070558
    1634:	207fbb03 	rsbscs	fp, pc, r3, lsl #22
    1638:	01061a05 	tsteq	r6, r5, lsl #20
    163c:	05201605 	streq	r1, [r0, #-1541]!	; 0xfffff9fb
    1640:	1605201a 			; <UNDEFINED> instruction: 0x1605201a
    1644:	030e052e 	movweq	r0, #58670	; 0xe52e
    1648:	02202e0d 	eoreq	r2, r0, #13, 28	; 0xd0
    164c:	01010004 	tsteq	r1, r4
    1650:	0000029d 	muleq	r0, sp, r2
    1654:	01240003 			; <UNDEFINED> instruction: 0x01240003
    1658:	01020000 	mrseq	r0, (UNDEF: 2)
    165c:	000d0efb 	strdeq	r0, [sp], -fp
    1660:	01010101 	tsteq	r1, r1, lsl #2
    1664:	01000000 	mrseq	r0, (UNDEF: 0)
    1668:	2e010000 	cdpcs	0, 0, cr0, cr1, cr0, {0}
    166c:	2e2e2f2e 	cdpcs	15, 2, cr2, cr14, cr14, {1}
    1670:	2f2e2e2f 	svccs	0x002e2e2f
    1674:	2e2f2e2e 	cdpcs	14, 2, cr2, cr15, cr14, {1}
    1678:	2e2e2f2e 	cdpcs	15, 2, cr2, cr14, cr14, {1}
    167c:	2f2e2e2f 	svccs	0x002e2e2f
    1680:	6e2f2e2e 	cdpvs	14, 2, cr2, cr15, cr14, {1}
    1684:	696c7765 	stmdbvs	ip!, {r0, r2, r5, r6, r8, r9, sl, ip, sp, lr}^
    1688:	696c2f62 	stmdbvs	ip!, {r1, r5, r6, r8, r9, sl, fp, sp}^
    168c:	732f6362 			; <UNDEFINED> instruction: 0x732f6362
    1690:	696c6474 	stmdbvs	ip!, {r2, r4, r5, r6, sl, sp, lr}^
    1694:	752f0062 	strvc	r0, [pc, #-98]!	; 163a <__data_load__+0x7da>
    1698:	6c2f7273 	sfmvs	f7, 4, [pc], #-460	; 14d4 <__data_load__+0x674>
    169c:	672f6269 	strvs	r6, [pc, -r9, ror #4]!
    16a0:	612f6363 			; <UNDEFINED> instruction: 0x612f6363
    16a4:	6e2d6d72 	mcrvs	13, 1, r6, cr13, cr2, {3}
    16a8:	2d656e6f 	stclcs	14, cr6, [r5, #-444]!	; 0xfffffe44
    16ac:	69626165 	stmdbvs	r2!, {r0, r2, r5, r6, r8, sp, lr}^
    16b0:	2e30312f 	rsfcssp	f3, f0, #10.0
    16b4:	2f312e33 	svccs	0x00312e33
    16b8:	6c636e69 	stclvs	14, cr6, [r3], #-420	; 0xfffffe5c
    16bc:	00656475 	rsbeq	r6, r5, r5, ror r4
    16c0:	6975622f 	ldmdbvs	r5!, {r0, r1, r2, r3, r5, r9, sp, lr}^
    16c4:	6e2f646c 	cdpvs	4, 2, cr6, cr15, cr12, {3}
    16c8:	696c7765 	stmdbvs	ip!, {r0, r2, r5, r6, r8, r9, sl, ip, sp, lr}^
    16cc:	42702d62 	rsbsmi	r2, r0, #6272	; 0x1880
    16d0:	65643033 	strbvs	r3, [r4, #-51]!	; 0xffffffcd
    16d4:	77656e2f 	strbvc	r6, [r5, -pc, lsr #28]!
    16d8:	2d62696c 			; <UNDEFINED> instruction: 0x2d62696c
    16dc:	2e332e33 	mrccs	14, 1, r2, cr3, cr3, {1}
    16e0:	656e2f30 	strbvs	r2, [lr, #-3888]!	; 0xfffff0d0
    16e4:	62696c77 	rsbvs	r6, r9, #30464	; 0x7700
    16e8:	62696c2f 	rsbvs	r6, r9, #12032	; 0x2f00
    16ec:	6e692f63 	cdpvs	15, 6, cr2, cr9, cr3, {3}
    16f0:	64756c63 	ldrbtvs	r6, [r5], #-3171	; 0xfffff39d
    16f4:	79732f65 	ldmdbvc	r3!, {r0, r2, r5, r6, r8, r9, sl, fp, sp}^
    16f8:	622f0073 	eorvs	r0, pc, #115	; 0x73
    16fc:	646c6975 	strbtvs	r6, [ip], #-2421	; 0xfffff68b
    1700:	77656e2f 	strbvc	r6, [r5, -pc, lsr #28]!
    1704:	2d62696c 			; <UNDEFINED> instruction: 0x2d62696c
    1708:	30334270 	eorscc	r4, r3, r0, ror r2
    170c:	6e2f6564 	cfsh64vs	mvdx6, mvdx15, #52
    1710:	696c7765 	stmdbvs	ip!, {r0, r2, r5, r6, r8, r9, sl, ip, sp, lr}^
    1714:	2e332d62 	cdpcs	13, 3, cr2, cr3, cr2, {3}
    1718:	2f302e33 	svccs	0x00302e33
    171c:	6c77656e 	cfldr64vs	mvdx6, [r7], #-440	; 0xfffffe48
    1720:	6c2f6269 	sfmvs	f6, 4, [pc], #-420	; 1584 <__data_load__+0x724>
    1724:	2f636269 	svccs	0x00636269
    1728:	6c636e69 	stclvs	14, cr6, [r3], #-420	; 0xfffffe5c
    172c:	00656475 	rsbeq	r6, r5, r5, ror r4
    1730:	635f5f00 	cmpvs	pc, #0, 30
    1734:	5f6c6c61 	svcpl	0x006c6c61
    1738:	78657461 	stmdavc	r5!, {r0, r5, r6, sl, ip, sp, lr}^
    173c:	632e7469 			; <UNDEFINED> instruction: 0x632e7469
    1740:	00000100 	andeq	r0, r0, r0, lsl #2
    1744:	64647473 	strbtvs	r7, [r4], #-1139	; 0xfffffb8d
    1748:	682e6665 	stmdavs	lr!, {r0, r2, r5, r6, r9, sl, sp, lr}
    174c:	00000200 	andeq	r0, r0, r0, lsl #4
    1750:	7079745f 	rsbsvc	r7, r9, pc, asr r4
    1754:	682e7365 	stmdavs	lr!, {r0, r2, r5, r6, r8, r9, ip, sp, lr}
    1758:	00000300 	andeq	r0, r0, r0, lsl #6
    175c:	6e656572 	mcrvs	5, 3, r6, cr5, cr2, {3}
    1760:	00682e74 	rsbeq	r2, r8, r4, ror lr
    1764:	6c000003 	stcvs	0, cr0, [r0], {3}
    1768:	2e6b636f 	cdpcs	3, 6, cr6, cr11, cr15, {3}
    176c:	00030068 	andeq	r0, r3, r8, rrx
    1770:	64747300 	ldrbtvs	r7, [r4], #-768	; 0xfffffd00
    1774:	2e62696c 	vnmulcs.f16	s13, s4, s25	; <UNPREDICTABLE>
    1778:	00040068 	andeq	r0, r4, r8, rrx
    177c:	01050000 	mrseq	r0, (UNDEF: 5)
    1780:	b8020500 	stmdalt	r2, {r8, sl}
    1784:	0300000d 	movweq	r0, #13
    1788:	03050131 	movweq	r0, #20785	; 0x5131
    178c:	06060513 			; <UNDEFINED> instruction: 0x06060513
    1790:	1f010501 	svcne	0x00010501
    1794:	05210605 	streq	r0, [r1, #-1541]!	; 0xfffff9fb
    1798:	13300605 	teqne	r0, #5242880	; 0x500000
    179c:	42060105 	andmi	r0, r6, #1073741825	; 0x40000001
    17a0:	01000502 	tsteq	r0, r2, lsl #10
    17a4:	00010501 	andeq	r0, r1, r1, lsl #10
    17a8:	09680205 	stmdbeq	r8!, {r0, r2, r9}^
    17ac:	c6030000 	strgt	r0, [r3], -r0
    17b0:	03050100 	movweq	r0, #20736	; 0x5100
    17b4:	13131313 	tstne	r3, #1275068416	; 0x4c000000
    17b8:	17161313 			; <UNDEFINED> instruction: 0x17161313
    17bc:	03060105 	movweq	r0, #24837	; 0x6105
    17c0:	05050171 	streq	r0, [r5, #-369]	; 0xfffffe8f
    17c4:	05580f03 	ldrbeq	r0, [r8, #-3843]	; 0xfffff0fd
    17c8:	20710301 	rsbscs	r0, r1, r1, lsl #6
    17cc:	0f030705 	svceq	0x00030705
    17d0:	20050520 	andcs	r0, r5, r0, lsr #10
    17d4:	05200705 	streq	r0, [r0, #-1797]!	; 0xfffff8fb
    17d8:	20710301 	rsbscs	r0, r1, r1, lsl #6
    17dc:	0f030505 	svceq	0x00030505
    17e0:	06030520 	streq	r0, [r3], -r0, lsr #10
    17e4:	09051321 	stmdbeq	r5, {r0, r5, r8, r9, ip}
    17e8:	06010501 	streq	r0, [r1], -r1, lsl #10
    17ec:	05016f03 	streq	r6, [r1, #-3843]	; 0xfffff0fd
    17f0:	2e0f0307 	cdpcs	3, 0, cr0, cr15, cr7, {0}
    17f4:	05220905 	streq	r0, [r2, #-2309]!	; 0xfffff6fb
    17f8:	14330607 	ldrtne	r0, [r3], #-1543	; 0xfffff9f9
    17fc:	01061105 	tsteq	r6, r5, lsl #2
    1800:	20061d05 	andcs	r1, r6, r5, lsl #26
    1804:	01060705 	tsteq	r6, r5, lsl #14
    1808:	0316052e 	tsteq	r6, #192937984	; 0xb800000
    180c:	059e5819 	ldreq	r5, [lr, #2073]	; 0x819
    1810:	67030625 	strvs	r0, [r3, -r5, lsr #12]
    1814:	011d0501 	tsteq	sp, r1, lsl #10
    1818:	01060705 	tsteq	r6, r5, lsl #14
    181c:	84060405 	strhi	r0, [r6], #-1029	; 0xfffffbfb
    1820:	07051514 	smladeq	r5, r4, r5, r1
    1824:	14050106 	strne	r0, [r5], #-262	; 0xfffffefa
    1828:	02040200 	andeq	r0, r4, #0, 4
    182c:	0402003c 	streq	r0, [r2], #-60	; 0xffffffc4
    1830:	04052002 	streq	r2, [r5], #-2
    1834:	15053306 	strne	r3, [r5, #-774]	; 0xfffffcfa
    1838:	07051306 	streq	r1, [r5, -r6, lsl #6]
    183c:	0604051f 			; <UNDEFINED> instruction: 0x0604051f
    1840:	06150521 	ldreq	r0, [r5], -r1, lsr #10
    1844:	20070501 	andcs	r0, r7, r1, lsl #10
    1848:	31060605 	tstcc	r6, r5, lsl #12
    184c:	01061105 	tsteq	r6, r5, lsl #2
    1850:	31060405 	tstcc	r6, r5, lsl #8
    1854:	01060705 	tsteq	r6, r5, lsl #14
    1858:	31060405 	tstcc	r6, r5, lsl #8
    185c:	01060805 	tsteq	r6, r5, lsl #16
    1860:	05230e05 	streq	r0, [r3, #-3589]!	; 0xfffff1fb
    1864:	04051d08 	streq	r1, [r5], #-3336	; 0xfffff2f8
    1868:	06052306 	streq	r2, [r5], -r6, lsl #6
    186c:	016b0306 	cmneq	fp, r6, lsl #6
    1870:	030e0520 	movweq	r0, #58656	; 0xe520
    1874:	06052015 			; <UNDEFINED> instruction: 0x06052015
    1878:	04053d06 	streq	r3, [r5], #-3334	; 0xfffff2fa
    187c:	05200903 	streq	r0, [r0, #-2307]!	; 0xfffff6fd
    1880:	05010607 	streq	r0, [r1, #-1543]	; 0xfffff9f9
    1884:	0402001a 	streq	r0, [r2], #-26	; 0xffffffe6
    1888:	17053c01 	strne	r3, [r5, -r1, lsl #24]
    188c:	01040200 	mrseq	r0, R12_usr
    1890:	0402004a 	streq	r0, [r2], #-74	; 0xffffffb6
    1894:	03053c01 	movweq	r3, #23553	; 0x5c01
    1898:	01460306 	cmpeq	r6, r6, lsl #6
    189c:	13131313 	tstne	r3, #1275068416	; 0x4c000000
    18a0:	13171613 	tstne	r7, #19922944	; 0x1300000
    18a4:	01090513 	tsteq	r9, r3, lsl r5
    18a8:	03060105 	movweq	r0, #24837	; 0x6105
    18ac:	202e00c9 	eorcs	r0, lr, r9, asr #1
    18b0:	03060905 	movweq	r0, #26885	; 0x6905
    18b4:	12056659 	andne	r6, r5, #93323264	; 0x5900000
    18b8:	1c050106 	stfnes	f0, [r5], {6}
    18bc:	200c053c 	andcs	r0, ip, ip, lsr r5
    18c0:	2f060605 	svccs	0x00060605
    18c4:	01060705 	tsteq	r6, r5, lsl #14
    18c8:	51060405 	tstpl	r6, r5, lsl #8
    18cc:	01060705 	tsteq	r6, r5, lsl #14
    18d0:	0305053c 	movweq	r0, #21820	; 0x553c
    18d4:	054a0154 	strbeq	r0, [sl, #-340]	; 0xfffffeac
    18d8:	17030606 	strne	r0, [r3, -r6, lsl #12]
    18dc:	060d0520 	streq	r0, [sp], -r0, lsr #10
    18e0:	06060501 	streq	r0, [r6], -r1, lsl #10
    18e4:	052e1003 	streq	r1, [lr, #-3]!
    18e8:	3c010607 	stccc	6, cr0, [r1], {7}
    18ec:	01000302 	tsteq	r0, r2, lsl #6
    18f0:	00047901 	andeq	r7, r4, r1, lsl #18
    18f4:	1d000300 	stcne	3, cr0, [r0, #-0]
    18f8:	02000001 	andeq	r0, r0, #1
    18fc:	0d0efb01 	vstreq	d15, [lr, #-4]
    1900:	01010100 	mrseq	r0, (UNDEF: 17)
    1904:	00000001 	andeq	r0, r0, r1
    1908:	01000001 	tsteq	r0, r1
    190c:	2e2f2e2e 	cdpcs	14, 2, cr2, cr15, cr14, {1}
    1910:	2e2e2f2e 	cdpcs	15, 2, cr2, cr14, cr14, {1}
    1914:	2f2e2e2f 	svccs	0x002e2e2f
    1918:	2e2f2e2e 	cdpcs	14, 2, cr2, cr15, cr14, {1}
    191c:	2e2e2f2e 	cdpcs	15, 2, cr2, cr14, cr14, {1}
    1920:	2f2e2e2f 	svccs	0x002e2e2f
    1924:	6c77656e 	cfldr64vs	mvdx6, [r7], #-440	; 0xfffffe48
    1928:	6c2f6269 	sfmvs	f6, 4, [pc], #-420	; 178c <__data_load__+0x92c>
    192c:	2f636269 	svccs	0x00636269
    1930:	6c647473 	cfstrdvs	mvd7, [r4], #-460	; 0xfffffe34
    1934:	2f006269 	svccs	0x00006269
    1938:	2f727375 	svccs	0x00727375
    193c:	2f62696c 	svccs	0x0062696c
    1940:	2f636367 	svccs	0x00636367
    1944:	2d6d7261 	sfmcs	f7, 2, [sp, #-388]!	; 0xfffffe7c
    1948:	656e6f6e 	strbvs	r6, [lr, #-3950]!	; 0xfffff092
    194c:	6261652d 	rsbvs	r6, r1, #188743680	; 0xb400000
    1950:	30312f69 	eorscc	r2, r1, r9, ror #30
    1954:	312e332e 			; <UNDEFINED> instruction: 0x312e332e
    1958:	636e692f 	cmnvs	lr, #770048	; 0xbc000
    195c:	6564756c 	strbvs	r7, [r4, #-1388]!	; 0xfffffa94
    1960:	75622f00 	strbvc	r2, [r2, #-3840]!	; 0xfffff100
    1964:	2f646c69 	svccs	0x00646c69
    1968:	6c77656e 	cfldr64vs	mvdx6, [r7], #-440	; 0xfffffe48
    196c:	702d6269 	eorvc	r6, sp, r9, ror #4
    1970:	64303342 	ldrtvs	r3, [r0], #-834	; 0xfffffcbe
    1974:	656e2f65 	strbvs	r2, [lr, #-3941]!	; 0xfffff09b
    1978:	62696c77 	rsbvs	r6, r9, #30464	; 0x7700
    197c:	332e332d 			; <UNDEFINED> instruction: 0x332e332d
    1980:	6e2f302e 	cdpvs	0, 2, cr3, cr15, cr14, {1}
    1984:	696c7765 	stmdbvs	ip!, {r0, r2, r5, r6, r8, r9, sl, ip, sp, lr}^
    1988:	696c2f62 	stmdbvs	ip!, {r1, r5, r6, r8, r9, sl, fp, sp}^
    198c:	692f6362 	stmdbvs	pc!, {r1, r5, r6, r8, r9, sp, lr}	; <UNPREDICTABLE>
    1990:	756c636e 	strbvc	r6, [ip, #-878]!	; 0xfffffc92
    1994:	732f6564 			; <UNDEFINED> instruction: 0x732f6564
    1998:	2f007379 	svccs	0x00007379
    199c:	6c697562 	cfstr64vs	mvdx7, [r9], #-392	; 0xfffffe78
    19a0:	656e2f64 	strbvs	r2, [lr, #-3940]!	; 0xfffff09c
    19a4:	62696c77 	rsbvs	r6, r9, #30464	; 0x7700
    19a8:	3342702d 	movtcc	r7, #8237	; 0x202d
    19ac:	2f656430 	svccs	0x00656430
    19b0:	6c77656e 	cfldr64vs	mvdx6, [r7], #-440	; 0xfffffe48
    19b4:	332d6269 			; <UNDEFINED> instruction: 0x332d6269
    19b8:	302e332e 	eorcc	r3, lr, lr, lsr #6
    19bc:	77656e2f 	strbvc	r6, [r5, -pc, lsr #28]!
    19c0:	2f62696c 	svccs	0x0062696c
    19c4:	6362696c 	cmnvs	r2, #108, 18	; 0x1b0000
    19c8:	636e692f 	cmnvs	lr, #770048	; 0xbc000
    19cc:	6564756c 	strbvs	r7, [r4, #-1388]!	; 0xfffffa94
    19d0:	616d0000 	cmnvs	sp, r0
    19d4:	636f6c6c 	cmnvs	pc, #108, 24	; 0x6c00
    19d8:	00632e72 	rsbeq	r2, r3, r2, ror lr
    19dc:	73000001 	movwvc	r0, #1
    19e0:	65646474 	strbvs	r6, [r4, #-1140]!	; 0xfffffb8c
    19e4:	00682e66 	rsbeq	r2, r8, r6, ror #28
    19e8:	5f000002 	svcpl	0x00000002
    19ec:	65707974 	ldrbvs	r7, [r0, #-2420]!	; 0xfffff68c
    19f0:	00682e73 	rsbeq	r2, r8, r3, ror lr
    19f4:	72000003 	andvc	r0, r0, #3
    19f8:	746e6565 	strbtvc	r6, [lr], #-1381	; 0xfffffa9b
    19fc:	0300682e 	movweq	r6, #2094	; 0x82e
    1a00:	6f6c0000 	svcvs	0x006c0000
    1a04:	682e6b63 	stmdavs	lr!, {r0, r1, r5, r6, r8, r9, fp, sp, lr}
    1a08:	00000300 	andeq	r0, r0, r0, lsl #6
    1a0c:	6e656572 	mcrvs	5, 3, r6, cr5, cr2, {3}
    1a10:	00682e74 	rsbeq	r2, r8, r4, ror lr
    1a14:	00000004 	andeq	r0, r0, r4
    1a18:	05000105 	streq	r0, [r0, #-261]	; 0xfffffefb
    1a1c:	000a4802 	andeq	r4, sl, r2, lsl #16
    1a20:	19f10300 	ldmibne	r1!, {r8, r9}^
    1a24:	13030501 	movwne	r0, #13569	; 0x3501
    1a28:	14131313 	ldrne	r1, [r3], #-787	; 0xfffffced
    1a2c:	06010514 			; <UNDEFINED> instruction: 0x06010514
    1a30:	20017803 	andcs	r7, r1, r3, lsl #16
    1a34:	06360305 	ldrteq	r0, [r6], -r5, lsl #6
    1a38:	060e0530 			; <UNDEFINED> instruction: 0x060e0530
    1a3c:	2e0c0501 	cfsh32cs	mvfx0, mvfx12, #1
    1a40:	3d060305 	stccc	3, cr0, [r6, #-20]	; 0xffffffec
    1a44:	01062605 	tsteq	r6, r5, lsl #12
    1a48:	2e34052e 	cdpcs	5, 3, cr0, cr4, cr14, {1}
    1a4c:	05203d05 	streq	r3, [r0, #-3333]!	; 0xfffff2fb
    1a50:	42052206 	andmi	r2, r5, #1610612736	; 0x60000000
    1a54:	0603051e 			; <UNDEFINED> instruction: 0x0603051e
    1a58:	06060522 	streq	r0, [r6], -r2, lsr #10
    1a5c:	06050501 	streq	r0, [r5], -r1, lsl #10
    1a60:	052e0903 	streq	r0, [lr, #-2307]!	; 0xfffff6fd
    1a64:	0501061b 	streq	r0, [r1, #-1563]	; 0xfffff9e5
    1a68:	054b0605 	strbeq	r0, [fp, #-1541]	; 0xfffff9fb
    1a6c:	05010625 	streq	r0, [r1, #-1573]	; 0xfffff9db
    1a70:	05052e08 	streq	r2, [r5, #-3592]	; 0xfffff1f8
    1a74:	2e780306 	cdpcs	3, 7, cr0, cr8, cr6, {0}
    1a78:	060c053d 			; <UNDEFINED> instruction: 0x060c053d
    1a7c:	03010501 	movweq	r0, #5377	; 0x1501
    1a80:	0501202b 	streq	r2, [r1, #-43]	; 0xffffffd5
    1a84:	64030607 	strvs	r0, [r3], #-1543	; 0xfffff9f9
    1a88:	06190520 	ldreq	r0, [r9], -r0, lsr #10
    1a8c:	07052001 	streq	r2, [r5, -r1]
    1a90:	0a053e06 	beq	1512b0 <__data_load__+0x150450>
    1a94:	09050106 	stmdbeq	r5, {r1, r2, r8}
    1a98:	2e120306 	cdpcs	3, 1, cr0, cr2, cr6, {0}
    1a9c:	2f063c06 	svccs	0x00063c06
    1aa0:	01061405 	tsteq	r6, r5, lsl #8
    1aa4:	05220205 	streq	r0, [r2, #-517]!	; 0xfffffdfb
    1aa8:	052e1e14 	streq	r1, [lr, #-3604]!	; 0xfffff1ec
    1aac:	05210619 	streq	r0, [r1, #-1561]!	; 0xfffff9e7
    1ab0:	09051302 	stmdbeq	r5, {r1, r8, r9, ip}
    1ab4:	0610052f 	ldreq	r0, [r0], -pc, lsr #10
    1ab8:	06090501 	streq	r0, [r9], -r1, lsl #10
    1abc:	052e6d03 	streq	r6, [lr, #-3331]!	; 0xfffff2fd
    1ac0:	2e01061f 	mcrcs	6, 0, r0, cr1, cr15, {0}
    1ac4:	2f060905 	svccs	0x00060905
    1ac8:	01062905 	tsteq	r6, r5, lsl #18
    1acc:	05201205 	streq	r1, [r0, #-517]!	; 0xfffffdfb
    1ad0:	05210609 	streq	r0, [r1, #-1545]!	; 0xfffff9f7
    1ad4:	0501060c 	streq	r0, [r1, #-1548]	; 0xfffff9f4
    1ad8:	0530060b 	ldreq	r0, [r0, #-1547]!	; 0xfffff9f5
    1adc:	05010624 	streq	r0, [r1, #-1572]	; 0xfffff9dc
    1ae0:	0b053c16 	bleq	150b40 <__data_load__+0x14fce0>
    1ae4:	2e062f06 	cdpcs	15, 0, cr2, cr6, cr6, {0}
    1ae8:	03060105 	movweq	r0, #24837	; 0x6105
    1aec:	059e7aac 	ldreq	r7, [lr, #2732]	; 0xaac
    1af0:	13131903 	tstne	r3, #49152	; 0xc000
    1af4:	13131313 	tstne	r3, #1275068416	; 0x4c000000
    1af8:	14131313 	ldrne	r1, [r3], #-787	; 0xfffffced
    1afc:	03060105 	movweq	r0, #24837	; 0x6105
    1b00:	0605016e 	streq	r0, [r5], -lr, ror #2
    1b04:	05581203 	ldrbeq	r1, [r8, #-515]	; 0xfffffdfd
    1b08:	30310603 	eorscc	r0, r1, r3, lsl #12
    1b0c:	01060505 	tsteq	r6, r5, lsl #10
    1b10:	2f060305 	svccs	0x00060305
    1b14:	01060605 	tsteq	r6, r5, lsl #12
    1b18:	03061705 	movweq	r1, #26373	; 0x6705
    1b1c:	0305200b 	movweq	r2, #20491	; 0x500b
    1b20:	06060514 			; <UNDEFINED> instruction: 0x06060514
    1b24:	300a0501 	andcc	r0, sl, r1, lsl #10
    1b28:	051e0605 	ldreq	r0, [lr, #-1541]	; 0xfffff9fb
    1b2c:	05210603 	streq	r0, [r1, #-1539]!	; 0xfffff9fd
    1b30:	05010608 	streq	r0, [r1, #-1544]	; 0xfffff9f8
    1b34:	05210603 	streq	r0, [r1, #-1539]!	; 0xfffff9fd
    1b38:	0501060a 	streq	r0, [r1, #-1546]	; 0xfffff9f6
    1b3c:	0a05300f 	beq	14db80 <__data_load__+0x14cd20>
    1b40:	0603051e 			; <UNDEFINED> instruction: 0x0603051e
    1b44:	06060522 	streq	r0, [r6], -r2, lsr #10
    1b48:	03052001 	movweq	r2, #20481	; 0x5001
    1b4c:	2e140306 	cdpcs	3, 1, cr0, cr4, cr6, {0}
    1b50:	06051430 			; <UNDEFINED> instruction: 0x06051430
    1b54:	05050106 	streq	r0, [r5, #-262]	; 0xfffffefa
    1b58:	08053006 	stmdaeq	r5, {r1, r2, ip, sp}
    1b5c:	0c051606 	stceq	6, cr1, [r5], {6}
    1b60:	0605052a 	streq	r0, [r5], -sl, lsr #10
    1b64:	06080521 	streq	r0, [r8], -r1, lsr #10
    1b68:	1d070515 	cfstr32ne	mvfx0, [r7, #-84]	; 0xffffffac
    1b6c:	21060505 	tstcs	r6, r5, lsl #10
    1b70:	01060805 	tsteq	r6, r5, lsl #16
    1b74:	22060505 	andcs	r0, r6, #20971520	; 0x1400000
    1b78:	01060a05 	tsteq	r6, r5, lsl #20
    1b7c:	05200805 	streq	r0, [r0, #-2053]!	; 0xfffff7fb
    1b80:	20310607 	eorscs	r0, r1, r7, lsl #12
    1b84:	1a052001 	bne	149b90 <__data_load__+0x148d30>
    1b88:	15030520 	strne	r0, [r3, #-1312]	; 0xfffffae0
    1b8c:	01060905 	tsteq	r6, r5, lsl #18
    1b90:	06052020 	streq	r2, [r5], -r0, lsr #32
    1b94:	06050520 	streq	r0, [r5], -r0, lsr #10
    1b98:	06160530 			; <UNDEFINED> instruction: 0x06160530
    1b9c:	200f0514 	andcs	r0, pc, r4, lsl r5	; <UNPREDICTABLE>
    1ba0:	051e0805 	ldreq	r0, [lr, #-2053]	; 0xfffff7fb
    1ba4:	05220605 	streq	r0, [r2, #-1541]!	; 0xfffff9fb
    1ba8:	0501060f 	streq	r0, [r1, #-1551]	; 0xfffff9f1
    1bac:	20420607 	subcs	r0, r2, r7, lsl #12
    1bb0:	1d052001 	stcne	0, cr2, [r5, #-4]
    1bb4:	16030520 	strne	r0, [r3], -r0, lsr #10
    1bb8:	2f062006 	svccs	0x00062006
    1bbc:	031a0521 	tsteq	sl, #138412032	; 0x8400000
    1bc0:	0305206d 	movweq	r2, #20589	; 0x506d
    1bc4:	06090515 			; <UNDEFINED> instruction: 0x06090515
    1bc8:	06052001 	streq	r2, [r5], -r1
    1bcc:	061d0520 	ldreq	r0, [sp], -r0, lsr #10
    1bd0:	052e0a03 	streq	r0, [lr, #-2563]!	; 0xfffff5fd
    1bd4:	212f1603 			; <UNDEFINED> instruction: 0x212f1603
    1bd8:	00130505 	andseq	r0, r3, r5, lsl #10
    1bdc:	4a010402 	bmi	42bec <__data_load__+0x41d8c>
    1be0:	01040200 	mrseq	r0, R12_usr
    1be4:	0402002e 	streq	r0, [r2], #-46	; 0xffffffd2
    1be8:	00200601 	eoreq	r0, r0, r1, lsl #12
    1bec:	3c010402 	cfstrscc	mvf0, [r1], {2}
    1bf0:	01040200 	mrseq	r0, R12_usr
    1bf4:	02002e06 	andeq	r2, r0, #6, 28	; 0x60
    1bf8:	00010104 	andeq	r0, r1, r4, lsl #2
    1bfc:	2e010402 	cdpcs	4, 0, cr0, cr1, cr2, {0}
    1c00:	01040200 	mrseq	r0, R12_usr
    1c04:	04020020 	streq	r0, [r2], #-32	; 0xffffffe0
    1c08:	5b032001 	blpl	c9c14 <__data_load__+0xc8db4>
    1c0c:	01053d2e 	tsteq	r5, lr, lsr #26
    1c10:	01290306 			; <UNDEFINED> instruction: 0x01290306
    1c14:	00050501 	andeq	r0, r5, r1, lsl #10
    1c18:	06020402 	streq	r0, [r2], -r2, lsl #8
    1c1c:	04020037 	streq	r0, [r2], #-55	; 0xffffffc9
    1c20:	003c0607 	eorseq	r0, ip, r7, lsl #12
    1c24:	061a0402 	ldreq	r0, [sl], -r2, lsl #8
    1c28:	04020058 	streq	r0, [r2], #-88	; 0xffffffa8
    1c2c:	02003c1a 	andeq	r3, r0, #6656	; 0x1a00
    1c30:	00011a04 	andeq	r1, r1, r4, lsl #20
    1c34:	061a0402 	ldreq	r0, [sl], -r2, lsl #8
    1c38:	04020020 	streq	r0, [r2], #-32	; 0xffffffe0
    1c3c:	02002e20 	andeq	r2, r0, #32, 28	; 0x200
    1c40:	4a062204 	bmi	18a458 <__data_load__+0x1895f8>
    1c44:	22040200 	andcs	r0, r4, #0, 4
    1c48:	04020020 	streq	r0, [r2], #-32	; 0xffffffe0
    1c4c:	02002e23 	andeq	r2, r0, #560	; 0x230
    1c50:	00202404 	eoreq	r2, r0, r4, lsl #8
    1c54:	20240402 	eorcs	r0, r4, r2, lsl #8
    1c58:	24040200 	strcs	r0, [r4], #-512	; 0xfffffe00
    1c5c:	031a0520 	tsteq	sl, #32, 10	; 0x8000000
    1c60:	03053c6c 	movweq	r3, #23660	; 0x5c6c
    1c64:	06090515 			; <UNDEFINED> instruction: 0x06090515
    1c68:	3c060501 	cfstr32cc	mvfx0, [r6], {1}
    1c6c:	30060505 	andcc	r0, r6, r5, lsl #10
    1c70:	1a060705 	bne	18388c <__data_load__+0x182a2c>
    1c74:	03080520 	movweq	r0, #34080	; 0x8520
    1c78:	05052078 	streq	r2, [r5, #-120]	; 0xffffff88
    1c7c:	07052206 	streq	r2, [r5, -r6, lsl #4]
    1c80:	05010118 	streq	r0, [r1, #-280]	; 0xfffffee8
    1c84:	05160603 	ldreq	r0, [r6, #-1539]	; 0xfffff9fd
    1c88:	20061c07 	andcs	r1, r6, r7, lsl #24
    1c8c:	05201d05 	streq	r1, [r0, #-3333]!	; 0xfffff2fb
    1c90:	21211603 			; <UNDEFINED> instruction: 0x21211603
    1c94:	4e030505 	cfsh32mi	mvfx0, mvfx3, #5
    1c98:	06080520 	streq	r0, [r8], -r0, lsr #10
    1c9c:	06050501 	streq	r0, [r5], -r1, lsl #10
    1ca0:	06080530 			; <UNDEFINED> instruction: 0x06080530
    1ca4:	06070501 	streq	r0, [r7], -r1, lsl #10
    1ca8:	060e0530 			; <UNDEFINED> instruction: 0x060e0530
    1cac:	06070501 	streq	r0, [r7], -r1, lsl #10
    1cb0:	06090521 	streq	r0, [r9], -r1, lsr #10
    1cb4:	06070501 	streq	r0, [r7], -r1, lsl #10
    1cb8:	05130621 	ldreq	r0, [r3, #-1569]	; 0xfffff9df
    1cbc:	07051f0a 	streq	r1, [r5, -sl, lsl #30]
    1cc0:	01202106 			; <UNDEFINED> instruction: 0x01202106
    1cc4:	001a0520 	andseq	r0, sl, r0, lsr #10
    1cc8:	20010402 	andcs	r0, r1, r2, lsl #8
    1ccc:	02000505 	andeq	r0, r0, #20971520	; 0x1400000
    1cd0:	00150104 	andseq	r0, r5, r4, lsl #2
    1cd4:	3d010402 	cfstrscc	mvf0, [r1, #-8]
    1cd8:	02001d05 	andeq	r1, r0, #320	; 0x140
    1cdc:	13060104 	movwne	r0, #24836	; 0x6104
    1ce0:	02000905 	andeq	r0, r0, #81920	; 0x14000
    1ce4:	051f0104 	ldreq	r0, [pc, #-260]	; 1be8 <__data_load__+0xd88>
    1ce8:	04020005 	streq	r0, [r2], #-5
    1cec:	05210601 	streq	r0, [r1, #-1537]!	; 0xfffff9ff
    1cf0:	04020008 	streq	r0, [r2], #-8
    1cf4:	05010601 	streq	r0, [r1, #-1537]	; 0xfffff9ff
    1cf8:	063d0607 	ldrteq	r0, [sp], -r7, lsl #12
    1cfc:	052e2e20 	streq	r2, [lr, #-3616]!	; 0xfffff1e0
    1d00:	04020005 	streq	r0, [r2], #-5
    1d04:	20260308 	eorcs	r0, r6, r8, lsl #6
    1d08:	0b040200 	bleq	102510 <__data_load__+0x1016b0>
    1d0c:	0402002e 	streq	r0, [r2], #-46	; 0xffffffd2
    1d10:	02002e0d 	andeq	r2, r0, #13, 28	; 0xd0
    1d14:	00660a04 	rsbeq	r0, r6, r4, lsl #20
    1d18:	061c0402 	ldreq	r0, [ip], -r2, lsl #8
    1d1c:	04020058 	streq	r0, [r2], #-88	; 0xffffffa8
    1d20:	0020061c 	eoreq	r0, r0, ip, lsl r6
    1d24:	201c0402 	andscs	r0, ip, r2, lsl #8
    1d28:	1c040200 	sfmne	f0, 4, [r4], {-0}
    1d2c:	06070520 	streq	r0, [r7], -r0, lsr #10
    1d30:	134a7503 	movtne	r7, #42243	; 0xa503
    1d34:	2e1d052e 	cfmul64cs	mvdx0, mvdx13, mvdx14
    1d38:	16030515 			; <UNDEFINED> instruction: 0x16030515
    1d3c:	0505213d 	streq	r2, [r5, #-317]	; 0xfffffec3
    1d40:	0e040200 	cdpeq	2, 0, cr0, cr4, cr0, {0}
    1d44:	02002106 	andeq	r2, r0, #-2147483647	; 0x80000001
    1d48:	004a1004 	subeq	r1, sl, r4
    1d4c:	66110402 	ldrvs	r0, [r1], -r2, lsl #8
    1d50:	13040200 	movwne	r0, #16896	; 0x4200
    1d54:	0402003c 	streq	r0, [r2], #-60	; 0xffffffc4
    1d58:	05206613 	streq	r6, [r0, #-1555]!	; 0xfffff9ed
    1d5c:	7903061d 	stmdbvc	r3, {r0, r2, r3, r4, r9, sl}
    1d60:	1603053c 			; <UNDEFINED> instruction: 0x1603053c
    1d64:	2f062006 	svccs	0x00062006
    1d68:	000c0221 	andeq	r0, ip, r1, lsr #4
    1d6c:	027a0101 	rsbseq	r0, sl, #1073741824	; 0x40000000
    1d70:	00030000 	andeq	r0, r3, r0
    1d74:	0000011b 	andeq	r0, r0, fp, lsl r1
    1d78:	0efb0102 	cdpeq	1, 15, cr0, cr11, cr2, {0}
    1d7c:	0101000d 	tsteq	r1, sp
    1d80:	00000101 	andeq	r0, r0, r1, lsl #2
    1d84:	00000100 	andeq	r0, r0, r0, lsl #2
    1d88:	2f2e2e01 	svccs	0x002e2e01
    1d8c:	2e2f2e2e 	cdpcs	14, 2, cr2, cr15, cr14, {1}
    1d90:	2e2e2f2e 	cdpcs	15, 2, cr2, cr14, cr14, {1}
    1d94:	2f2e2e2f 	svccs	0x002e2e2f
    1d98:	2e2f2e2e 	cdpcs	14, 2, cr2, cr15, cr14, {1}
    1d9c:	2e2e2f2e 	cdpcs	15, 2, cr2, cr14, cr14, {1}
    1da0:	77656e2f 	strbvc	r6, [r5, -pc, lsr #28]!
    1da4:	2f62696c 	svccs	0x0062696c
    1da8:	6362696c 	cmnvs	r2, #108, 18	; 0x1b0000
    1dac:	6565722f 	strbvs	r7, [r5, #-559]!	; 0xfffffdd1
    1db0:	2f00746e 	svccs	0x0000746e
    1db4:	2f727375 	svccs	0x00727375
    1db8:	2f62696c 	svccs	0x0062696c
    1dbc:	2f636367 	svccs	0x00636367
    1dc0:	2d6d7261 	sfmcs	f7, 2, [sp, #-388]!	; 0xfffffe7c
    1dc4:	656e6f6e 	strbvs	r6, [lr, #-3950]!	; 0xfffff092
    1dc8:	6261652d 	rsbvs	r6, r1, #188743680	; 0xb400000
    1dcc:	30312f69 	eorscc	r2, r1, r9, ror #30
    1dd0:	312e332e 			; <UNDEFINED> instruction: 0x312e332e
    1dd4:	636e692f 	cmnvs	lr, #770048	; 0xbc000
    1dd8:	6564756c 	strbvs	r7, [r4, #-1388]!	; 0xfffffa94
    1ddc:	75622f00 	strbvc	r2, [r2, #-3840]!	; 0xfffff100
    1de0:	2f646c69 	svccs	0x00646c69
    1de4:	6c77656e 	cfldr64vs	mvdx6, [r7], #-440	; 0xfffffe48
    1de8:	702d6269 	eorvc	r6, sp, r9, ror #4
    1dec:	64303342 	ldrtvs	r3, [r0], #-834	; 0xfffffcbe
    1df0:	656e2f65 	strbvs	r2, [lr, #-3941]!	; 0xfffff09b
    1df4:	62696c77 	rsbvs	r6, r9, #30464	; 0x7700
    1df8:	332e332d 			; <UNDEFINED> instruction: 0x332e332d
    1dfc:	6e2f302e 	cdpvs	0, 2, cr3, cr15, cr14, {1}
    1e00:	696c7765 	stmdbvs	ip!, {r0, r2, r5, r6, r8, r9, sl, ip, sp, lr}^
    1e04:	696c2f62 	stmdbvs	ip!, {r1, r5, r6, r8, r9, sl, fp, sp}^
    1e08:	692f6362 	stmdbvs	pc!, {r1, r5, r6, r8, r9, sp, lr}	; <UNPREDICTABLE>
    1e0c:	756c636e 	strbvc	r6, [ip, #-878]!	; 0xfffffc92
    1e10:	732f6564 			; <UNDEFINED> instruction: 0x732f6564
    1e14:	2f007379 	svccs	0x00007379
    1e18:	6c697562 	cfstr64vs	mvdx7, [r9], #-392	; 0xfffffe78
    1e1c:	656e2f64 	strbvs	r2, [lr, #-3940]!	; 0xfffff09c
    1e20:	62696c77 	rsbvs	r6, r9, #30464	; 0x7700
    1e24:	3342702d 	movtcc	r7, #8237	; 0x202d
    1e28:	2f656430 	svccs	0x00656430
    1e2c:	6c77656e 	cfldr64vs	mvdx6, [r7], #-440	; 0xfffffe48
    1e30:	332d6269 			; <UNDEFINED> instruction: 0x332d6269
    1e34:	302e332e 	eorcc	r3, lr, lr, lsr #6
    1e38:	77656e2f 	strbvc	r6, [r5, -pc, lsr #28]!
    1e3c:	2f62696c 	svccs	0x0062696c
    1e40:	6362696c 	cmnvs	r2, #108, 18	; 0x1b0000
    1e44:	636e692f 	cmnvs	lr, #770048	; 0xbc000
    1e48:	6564756c 	strbvs	r7, [r4, #-1388]!	; 0xfffffa94
    1e4c:	65720000 	ldrbvs	r0, [r2, #-0]!
    1e50:	2e746e65 	cdpcs	14, 7, cr6, cr4, cr5, {3}
    1e54:	00010063 	andeq	r0, r1, r3, rrx
    1e58:	64747300 	ldrbtvs	r7, [r4], #-768	; 0xfffffd00
    1e5c:	2e666564 	cdpcs	5, 6, cr6, cr6, cr4, {3}
    1e60:	00020068 	andeq	r0, r2, r8, rrx
    1e64:	79745f00 	ldmdbvc	r4!, {r8, r9, sl, fp, ip, lr}^
    1e68:	2e736570 	mrccs	5, 3, r6, cr3, cr0, {3}
    1e6c:	00030068 	andeq	r0, r3, r8, rrx
    1e70:	65657200 	strbvs	r7, [r5, #-512]!	; 0xfffffe00
    1e74:	682e746e 	stmdavs	lr!, {r1, r2, r3, r5, r6, sl, ip, sp, lr}
    1e78:	00000300 	andeq	r0, r0, r0, lsl #6
    1e7c:	6b636f6c 	blvs	18ddc34 <_bsl_base_address+0x16dbc34>
    1e80:	0300682e 	movweq	r6, #2094	; 0x82e
    1e84:	74730000 	ldrbtvc	r0, [r3], #-0
    1e88:	62696c64 	rsbvs	r6, r9, #100, 24	; 0x6400
    1e8c:	0400682e 	streq	r6, [r0], #-2094	; 0xfffff7d2
    1e90:	05000000 	streq	r0, [r0, #-0]
    1e94:	02050001 	andeq	r0, r5, #1
    1e98:	00000ca8 	andeq	r0, r0, r8, lsr #25
    1e9c:	05012203 	streq	r2, [r1, #-515]	; 0xfffffdfd
    1ea0:	01051403 	tsteq	r5, r3, lsl #8
    1ea4:	0b051006 	bleq	145ec4 <__data_load__+0x145064>
    1ea8:	1e010530 	cfmv64hrne	mvdx1, r0
    1eac:	053e0605 	ldreq	r0, [lr, #-1541]!	; 0xfffff9fb
    1eb0:	052f0605 	streq	r0, [pc, #-1541]!	; 18b3 <__data_load__+0xa53>
    1eb4:	03050d01 	movweq	r0, #23809	; 0x5d01
    1eb8:	060b0516 			; <UNDEFINED> instruction: 0x060b0516
    1ebc:	20060501 	andcs	r0, r6, r1, lsl #10
    1ec0:	2f060505 	svccs	0x00060505
    1ec4:	050d0105 	streq	r0, [sp, #-261]	; 0xfffffefb
    1ec8:	0b051603 	bleq	1476dc <__data_load__+0x14687c>
    1ecc:	06050106 	streq	r0, [r5], -r6, lsl #2
    1ed0:	0605052e 	streq	r0, [r5], -lr, lsr #10
    1ed4:	0d01052f 	cfstr32eq	mvfx0, [r1, #-188]	; 0xffffff44
    1ed8:	05160305 	ldreq	r0, [r6, #-773]	; 0xfffffcfb
    1edc:	0501060b 	streq	r0, [r1, #-1547]	; 0xfffff9f5
    1ee0:	05052006 	streq	r2, [r5, #-6]
    1ee4:	03052f06 	movweq	r2, #24326	; 0x5f06
    1ee8:	064a0630 			; <UNDEFINED> instruction: 0x064a0630
    1eec:	064a0601 	strbeq	r0, [sl], -r1, lsl #12
    1ef0:	064a0601 	strbeq	r0, [sl], -r1, lsl #12
    1ef4:	06010501 	streq	r0, [r1], -r1, lsl #10
    1ef8:	11030513 	tstne	r3, r3, lsl r5
    1efc:	064b0105 	strbeq	r0, [fp], -r5, lsl #2
    1f00:	1303054e 	movwne	r0, #13646	; 0x354e
    1f04:	01060b05 	tsteq	r6, r5, lsl #22
    1f08:	051f0105 	ldreq	r0, [pc, #-261]	; 1e0b <__data_load__+0xfab>
    1f0c:	01052106 	tsteq	r5, r6, lsl #2
    1f10:	2106051f 	tstcs	r6, pc, lsl r5
    1f14:	35060705 	strcc	r0, [r6, #-1797]	; 0xfffff8fb
    1f18:	01060b05 	tsteq	r6, r5, lsl #22
    1f1c:	05200a05 	streq	r0, [r0, #-2565]!	; 0xfffff5fb
    1f20:	14410608 	strbne	r0, [r1], #-1544	; 0xfffff9f8
    1f24:	01061005 	tsteq	r6, r5
    1f28:	21060805 	tstcs	r6, r5, lsl #16
    1f2c:	05010e05 	streq	r0, [r1, #-3589]	; 0xfffff1fb
    1f30:	05133005 	ldreq	r3, [r3, #-5]
    1f34:	0520060d 	streq	r0, [r0, #-1549]!	; 0xfffff9f3
    1f38:	05210605 	streq	r0, [r1, #-1541]!	; 0xfffff9fb
    1f3c:	1205380e 	andne	r3, r5, #917504	; 0xe0000
    1f40:	1b053606 	blne	14f760 <__data_load__+0x14e900>
    1f44:	02040200 	andeq	r0, r4, #0, 4
    1f48:	20730306 	rsbscs	r0, r3, r6, lsl #6
    1f4c:	02001005 	andeq	r1, r0, #5
    1f50:	05010204 	streq	r0, [r1, #-516]	; 0xfffffdfc
    1f54:	04020004 	streq	r0, [r2], #-4
    1f58:	06010602 	streq	r0, [r1], -r2, lsl #12
    1f5c:	063c0d03 	ldrteq	r0, [ip], -r3, lsl #26
    1f60:	0607053c 			; <UNDEFINED> instruction: 0x0607053c
    1f64:	060b0514 			; <UNDEFINED> instruction: 0x060b0514
    1f68:	200a0501 	andcs	r0, sl, r1, lsl #10
    1f6c:	2f060205 	svccs	0x00060205
    1f70:	1c030705 	stcne	7, cr0, [r3], {5}
    1f74:	060f053c 			; <UNDEFINED> instruction: 0x060f053c
    1f78:	3c0a0501 	cfstr32cc	mvfx0, [sl], {1}
    1f7c:	02002e05 	andeq	r2, r0, #5, 28	; 0x50
    1f80:	052e0104 	streq	r0, [lr, #-260]!	; 0xfffffefc
    1f84:	0402001a 	streq	r0, [r2], #-26	; 0xffffffe6
    1f88:	08053c01 	stmdaeq	r5, {r0, sl, fp, ip, sp}
    1f8c:	05133306 	ldreq	r3, [r3, #-774]	; 0xfffffcfa
    1f90:	0520060a 	streq	r0, [r0, #-1546]!	; 0xfffff9f6
    1f94:	05210608 	streq	r0, [r1, #-1544]!	; 0xfffff9f8
    1f98:	0405381b 	streq	r3, [r5], #-2075	; 0xfffff7e5
    1f9c:	052e0106 	streq	r0, [lr, #-262]!	; 0xfffffefa
    1fa0:	0a030607 	beq	c37c4 <__data_load__+0xc2964>
    1fa4:	060e0501 	streq	r0, [lr], -r1, lsl #10
    1fa8:	200a0501 	andcs	r0, sl, r1, lsl #10
    1fac:	2f060205 	svccs	0x00060205
    1fb0:	05430705 	strbeq	r0, [r3, #-1797]	; 0xfffff8fb
    1fb4:	0501060a 	streq	r0, [r1, #-1546]	; 0xfffff9f6
    1fb8:	3e400604 	cdpcc	6, 4, cr0, cr0, cr4, {0}
    1fbc:	01061405 	tsteq	r6, r5, lsl #8
    1fc0:	053c0705 	ldreq	r0, [ip, #-1797]!	; 0xfffff8fb
    1fc4:	052f0606 	streq	r0, [pc, #-1542]!	; 19c6 <__data_load__+0xb66>
    1fc8:	7fa10301 	svcvc	0x00a10301
    1fcc:	16030501 	strne	r0, [r3], -r1, lsl #10
    1fd0:	01060b05 	tsteq	r6, r5, lsl #22
    1fd4:	05200605 	streq	r0, [r0, #-1541]!	; 0xfffff9fb
    1fd8:	052f0605 	streq	r0, [pc, #-1541]!	; 19db <__data_load__+0xb7b>
    1fdc:	4a063e03 	bmi	1917f0 <__data_load__+0x190990>
    1fe0:	de030105 	adfles	f0, f3, f5
    1fe4:	02010100 	andeq	r0, r1, #0, 2
    1fe8:	01010003 	tsteq	r1, r3
    1fec:	00000082 	andeq	r0, r0, r2, lsl #1
    1ff0:	00440003 	subeq	r0, r4, r3
    1ff4:	01020000 	mrseq	r0, (UNDEF: 2)
    1ff8:	000d0efb 	strdeq	r0, [sp], -fp
    1ffc:	01010101 	tsteq	r1, r1, lsl #2
    2000:	01000000 	mrseq	r0, (UNDEF: 0)
    2004:	2e010000 	cdpcs	0, 0, cr0, cr1, cr0, {0}
    2008:	2e2e2f2e 	cdpcs	15, 2, cr2, cr14, cr14, {1}
    200c:	2f2e2e2f 	svccs	0x002e2e2f
    2010:	2e2f2e2e 	cdpcs	14, 2, cr2, cr15, cr14, {1}
    2014:	2e2e2f2e 	cdpcs	15, 2, cr2, cr14, cr14, {1}
    2018:	2f2e2e2f 	svccs	0x002e2e2f
    201c:	6762696c 	strbvs	r6, [r2, -ip, ror #18]!
    2020:	73736f6c 	cmnvc	r3, #108, 30	; 0x1b0
    2024:	62696c2f 	rsbvs	r6, r9, #12032	; 0x2f00
    2028:	79736f6e 	ldmdbvc	r3!, {r1, r2, r3, r5, r6, r8, r9, sl, fp, sp, lr}^
    202c:	73000073 	movwvc	r0, #115	; 0x73
    2030:	2e6b7262 	cdpcs	2, 6, cr7, cr11, cr2, {3}
    2034:	00010063 	andeq	r0, r1, r3, rrx
    2038:	01050000 	mrseq	r0, (UNDEF: 5)
    203c:	98020500 	stmdals	r2, {r8, sl}
    2040:	1a00000d 	bne	207c <__data_load__+0x121c>
    2044:	13130405 	tstne	r3, #83886080	; 0x5000000
    2048:	11051413 	tstne	r5, r3, lsl r4
    204c:	01050106 	tsteq	r5, r6, lsl #2
    2050:	2511051b 	ldrcs	r0, [r1, #-1307]	; 0xfffffae5
    2054:	05200705 	streq	r0, [r0, #-1797]!	; 0xfffff8fb
    2058:	13310604 	teqne	r1, #4, 12	; 0x400000
    205c:	15060105 	strne	r0, [r6, #-261]	; 0xfffffefb
    2060:	200f0d05 	andcs	r0, pc, r5, lsl #26
    2064:	22060405 	andcs	r0, r6, #83886080	; 0x5000000
    2068:	13060105 	movwne	r0, #24837	; 0x6105
    206c:	00060220 	andeq	r0, r6, r0, lsr #4
    2070:	00710101 	rsbseq	r0, r1, r1, lsl #2
    2074:	00030000 	andeq	r0, r3, r0
    2078:	00000045 	andeq	r0, r0, r5, asr #32
    207c:	0efb0102 	cdpeq	1, 15, cr0, cr11, cr2, {0}
    2080:	0101000d 	tsteq	r1, sp
    2084:	00000101 	andeq	r0, r0, r1, lsl #2
    2088:	00000100 	andeq	r0, r0, r0, lsl #2
    208c:	2f2e2e01 	svccs	0x002e2e01
    2090:	2e2f2e2e 	cdpcs	14, 2, cr2, cr15, cr14, {1}
    2094:	2e2e2f2e 	cdpcs	15, 2, cr2, cr14, cr14, {1}
    2098:	2f2e2e2f 	svccs	0x002e2e2f
    209c:	2e2f2e2e 	cdpcs	14, 2, cr2, cr15, cr14, {1}
    20a0:	696c2f2e 	stmdbvs	ip!, {r1, r2, r3, r5, r8, r9, sl, fp, sp}^
    20a4:	6f6c6762 	svcvs	0x006c6762
    20a8:	6c2f7373 	stcvs	3, cr7, [pc], #-460	; 1ee4 <__data_load__+0x1084>
    20ac:	6f6e6269 	svcvs	0x006e6269
    20b0:	00737973 	rsbseq	r7, r3, r3, ror r9
    20b4:	78655f00 	stmdavc	r5!, {r8, r9, sl, fp, ip, lr}^
    20b8:	632e7469 			; <UNDEFINED> instruction: 0x632e7469
    20bc:	00000100 	andeq	r0, r0, r0, lsl #2
    20c0:	00010500 	andeq	r0, r1, r0, lsl #10
    20c4:	0db40205 	lfmeq	f0, 4, [r4, #20]!
    20c8:	09030000 	stmdbeq	r3, {}	; <UNPREDICTABLE>
    20cc:	00030501 	andeq	r0, r3, r1, lsl #10
    20d0:	18010402 	stmdane	r1, {r1, sl}
    20d4:	02000505 	andeq	r0, r0, #20971520	; 0x1400000
    20d8:	05130104 	ldreq	r0, [r3, #-260]	; 0xfffffefc
    20dc:	04020009 	streq	r0, [r2], #-9
    20e0:	01021101 	tsteq	r2, r1, lsl #2
    20e4:	Address 0x00000000000020e4 is out of bounds.


Disassembly of section .debug_info:

00000000 <.debug_info>:
       0:	00000022 	andeq	r0, r0, r2, lsr #32
       4:	00000002 	andeq	r0, r0, r2
       8:	01040000 	mrseq	r0, (UNDEF: 4)
       c:	00000000 	andeq	r0, r0, r0
      10:	00000098 	muleq	r0, r8, r0
      14:	0000010c 	andeq	r0, r0, ip, lsl #2
      18:	00000000 	andeq	r0, r0, r0
      1c:	0000002c 	andeq	r0, r0, ip, lsr #32
      20:	00000088 	andeq	r0, r0, r8, lsl #1
      24:	00fc8001 	rscseq	r8, ip, r1
      28:	00040000 	andeq	r0, r4, r0
      2c:	00000014 	andeq	r0, r0, r4, lsl r0
      30:	016c0104 	cmneq	ip, r4, lsl #2
      34:	bf0c0000 	svclt	0x000c0000
      38:	f3000000 	vhadd.u8	d0, d0, d0
      3c:	d4000000 	strle	r0, [r0], #-0
      40:	10000001 	andne	r0, r0, r1
      44:	8c000000 	stchi	0, cr0, [r0], {-0}
      48:	02000000 	andeq	r0, r0, #0
      4c:	01560704 	cmpeq	r6, r4, lsl #14
      50:	04030000 	streq	r0, [r3], #-0
      54:	746e6905 	strbtvc	r6, [lr], #-2309	; 0xfffff6fb
      58:	05080200 	streq	r0, [r8, #-512]	; 0xfffffe00
      5c:	00000094 	muleq	r0, r4, r0
      60:	03040802 	movweq	r0, #18434	; 0x4802
      64:	02000002 	andeq	r0, r0, #2
      68:	00b30601 	adcseq	r0, r3, r1, lsl #12
      6c:	01020000 	mrseq	r0, (UNDEF: 2)
      70:	0000b108 	andeq	fp, r0, r8, lsl #2
      74:	05020200 	streq	r0, [r2, #-512]	; 0xfffffe00
      78:	0000020f 	andeq	r0, r0, pc, lsl #4
      7c:	f0070202 			; <UNDEFINED> instruction: 0xf0070202
      80:	02000001 	andeq	r0, r0, #1
      84:	00990504 	addseq	r0, r9, r4, lsl #10
      88:	04020000 	streq	r0, [r2], #-0
      8c:	00015107 	andeq	r5, r1, r7, lsl #2
      90:	07080200 	streq	r0, [r8, -r0, lsl #4]
      94:	0000014c 	andeq	r0, r0, ip, asr #2
      98:	00780404 	rsbseq	r0, r8, r4, lsl #8
      9c:	02050000 	andeq	r0, r5, #0
      a0:	00ba0801 	adcseq	r0, sl, r1, lsl #16
      a4:	a2060000 	andge	r0, r6, #0
      a8:	07000000 	streq	r0, [r0, -r0]
      ac:	00004801 	andeq	r4, r0, r1, lsl #16
      b0:	06050200 	streq	r0, [r5], -r0, lsl #4
      b4:	000000a5 	andeq	r0, r0, r5, lsr #1
      b8:	00021907 	andeq	r1, r2, r7, lsl #18
      bc:	25070000 	strcs	r0, [r7, #-0]
      c0:	01000002 	tsteq	r0, r2
      c4:	00016307 	andeq	r6, r1, r7, lsl #6
      c8:	08000200 	stmdaeq	r0, {r9}
      cc:	0000021e 	andeq	r0, r0, lr, lsl r2
      d0:	2c054c03 	stccs	12, cr4, [r5], {3}
      d4:	d4000000 	strle	r0, [r0], #-0
      d8:	10000001 	andne	r0, r0, r1
      dc:	01000000 	mrseq	r0, (UNDEF: 0)
      e0:	0000f39c 	muleq	r0, ip, r3
      e4:	6e660900 	vmulvs.f16	s1, s12, s0	; <UNPREDICTABLE>
      e8:	10380100 	eorsne	r0, r8, r0, lsl #2
      ec:	00000072 	andeq	r0, r0, r2, ror r0
      f0:	00000006 	andeq	r0, r0, r6
      f4:	00000000 	andeq	r0, r0, r0
      f8:	0001e20a 	andeq	lr, r1, sl, lsl #4
      fc:	0000f300 	andeq	pc, r0, r0, lsl #6
     100:	50010b00 	andpl	r0, r1, r0, lsl #22
     104:	010b3001 	tsteq	fp, r1
     108:	01f30351 	mvnseq	r0, r1, asr r3
     10c:	52010b50 	andpl	r0, r1, #80, 22	; 0x14000
     110:	010b3001 	tsteq	fp, r1
     114:	00300153 	eorseq	r0, r0, r3, asr r1
     118:	01dc0c00 	bicseq	r0, ip, r0, lsl #24
     11c:	01dc0000 	bicseq	r0, ip, r0
     120:	0d020000 	stceq	0, cr0, [r2, #-0]
     124:	09650005 	stmdbeq	r5!, {r0, r2}^
     128:	00040000 	andeq	r0, r4, r0
     12c:	000000c8 	andeq	r0, r0, r8, asr #1
     130:	016c0104 	cmneq	ip, r4, lsl #2
     134:	700c0000 	andvc	r0, ip, r0
     138:	f3000004 	vhadd.u8	d0, d0, d4
     13c:	e4000000 	str	r0, [r0], #-0
     140:	20000001 	andcs	r0, r0, r1
     144:	4f000000 	svcmi	0x00000000
     148:	02000001 	andeq	r0, r0, #1
     14c:	01560704 	cmpeq	r6, r4, lsl #14
     150:	04030000 	streq	r0, [r3], #-0
     154:	746e6905 	strbtvc	r6, [lr], #-2309	; 0xfffff6fb
     158:	05080200 	streq	r0, [r8, #-512]	; 0xfffffe00
     15c:	00000094 	muleq	r0, r4, r0
     160:	03040802 	movweq	r0, #18434	; 0x4802
     164:	04000002 	streq	r0, [r0], #-2
     168:	000003d5 	ldrdeq	r0, [r0], -r5
     16c:	17015e02 	strne	r5, [r1, -r2, lsl #28]
     170:	00000025 	andeq	r0, r0, r5, lsr #32
     174:	b3060102 	movwlt	r0, #24834	; 0x6102
     178:	02000000 	andeq	r0, r0, #0
     17c:	00b10801 	adcseq	r0, r1, r1, lsl #16
     180:	02020000 	andeq	r0, r2, #0
     184:	00020f05 	andeq	r0, r2, r5, lsl #30
     188:	07020200 	streq	r0, [r2, -r0, lsl #4]
     18c:	000001f0 	strdeq	r0, [r0], -r0	; <UNPREDICTABLE>
     190:	99050402 	stmdbls	r5, {r1, sl}
     194:	02000000 	andeq	r0, r0, #0
     198:	01510704 	cmpeq	r1, r4, lsl #14
     19c:	08020000 	stmdaeq	r2, {}	; <UNPREDICTABLE>
     1a0:	00014c07 	andeq	r4, r1, r7, lsl #24
     1a4:	04100500 	ldreq	r0, [r0], #-1280	; 0xfffffb00
     1a8:	2e030000 	cdpcs	0, 0, cr0, cr3, cr0, {0}
     1ac:	00006a0e 	andeq	r6, r0, lr, lsl #20
     1b0:	052f0500 	streq	r0, [pc, #-1280]!	; fffffcb8 <__stack+0xdffff3e0>
     1b4:	74030000 	strvc	r0, [r3], #-0
     1b8:	00006a0e 	andeq	r6, r0, lr, lsl #20
     1bc:	03040600 	movweq	r0, #17920	; 0x4600
     1c0:	00b903a5 	adcseq	r0, r9, r5, lsr #7
     1c4:	cf070000 	svcgt	0x00070000
     1c8:	03000003 	movweq	r0, #3
     1cc:	00410ca7 	subeq	r0, r1, r7, lsr #25
     1d0:	81070000 	mrshi	r0, (UNDEF: 7)
     1d4:	03000003 	movweq	r0, #3
     1d8:	00b913a8 	adcseq	r1, r9, r8, lsr #7
     1dc:	08000000 	stmdaeq	r0, {}	; <UNPREDICTABLE>
     1e0:	00000055 	andeq	r0, r0, r5, asr r0
     1e4:	000000c9 	andeq	r0, r0, r9, asr #1
     1e8:	00002509 	andeq	r2, r0, r9, lsl #10
     1ec:	0a000300 	beq	df4 <all_implied_fbits>
     1f0:	09a20308 	stmibeq	r2!, {r3, r8, r9}
     1f4:	000000ed 	andeq	r0, r0, sp, ror #1
     1f8:	0005190b 	andeq	r1, r5, fp, lsl #18
     1fc:	07a40300 	streq	r0, [r4, r0, lsl #6]!
     200:	0000002c 	andeq	r0, r0, ip, lsr #32
     204:	05210b00 	streq	r0, [r1, #-2816]!	; 0xfffff500
     208:	a9030000 	stmdbge	r3, {}	; <UNPREDICTABLE>
     20c:	00009705 	andeq	r9, r0, r5, lsl #14
     210:	05000400 	streq	r0, [r0, #-1024]	; 0xfffffc00
     214:	000004a9 	andeq	r0, r0, r9, lsr #9
     218:	c903aa03 	stmdbgt	r3, {r0, r1, r9, fp, sp, pc}
     21c:	0c000000 	stceq	0, cr0, [r0], {-0}
     220:	05610504 	strbeq	r0, [r1, #-1284]!	; 0xfffffafc
     224:	16040000 	strne	r0, [r4], -r0
     228:	00007119 	andeq	r7, r0, r9, lsl r1
     22c:	04320500 	ldrteq	r0, [r2], #-1280	; 0xfffffb00
     230:	0c050000 	stceq	0, cr0, [r5], {-0}
     234:	00002c0d 	andeq	r2, r0, sp, lsl #24
     238:	03440500 	movteq	r0, #17664	; 0x4500
     23c:	23040000 	movwcs	r0, #16384	; 0x4000
     240:	0001071b 	andeq	r0, r1, fp, lsl r7
     244:	03550d00 	cmpeq	r5, #0, 26
     248:	04180000 	ldreq	r0, [r8], #-0
     24c:	01790834 	cmneq	r9, r4, lsr r8
     250:	ca0b0000 	bgt	2c0258 <_bsl_base_address+0xbe258>
     254:	04000004 	streq	r0, [r0], #-4
     258:	01791336 	cmneq	r9, r6, lsr r3
     25c:	0e000000 	cdpeq	0, 0, cr0, cr0, cr0, {0}
     260:	04006b5f 	streq	r6, [r0], #-2911	; 0xfffff4a1
     264:	002c0737 	eoreq	r0, ip, r7, lsr r7
     268:	0b040000 	bleq	100270 <__data_load__+0xff410>
     26c:	0000050b 	andeq	r0, r0, fp, lsl #10
     270:	2c0b3704 	stccs	7, cr3, [fp], {4}
     274:	08000000 	stmdaeq	r0, {}	; <UNPREDICTABLE>
     278:	00033e0b 	andeq	r3, r3, fp, lsl #28
     27c:	14370400 	ldrtne	r0, [r7], #-1024	; 0xfffffc00
     280:	0000002c 	andeq	r0, r0, ip, lsr #32
     284:	059b0b0c 	ldreq	r0, [fp, #2828]	; 0xb0c
     288:	37040000 	strcc	r0, [r4, -r0]
     28c:	00002c1b 	andeq	r2, r0, fp, lsl ip
     290:	5f0e1000 	svcpl	0x000e1000
     294:	38040078 	stmdacc	r4, {r3, r4, r5, r6}
     298:	00017f0b 	andeq	r7, r1, fp, lsl #30
     29c:	0f001400 	svceq	0x00001400
     2a0:	00011f04 	andeq	r1, r1, r4, lsl #30
     2a4:	00fb0800 	rscseq	r0, fp, r0, lsl #16
     2a8:	018f0000 	orreq	r0, pc, r0
     2ac:	25090000 	strcs	r0, [r9, #-0]
     2b0:	00000000 	andeq	r0, r0, r0
     2b4:	037c0d00 	cmneq	ip, #0, 26
     2b8:	04240000 	strteq	r0, [r4], #-0
     2bc:	0212083c 	andseq	r0, r2, #60, 16	; 0x3c0000
     2c0:	a10b0000 	mrsge	r0, (UNDEF: 11)
     2c4:	04000002 	streq	r0, [r0], #-2
     2c8:	002c093e 	eoreq	r0, ip, lr, lsr r9
     2cc:	0b000000 	bleq	2d4 <_malloc_r+0x3c>
     2d0:	00000537 	andeq	r0, r0, r7, lsr r5
     2d4:	2c093f04 	stccs	15, cr3, [r9], {4}
     2d8:	04000000 	streq	r0, [r0], #-0
     2dc:	0002b60b 	andeq	fp, r2, fp, lsl #12
     2e0:	09400400 	stmdbeq	r0, {sl}^
     2e4:	0000002c 	andeq	r0, r0, ip, lsr #32
     2e8:	060e0b08 	streq	r0, [lr], -r8, lsl #22
     2ec:	41040000 	mrsmi	r0, (UNDEF: 4)
     2f0:	00002c09 	andeq	r2, r0, r9, lsl #24
     2f4:	fc0b0c00 	stc2	12, cr0, [fp], {-0}
     2f8:	04000003 	streq	r0, [r0], #-3
     2fc:	002c0942 	eoreq	r0, ip, r2, asr #18
     300:	0b100000 	bleq	400308 <_bsl_base_address+0x1fe308>
     304:	000003eb 	andeq	r0, r0, fp, ror #7
     308:	2c094304 	stccs	3, cr4, [r9], {4}
     30c:	14000000 	strne	r0, [r0], #-0
     310:	0005a00b 	andeq	sl, r5, fp
     314:	09440400 	stmdbeq	r4, {sl}^
     318:	0000002c 	andeq	r0, r0, ip, lsr #32
     31c:	045f0b18 	ldrbeq	r0, [pc], #-2840	; 324 <_malloc_r+0x8c>
     320:	45040000 	strmi	r0, [r4, #-0]
     324:	00002c09 	andeq	r2, r0, r9, lsl #24
     328:	d50b1c00 	strle	r1, [fp, #-3072]	; 0xfffff400
     32c:	04000005 	streq	r0, [r0], #-5
     330:	002c0946 	eoreq	r0, ip, r6, asr #18
     334:	00200000 	eoreq	r0, r0, r0
     338:	0002c510 	andeq	ip, r2, r0, lsl r5
     33c:	04010800 	streq	r0, [r1], #-2048	; 0xfffff800
     340:	0257084f 	subseq	r0, r7, #5177344	; 0x4f0000
     344:	310b0000 	mrscc	r0, (UNDEF: 11)
     348:	04000003 	streq	r0, [r0], #-3
     34c:	02570a50 	subseq	r0, r7, #80, 20	; 0x50000
     350:	0b000000 	bleq	358 <_malloc_r+0xc0>
     354:	00000231 	andeq	r0, r0, r1, lsr r2
     358:	57095104 	strpl	r5, [r9, -r4, lsl #2]
     35c:	80000002 	andhi	r0, r0, r2
     360:	00055311 	andeq	r5, r5, r1, lsl r3
     364:	0a530400 	beq	14c136c <_bsl_base_address+0x12bf36c>
     368:	000000fb 	strdeq	r0, [r0], -fp
     36c:	ea110100 	b	440774 <_bsl_base_address+0x23e774>
     370:	04000002 	streq	r0, [r0], #-2
     374:	00fb0a56 	rscseq	r0, fp, r6, asr sl
     378:	01040000 	mrseq	r0, (UNDEF: 4)
     37c:	00f90800 	rscseq	r0, r9, r0, lsl #16
     380:	02670000 	rsbeq	r0, r7, #0
     384:	25090000 	strcs	r0, [r9, #-0]
     388:	1f000000 	svcne	0x00000000
     38c:	021d1000 	andseq	r1, sp, #0
     390:	01900000 	orrseq	r0, r0, r0
     394:	aa086204 	bge	218bac <_bsl_base_address+0x16bac>
     398:	0b000002 	bleq	3a8 <_malloc_r+0x110>
     39c:	000004ca 	andeq	r0, r0, sl, asr #9
     3a0:	aa126304 	bge	498fb8 <_bsl_base_address+0x296fb8>
     3a4:	00000002 	andeq	r0, r0, r2
     3a8:	0004db0b 	andeq	sp, r4, fp, lsl #22
     3ac:	06640400 	strbteq	r0, [r4], -r0, lsl #8
     3b0:	0000002c 	andeq	r0, r0, ip, lsr #32
     3b4:	03390b04 	teqeq	r9, #4, 22	; 0x1000
     3b8:	66040000 	strvs	r0, [r4], -r0
     3bc:	0002b009 	andeq	fp, r2, r9
     3c0:	c50b0800 	strgt	r0, [fp, #-2048]	; 0xfffff800
     3c4:	04000002 	streq	r0, [r0], #-2
     3c8:	02121e67 	andseq	r1, r2, #1648	; 0x670
     3cc:	00880000 	addeq	r0, r8, r0
     3d0:	0267040f 	rsbeq	r0, r7, #251658240	; 0xf000000
     3d4:	c0080000 	andgt	r0, r8, r0
     3d8:	c0000002 	andgt	r0, r0, r2
     3dc:	09000002 	stmdbeq	r0, {r1}
     3e0:	00000025 	andeq	r0, r0, r5, lsr #32
     3e4:	040f001f 	streq	r0, [pc], #-31	; 3ec <_malloc_r+0x154>
     3e8:	000002c6 	andeq	r0, r0, r6, asr #5
     3ec:	04690d12 	strbteq	r0, [r9], #-3346	; 0xfffff2ee
     3f0:	04080000 	streq	r0, [r8], #-0
     3f4:	02ef087a 	rsceq	r0, pc, #7995392	; 0x7a0000
     3f8:	650b0000 	strvs	r0, [fp, #-0]
     3fc:	0400000a 	streq	r0, [r0], #-10
     400:	02ef117b 	rsceq	r1, pc, #-1073741794	; 0xc000001e
     404:	0b000000 	bleq	40c <_malloc_r+0x174>
     408:	00000928 	andeq	r0, r0, r8, lsr #18
     40c:	2c067c04 	stccs	12, cr7, [r6], {4}
     410:	04000000 	streq	r0, [r0], #-0
     414:	55040f00 	strpl	r0, [r4, #-3840]	; 0xfffff100
     418:	0d000000 	stceq	0, cr0, [r0, #-0]
     41c:	000004b4 			; <UNDEFINED> instruction: 0x000004b4
     420:	08ba0468 	ldmeq	sl!, {r3, r5, r6, sl}
     424:	00000438 	andeq	r0, r0, r8, lsr r4
     428:	00705f0e 	rsbseq	r5, r0, lr, lsl #30
     42c:	ef12bb04 	svc	0x0012bb04
     430:	00000002 	andeq	r0, r0, r2
     434:	00725f0e 	rsbseq	r5, r2, lr, lsl #30
     438:	2c07bc04 	stccs	12, cr11, [r7], {4}
     43c:	04000000 	streq	r0, [r0], #-0
     440:	00775f0e 	rsbseq	r5, r7, lr, lsl #30
     444:	2c07bd04 	stccs	13, cr11, [r7], {4}
     448:	08000000 	stmdaeq	r0, {}	; <UNPREDICTABLE>
     44c:	0002e30b 	andeq	lr, r2, fp, lsl #6
     450:	09be0400 	ldmibeq	lr!, {sl}
     454:	0000005c 	andeq	r0, r0, ip, asr r0
     458:	03980b0c 	orrseq	r0, r8, #12, 22	; 0x3000
     45c:	bf040000 	svclt	0x00040000
     460:	00005c09 	andeq	r5, r0, r9, lsl #24
     464:	5f0e0e00 	svcpl	0x000e0e00
     468:	04006662 	streq	r6, [r0], #-1634	; 0xfffff99e
     46c:	02c711c0 	sbceq	r1, r7, #192, 2	; 0x30
     470:	0b100000 	bleq	400478 <_bsl_base_address+0x1fe478>
     474:	00000270 	andeq	r0, r0, r0, ror r2
     478:	2c07c104 	stfcsd	f4, [r7], {4}
     47c:	18000000 	stmdane	r0, {}	; <UNPREDICTABLE>
     480:	0002d30b 	andeq	sp, r2, fp, lsl #6
     484:	0ac80400 	beq	ff20148c <__stack+0xdf200bb4>
     488:	000000f9 	strdeq	r0, [r0], -r9
     48c:	036c0b1c 	cmneq	ip, #28, 22	; 0x7000
     490:	ca040000 	bgt	100498 <__data_load__+0xff638>
     494:	0005bc1d 	andeq	fp, r5, sp, lsl ip
     498:	e40b2000 	str	r2, [fp], #-0
     49c:	04000003 	streq	r0, [r0], #-3
     4a0:	05e61dcc 	strbeq	r1, [r6, #3532]!	; 0xdcc
     4a4:	0b240000 	bleq	9004ac <_bsl_base_address+0x6fe4ac>
     4a8:	00000529 	andeq	r0, r0, r9, lsr #10
     4ac:	0a0dcf04 	beq	3740c4 <_bsl_base_address+0x1720c4>
     4b0:	28000006 	stmdacs	r0, {r1, r2}
     4b4:	0005ef0b 	andeq	lr, r5, fp, lsl #30
     4b8:	09d00400 	ldmibeq	r0, {sl}^
     4bc:	00000624 	andeq	r0, r0, r4, lsr #12
     4c0:	755f0e2c 	ldrbvc	r0, [pc, #-3628]	; fffff69c <__stack+0xdfffedc4>
     4c4:	d3040062 	movwle	r0, #16482	; 0x4062
     4c8:	0002c711 	andeq	ip, r2, r1, lsl r7
     4cc:	5f0e3000 	svcpl	0x000e3000
     4d0:	04007075 	streq	r7, [r0], #-117	; 0xffffff8b
     4d4:	02ef12d4 	rsceq	r1, pc, #212, 4	; 0x4000000d
     4d8:	0e380000 	cdpeq	0, 3, cr0, cr8, cr0, {0}
     4dc:	0072755f 	rsbseq	r7, r2, pc, asr r5
     4e0:	2c07d504 	cfstr32cs	mvfx13, [r7], {4}
     4e4:	3c000000 	stccc	0, cr0, [r0], {-0}
     4e8:	0002b00b 	andeq	fp, r2, fp
     4ec:	11d80400 	bicsne	r0, r8, r0, lsl #8
     4f0:	0000062a 	andeq	r0, r0, sl, lsr #12
     4f4:	05c70b40 	strbeq	r0, [r7, #2880]	; 0xb40
     4f8:	d9040000 	stmdble	r4, {}	; <UNPREDICTABLE>
     4fc:	00063a11 	andeq	r3, r6, r1, lsl sl
     500:	5f0e4300 	svcpl	0x000e4300
     504:	0400626c 	streq	r6, [r0], #-620	; 0xfffffd94
     508:	02c711dc 	sbceq	r1, r7, #220, 2	; 0x37
     50c:	0b440000 	bleq	1100514 <_bsl_base_address+0xefe514>
     510:	000002f9 	strdeq	r0, [r0], -r9
     514:	2c07df04 	stccs	15, cr13, [r7], {4}
     518:	4c000000 	stcmi	0, cr0, [r0], {-0}
     51c:	00030a0b 	andeq	r0, r3, fp, lsl #20
     520:	0ae00400 	beq	ff801528 <__stack+0xdf800c50>
     524:	0000007f 	andeq	r0, r0, pc, ror r0
     528:	073a0b50 			; <UNDEFINED> instruction: 0x073a0b50
     52c:	e3040000 	movw	r0, #16384	; 0x4000
     530:	00045612 	andeq	r5, r4, r2, lsl r6
     534:	fd0b5400 	stc2	4, cr5, [fp, #-0]
     538:	04000008 	streq	r0, [r0], #-8
     53c:	01130ce7 	tsteq	r3, r7, ror #25
     540:	0b580000 	bleq	1600548 <_bsl_base_address+0x13fe548>
     544:	000004bc 			; <UNDEFINED> instruction: 0x000004bc
     548:	ed0ee904 	vstr.16	s28, [lr, #-8]
     54c:	5c000000 	stcpl	0, cr0, [r0], {-0}
     550:	0003dc0b 	andeq	sp, r3, fp, lsl #24
     554:	09ea0400 	stmibeq	sl!, {sl}^
     558:	0000002c 	andeq	r0, r0, ip, lsr #32
     55c:	2c130064 	ldccs	0, cr0, [r3], {100}	; 0x64
     560:	56000000 	strpl	r0, [r0], -r0
     564:	14000004 	strne	r0, [r0], #-4
     568:	00000456 	andeq	r0, r0, r6, asr r4
     56c:	0000f914 	andeq	pc, r0, r4, lsl r9	; <UNPREDICTABLE>
     570:	05aa1400 	streq	r1, [sl, #1024]!	; 0x400
     574:	2c140000 	ldccs	0, cr0, [r4], {-0}
     578:	00000000 	andeq	r0, r0, r0
     57c:	0461040f 	strbteq	r0, [r1], #-1039	; 0xfffffbf1
     580:	56150000 	ldrpl	r0, [r5], -r0
     584:	16000004 	strne	r0, [r0], -r4
     588:	00000cab 	andeq	r0, r0, fp, lsr #25
     58c:	65040428 	strvs	r0, [r4, #-1064]	; 0xfffffbd8
     590:	05aa0802 	streq	r0, [sl, #2050]!	; 0x802
     594:	58170000 	ldmdapl	r7, {}	; <UNPREDICTABLE>
     598:	04000004 	streq	r0, [r0], #-4
     59c:	2c070267 	sfmcs	f0, 4, [r7], {103}	; 0x67
     5a0:	00000000 	andeq	r0, r0, r0
     5a4:	0002f217 	andeq	pc, r2, r7, lsl r2	; <UNPREDICTABLE>
     5a8:	026c0400 	rsbeq	r0, ip, #0, 8
     5ac:	0006960b 	andeq	r9, r6, fp, lsl #12
     5b0:	88170400 	ldmdahi	r7, {sl}
     5b4:	04000003 	streq	r0, [r0], #-3
     5b8:	9614026c 	ldrls	r0, [r4], -ip, ror #4
     5bc:	08000006 	stmdaeq	r0, {r1, r2}
     5c0:	00034d17 	andeq	r4, r3, r7, lsl sp
     5c4:	026c0400 	rsbeq	r0, ip, #0, 8
     5c8:	0006961e 	andeq	r9, r6, lr, lsl r6
     5cc:	d6170c00 	ldrle	r0, [r7], -r0, lsl #24
     5d0:	04000004 	streq	r0, [r0], #-4
     5d4:	2c08026e 	sfmcs	f0, 4, [r8], {110}	; 0x6e
     5d8:	10000000 	andne	r0, r0, r0
     5dc:	00024517 	andeq	r4, r2, r7, lsl r5
     5e0:	026f0400 	rsbeq	r0, pc, #0, 8
     5e4:	00089608 	andeq	r9, r8, r8, lsl #12
     5e8:	f2171400 	vshl.s16	d1, d0, d7
     5ec:	04000004 	streq	r0, [r0], #-4
     5f0:	2c070272 	sfmcs	f0, 4, [r7], {114}	; 0x72
     5f4:	30000000 	andcc	r0, r0, r0
     5f8:	0004e017 	andeq	lr, r4, r7, lsl r0
     5fc:	02730400 	rsbseq	r0, r3, #0, 8
     600:	0008ab16 	andeq	sl, r8, r6, lsl fp
     604:	05173400 	ldreq	r3, [r7, #-1024]	; 0xfffffc00
     608:	04000004 	streq	r0, [r0], #-4
     60c:	2c070275 	sfmcs	f0, 4, [r7], {117}	; 0x75
     610:	38000000 	stmdacc	r0, {}	; <UNPREDICTABLE>
     614:	0004e817 	andeq	lr, r4, r7, lsl r8
     618:	02770400 	rsbseq	r0, r7, #0, 8
     61c:	0008bc0a 	andeq	fp, r8, sl, lsl #24
     620:	c7173c00 	ldrgt	r3, [r7, -r0, lsl #24]
     624:	04000003 	streq	r0, [r0], #-3
     628:	7913027a 	ldmdbvc	r3, {r1, r3, r4, r5, r6, r9}
     62c:	40000001 	andmi	r0, r0, r1
     630:	00037217 	andeq	r7, r3, r7, lsl r2
     634:	027b0400 	rsbseq	r0, fp, #0, 8
     638:	00002c07 	andeq	r2, r0, r7, lsl #24
     63c:	09174400 	ldmdbeq	r7, {sl, lr}
     640:	04000006 	streq	r0, [r0], #-6
     644:	7913027c 	ldmdbvc	r3, {r2, r3, r4, r5, r6, r9}
     648:	48000001 	stmdami	r0, {r0}
     64c:	00042817 	andeq	r2, r4, r7, lsl r8
     650:	027d0400 	rsbseq	r0, sp, #0, 8
     654:	0008c214 	andeq	ip, r8, r4, lsl r2
     658:	90174c00 	andsls	r4, r7, r0, lsl #24
     65c:	04000003 	streq	r0, [r0], #-3
     660:	2c070280 	sfmcs	f0, 4, [r7], {128}	; 0x80
     664:	50000000 	andpl	r0, r0, r0
     668:	00030217 	andeq	r0, r3, r7, lsl r2
     66c:	02810400 	addeq	r0, r1, #0, 8
     670:	0005aa09 	andeq	sl, r5, r9, lsl #20
     674:	51175400 	tstpl	r7, r0, lsl #8
     678:	04000004 	streq	r0, [r0], #-4
     67c:	710702a4 	smlatbvc	r7, r4, r2, r0
     680:	58000008 	stmdapl	r0, {r3}
     684:	00021d18 	andeq	r1, r2, r8, lsl sp
     688:	02a80400 	adceq	r0, r8, #0, 8
     68c:	0002aa13 	andeq	sl, r2, r3, lsl sl
     690:	18014800 	stmdane	r1, {fp, lr}
     694:	000003a5 	andeq	r0, r0, r5, lsr #7
     698:	1202a904 	andne	sl, r2, #4, 18	; 0x10000
     69c:	00000267 	andeq	r0, r0, r7, ror #4
     6a0:	bd18014c 	ldflts	f0, [r8, #-304]	; 0xfffffed0
     6a4:	04000005 	streq	r0, [r0], #-5
     6a8:	d30c02ad 	movwle	r0, #49837	; 0xc2ad
     6ac:	dc000008 	stcle	0, cr0, [r0], {8}
     6b0:	02db1802 	sbcseq	r1, fp, #131072	; 0x20000
     6b4:	b2040000 	andlt	r0, r4, #0
     6b8:	06571002 	ldrbeq	r1, [r7], -r2
     6bc:	02e00000 	rsceq	r0, r0, #0
     6c0:	0002c018 	andeq	ip, r2, r8, lsl r0
     6c4:	02b40400 	adcseq	r0, r4, #0, 8
     6c8:	0008df0a 	andeq	sp, r8, sl, lsl #30
     6cc:	0002ec00 	andeq	lr, r2, r0, lsl #24
     6d0:	05b0040f 	ldreq	r0, [r0, #1039]!	; 0x40f
     6d4:	01020000 	mrseq	r0, (UNDEF: 2)
     6d8:	0000ba08 	andeq	fp, r0, r8, lsl #20
     6dc:	05b01500 	ldreq	r1, [r0, #1280]!	; 0x500
     6e0:	040f0000 	streq	r0, [pc], #-0	; 6e8 <_malloc_r+0x450>
     6e4:	00000438 	andeq	r0, r0, r8, lsr r4
     6e8:	00002c13 	andeq	r2, r0, r3, lsl ip
     6ec:	0005e000 	andeq	lr, r5, r0
     6f0:	04561400 	ldrbeq	r1, [r6], #-1024	; 0xfffffc00
     6f4:	f9140000 			; <UNDEFINED> instruction: 0xf9140000
     6f8:	14000000 	strne	r0, [r0], #-0
     6fc:	000005e0 	andeq	r0, r0, r0, ror #11
     700:	00002c14 	andeq	r2, r0, r4, lsl ip
     704:	040f0000 	streq	r0, [pc], #-0	; 70c <_malloc_r+0x474>
     708:	000005b7 			; <UNDEFINED> instruction: 0x000005b7
     70c:	05c2040f 	strbeq	r0, [r2, #1039]	; 0x40f
     710:	8b130000 	blhi	4c0718 <_bsl_base_address+0x2be718>
     714:	0a000000 	beq	71c <_malloc_r+0x484>
     718:	14000006 	strne	r0, [r0], #-6
     71c:	00000456 	andeq	r0, r0, r6, asr r4
     720:	0000f914 	andeq	pc, r0, r4, lsl r9	; <UNPREDICTABLE>
     724:	008b1400 	addeq	r1, fp, r0, lsl #8
     728:	2c140000 	ldccs	0, cr0, [r4], {-0}
     72c:	00000000 	andeq	r0, r0, r0
     730:	05ec040f 	strbeq	r0, [ip, #1039]!	; 0x40f
     734:	2c130000 	ldccs	0, cr0, [r3], {-0}
     738:	24000000 	strcs	r0, [r0], #-0
     73c:	14000006 	strne	r0, [r0], #-6
     740:	00000456 	andeq	r0, r0, r6, asr r4
     744:	0000f914 	andeq	pc, r0, r4, lsl r9	; <UNPREDICTABLE>
     748:	040f0000 	streq	r0, [pc], #-0	; 750 <_malloc_r+0x4b8>
     74c:	00000610 	andeq	r0, r0, r0, lsl r6
     750:	00005508 	andeq	r5, r0, r8, lsl #10
     754:	00063a00 	andeq	r3, r6, r0, lsl #20
     758:	00250900 	eoreq	r0, r5, r0, lsl #18
     75c:	00020000 	andeq	r0, r2, r0
     760:	00005508 	andeq	r5, r0, r8, lsl #10
     764:	00064a00 	andeq	r4, r6, r0, lsl #20
     768:	00250900 	eoreq	r0, r5, r0, lsl #18
     76c:	00000000 	andeq	r0, r0, r0
     770:	0004a204 	andeq	sl, r4, r4, lsl #4
     774:	01240400 			; <UNDEFINED> instruction: 0x01240400
     778:	0002f51a 	andeq	pc, r2, sl, lsl r5	; <UNPREDICTABLE>
     77c:	0cc11900 			; <UNDEFINED> instruction: 0x0cc11900
     780:	040c0000 	streq	r0, [ip], #-0
     784:	90080128 	andls	r0, r8, r8, lsr #2
     788:	17000006 	strne	r0, [r0, -r6]
     78c:	000004ca 	andeq	r0, r0, sl, asr #9
     790:	11012a04 	tstne	r1, r4, lsl #20
     794:	00000690 	muleq	r0, r0, r6
     798:	039e1700 	orrseq	r1, lr, #0, 14
     79c:	2b040000 	blcs	1007a4 <__data_load__+0xff944>
     7a0:	002c0701 	eoreq	r0, ip, r1, lsl #14
     7a4:	17040000 	strne	r0, [r4, -r0]
     7a8:	000004d0 	ldrdeq	r0, [r0], -r0	; <UNPREDICTABLE>
     7ac:	0b012c04 	bleq	4b7c4 <__data_load__+0x4a964>
     7b0:	00000696 	muleq	r0, r6, r6
     7b4:	040f0008 	streq	r0, [pc], #-8	; 7bc <_malloc_r+0x524>
     7b8:	00000657 	andeq	r0, r0, r7, asr r6
     7bc:	064a040f 	strbeq	r0, [sl], -pc, lsl #8
     7c0:	3d190000 	ldccc	0, cr0, [r9, #-0]
     7c4:	0e000002 	cdpeq	0, 0, cr0, cr0, cr2, {0}
     7c8:	08014404 	stmdaeq	r1, {r2, sl, lr}
     7cc:	000006d5 	ldrdeq	r0, [r0], -r5
     7d0:	00051317 	andeq	r1, r5, r7, lsl r3
     7d4:	01450400 	cmpeq	r5, r0, lsl #8
     7d8:	0006d512 	andeq	sp, r6, r2, lsl r5
     7dc:	40170000 	andsmi	r0, r7, r0
     7e0:	04000005 	streq	r0, [r0], #-5
     7e4:	d5120146 	ldrle	r0, [r2, #-326]	; 0xfffffeba
     7e8:	06000006 	streq	r0, [r0], -r6
     7ec:	00055c17 	andeq	r5, r5, r7, lsl ip
     7f0:	01470400 	cmpeq	r7, r0, lsl #8
     7f4:	00006312 	andeq	r6, r0, r2, lsl r3
     7f8:	08000c00 	stmdaeq	r0, {sl, fp}
     7fc:	00000063 	andeq	r0, r0, r3, rrx
     800:	000006e5 	andeq	r0, r0, r5, ror #13
     804:	00002509 	andeq	r2, r0, r9, lsl #10
     808:	1a000200 	bne	1010 <__data_load__+0x1b0>
     80c:	028504d0 	addeq	r0, r5, #208, 8	; 0xd0000000
     810:	0007fa07 	andeq	pc, r7, r7, lsl #20
     814:	058e1700 	streq	r1, [lr, #1792]	; 0x700
     818:	87040000 	strhi	r0, [r4, -r0]
     81c:	00251802 	eoreq	r1, r5, r2, lsl #16
     820:	17000000 	strne	r0, [r0, -r0]
     824:	00000546 	andeq	r0, r0, r6, asr #10
     828:	12028804 	andne	r8, r2, #4, 16	; 0x40000
     82c:	000005aa 	andeq	r0, r0, sl, lsr #11
     830:	03ba1704 			; <UNDEFINED> instruction: 0x03ba1704
     834:	89040000 	stmdbhi	r4, {}	; <UNPREDICTABLE>
     838:	07fa1002 	ldrbeq	r1, [sl, r2]!
     83c:	17080000 	strne	r0, [r8, -r0]
     840:	000005e0 	andeq	r0, r0, r0, ror #11
     844:	17028a04 	strne	r8, [r2, -r4, lsl #20]
     848:	0000018f 	andeq	r0, r0, pc, lsl #3
     84c:	035d1724 	cmpeq	sp, #36, 14	; 0x900000
     850:	8b040000 	blhi	100858 <__data_load__+0xff9f8>
     854:	002c0f02 	eoreq	r0, ip, r2, lsl #30
     858:	17480000 	strbne	r0, [r8, -r0]
     85c:	000004c5 	andeq	r0, r0, r5, asr #9
     860:	2c028c04 	stccs	12, cr8, [r2], {4}
     864:	00000078 	andeq	r0, r0, r8, ror r0
     868:	05f61750 	ldrbeq	r1, [r6, #1872]!	; 0x750
     86c:	8d040000 	stchi	0, cr0, [r4, #-0]
     870:	069c1a02 	ldreq	r1, [ip], r2, lsl #20
     874:	17580000 	ldrbne	r0, [r8, -r0]
     878:	00000444 	andeq	r0, r0, r4, asr #8
     87c:	16028e04 	strne	r8, [r2], -r4, lsl #28
     880:	000000ed 	andeq	r0, r0, sp, ror #1
     884:	05fb1768 	ldrbeq	r1, [fp, #1896]!	; 0x768
     888:	8f040000 	svchi	0x00040000
     88c:	00ed1602 	rsceq	r1, sp, r2, lsl #12
     890:	17700000 	ldrbne	r0, [r0, -r0]!
     894:	00000293 	muleq	r0, r3, r2
     898:	16029004 	strne	r9, [r2], -r4
     89c:	000000ed 	andeq	r0, r0, sp, ror #1
     8a0:	05b31778 	ldreq	r1, [r3, #1912]!	; 0x778
     8a4:	91040000 	mrsls	r0, (UNDEF: 4)
     8a8:	080a1002 	stmdaeq	sl, {r1, ip}
     8ac:	17800000 	strne	r0, [r0, r0]
     8b0:	000003ae 	andeq	r0, r0, lr, lsr #7
     8b4:	10029204 	andne	r9, r2, r4, lsl #4
     8b8:	0000081a 	andeq	r0, r0, sl, lsl r8
     8bc:	05691788 	strbeq	r1, [r9, #-1928]!	; 0xfffff878
     8c0:	93040000 	movwls	r0, #16384	; 0x4000
     8c4:	002c0f02 	eoreq	r0, ip, r2, lsl #30
     8c8:	17a00000 	strne	r0, [r0, r0]!
     8cc:	00000323 	andeq	r0, r0, r3, lsr #6
     8d0:	16029404 	strne	r9, [r2], -r4, lsl #8
     8d4:	000000ed 	andeq	r0, r0, sp, ror #1
     8d8:	028417a4 	addeq	r1, r4, #164, 14	; 0x2900000
     8dc:	95040000 	strls	r0, [r4, #-0]
     8e0:	00ed1602 	rsceq	r1, sp, r2, lsl #12
     8e4:	17ac0000 	strne	r0, [ip, r0]!
     8e8:	00000312 	andeq	r0, r0, r2, lsl r3
     8ec:	16029604 	strne	r9, [r2], -r4, lsl #12
     8f0:	000000ed 	andeq	r0, r0, sp, ror #1
     8f4:	025017b4 	subseq	r1, r0, #180, 14	; 0x2d00000
     8f8:	97040000 	strls	r0, [r4, -r0]
     8fc:	00ed1602 	rsceq	r1, sp, r2, lsl #12
     900:	17bc0000 	ldrne	r0, [ip, r0]!
     904:	0000025f 	andeq	r0, r0, pc, asr r2
     908:	16029804 	strne	r9, [r2], -r4, lsl #16
     90c:	000000ed 	andeq	r0, r0, sp, ror #1
     910:	045617c4 	ldrbeq	r1, [r6], #-1988	; 0xfffff83c
     914:	99040000 	stmdbls	r4, {}	; <UNPREDICTABLE>
     918:	002c0802 	eoreq	r0, ip, r2, lsl #16
     91c:	00cc0000 	sbceq	r0, ip, r0
     920:	0005b008 	andeq	fp, r5, r8
     924:	00080a00 	andeq	r0, r8, r0, lsl #20
     928:	00250900 	eoreq	r0, r5, r0, lsl #18
     92c:	00190000 	andseq	r0, r9, r0
     930:	0005b008 	andeq	fp, r5, r8
     934:	00081a00 	andeq	r1, r8, r0, lsl #20
     938:	00250900 	eoreq	r0, r5, r0, lsl #18
     93c:	00070000 	andeq	r0, r7, r0
     940:	0005b008 	andeq	fp, r5, r8
     944:	00082a00 	andeq	r2, r8, r0, lsl #20
     948:	00250900 	eoreq	r0, r5, r0, lsl #18
     94c:	00170000 	andseq	r0, r7, r0
     950:	9e04f01a 	mcrls	0, 0, pc, cr4, cr10, {0}	; <UNPREDICTABLE>
     954:	08510702 	ldmdaeq	r1, {r1, r8, r9, sl}^
     958:	f5170000 			; <UNDEFINED> instruction: 0xf5170000
     95c:	04000003 	streq	r0, [r0], #-3
     960:	511b02a1 	tstpl	fp, r1, lsr #5
     964:	00000008 	andeq	r0, r0, r8
     968:	0005aa17 	andeq	sl, r5, r7, lsl sl
     96c:	02a20400 	adceq	r0, r2, #0, 8
     970:	00086118 	andeq	r6, r8, r8, lsl r1
     974:	08007800 	stmdaeq	r0, {fp, ip, sp, lr}
     978:	000002ef 	andeq	r0, r0, pc, ror #5
     97c:	00000861 	andeq	r0, r0, r1, ror #16
     980:	00002509 	andeq	r2, r0, r9, lsl #10
     984:	08001d00 	stmdaeq	r0, {r8, sl, fp, ip}
     988:	00000025 	andeq	r0, r0, r5, lsr #32
     98c:	00000871 	andeq	r0, r0, r1, ror r8
     990:	00002509 	andeq	r2, r0, r9, lsl #10
     994:	1b001d00 	blne	7d9c <__data_load__+0x6f3c>
     998:	028304f0 	addeq	r0, r3, #240, 8	; 0xf0000000
     99c:	00089603 	andeq	r9, r8, r3, lsl #12
     9a0:	0cab1c00 	stceq	12, cr1, [fp]
     9a4:	9a040000 	bls	1009ac <__data_load__+0xffb4c>
     9a8:	06e50b02 	strbteq	r0, [r5], r2, lsl #22
     9ac:	cd1c0000 	ldcgt	0, cr0, [ip, #-0]
     9b0:	04000005 	streq	r0, [r0], #-5
     9b4:	2a0b02a3 	bcs	2c1448 <_bsl_base_address+0xbf448>
     9b8:	00000008 	andeq	r0, r0, r8
     9bc:	0005b008 	andeq	fp, r5, r8
     9c0:	0008a600 	andeq	sl, r8, r0, lsl #12
     9c4:	00250900 	eoreq	r0, r5, r0, lsl #18
     9c8:	00180000 	andseq	r0, r8, r0
     9cc:	0002791d 	andeq	r7, r2, sp, lsl r9
     9d0:	a6040f00 	strge	r0, [r4], -r0, lsl #30
     9d4:	1e000008 	cdpne	0, 0, cr0, cr0, cr8, {0}
     9d8:	000008bc 			; <UNDEFINED> instruction: 0x000008bc
     9dc:	00045614 	andeq	r5, r4, r4, lsl r6
     9e0:	040f0000 	streq	r0, [pc], #-0	; 9e8 <__call_exitprocs+0x80>
     9e4:	000008b1 			; <UNDEFINED> instruction: 0x000008b1
     9e8:	0179040f 	cmneq	r9, pc, lsl #8
     9ec:	d31e0000 	tstle	lr, #0
     9f0:	14000008 	strne	r0, [r0], #-8
     9f4:	0000002c 	andeq	r0, r0, ip, lsr #32
     9f8:	d9040f00 	stmdble	r4, {r8, r9, sl, fp}
     9fc:	0f000008 	svceq	0x00000008
     a00:	0008c804 	andeq	ip, r8, r4, lsl #16
     a04:	064a0800 	strbeq	r0, [sl], -r0, lsl #16
     a08:	08ef0000 	stmiaeq	pc!, {}^	; <UNPREDICTABLE>
     a0c:	25090000 	strcs	r0, [r9, #-0]
     a10:	02000000 	andeq	r0, r0, #0
     a14:	05761f00 	ldrbeq	r1, [r6, #-3840]!	; 0xfffff100
     a18:	34040000 	strcc	r0, [r4], #-0
     a1c:	045c1d03 	ldrbeq	r1, [ip], #-3331	; 0xfffff2fd
     a20:	ab200000 	blge	800a28 <_bsl_base_address+0x5fea28>
     a24:	08000002 	stmdaeq	r0, {r1}
     a28:	01e4065d 	mvneq	r0, sp, asr r6
     a2c:	00200000 	eoreq	r0, r0, r0
     a30:	9c010000 	stcls	0, cr0, [r1], {-0}
     a34:	00000950 	andeq	r0, r0, r0, asr r9
     a38:	00058921 	andeq	r8, r5, r1, lsr #18
     a3c:	0b350100 	bleq	d40e44 <_bsl_base_address+0xb3ee44>
     a40:	0000002c 	andeq	r0, r0, ip, lsr #32
     a44:	00000036 	andeq	r0, r0, r6, lsr r0
     a48:	00000032 	andeq	r0, r0, r2, lsr r0
     a4c:	0001ee22 	andeq	lr, r1, r2, lsr #28
     a50:	00095000 	andeq	r5, r9, r0
     a54:	00093f00 	andeq	r3, r9, r0, lsl #30
     a58:	50012300 	andpl	r2, r1, r0, lsl #6
     a5c:	23007402 	movwcs	r7, #1026	; 0x402
     a60:	30015101 	andcc	r5, r1, r1, lsl #2
     a64:	02002400 	andeq	r2, r0, #0, 8
     a68:	095c0000 	ldmdbeq	ip, {}^	; <UNPREDICTABLE>
     a6c:	01230000 			; <UNDEFINED> instruction: 0x01230000
     a70:	00740250 	rsbseq	r0, r4, r0, asr r2
     a74:	17250000 	strne	r0, [r5, -r0]!
     a78:	17000004 	strne	r0, [r0, -r4]
     a7c:	06000004 	streq	r0, [r0], -r4
     a80:	aa25060c 	bge	9422b8 <_bsl_base_address+0x7402b8>
     a84:	aa000002 	bge	a94 <_malloc_trim_r+0x4c>
     a88:	07000002 	streq	r0, [r0, -r2]
     a8c:	fe000612 	mcr2	6, 0, r0, cr0, cr2, {0}
     a90:	04000000 	streq	r0, [r0], #-0
     a94:	0002d400 	andeq	sp, r2, r0, lsl #8
     a98:	6c010400 	cfstrsvs	mvf0, [r1], {-0}
     a9c:	0c000001 	stceq	0, cr0, [r0], {1}
     aa0:	00000632 	andeq	r0, r0, r2, lsr r6
     aa4:	00000685 	andeq	r0, r0, r5, lsl #13
     aa8:	00000204 	andeq	r0, r0, r4, lsl #4
     aac:	00000028 	andeq	r0, r0, r8, lsr #32
     ab0:	000002c8 	andeq	r0, r0, r8, asr #5
     ab4:	b3060102 	movwlt	r0, #24834	; 0x6102
     ab8:	02000000 	andeq	r0, r0, #0
     abc:	00b10801 	adcseq	r0, r1, r1, lsl #16
     ac0:	02020000 	andeq	r0, r2, #0
     ac4:	00020f05 	andeq	r0, r2, r5, lsl #30
     ac8:	07020200 	streq	r0, [r2, -r0, lsl #4]
     acc:	000001f0 	strdeq	r0, [r0], -r0	; <UNPREDICTABLE>
     ad0:	99050402 	stmdbls	r5, {r1, sl}
     ad4:	02000000 	andeq	r0, r0, #0
     ad8:	01510704 	cmpeq	r1, r4, lsl #14
     adc:	08020000 	stmdaeq	r2, {}	; <UNPREDICTABLE>
     ae0:	00009405 	andeq	r9, r0, r5, lsl #8
     ae4:	07080200 	streq	r0, [r8, -r0, lsl #4]
     ae8:	0000014c 	andeq	r0, r0, ip, asr #2
     aec:	69050403 	stmdbvs	r5, {r0, r1, sl}
     af0:	0200746e 	andeq	r7, r0, #1845493760	; 0x6e000000
     af4:	01560704 	cmpeq	r6, r4, lsl #14
     af8:	18040000 	stmdane	r4, {}	; <UNPREDICTABLE>
     afc:	02000006 	andeq	r0, r0, #6
     b00:	006417d1 	ldrdeq	r1, [r4], #-113	; 0xffffff8f	; <UNPREDICTABLE>
     b04:	08020000 	stmdaeq	r2, {}	; <UNPREDICTABLE>
     b08:	00020304 	andeq	r0, r2, r4, lsl #6
     b0c:	08010200 	stmdaeq	r1, {r9}
     b10:	000000ba 	strheq	r0, [r0], -sl
     b14:	00009005 	andeq	r9, r0, r5
     b18:	00009000 	andeq	r9, r0, r0
     b1c:	07000600 	streq	r0, [r0, -r0, lsl #12]
     b20:	00009604 	andeq	r9, r0, r4, lsl #12
     b24:	1f090800 	svcne	0x00090800
     b28:	01000006 	tsteq	r0, r6
     b2c:	00850f11 	addeq	r0, r5, r1, lsl pc
     b30:	62090000 	andvs	r0, r9, #0
     b34:	01000006 	tsteq	r0, r6
     b38:	00850f12 	addeq	r0, r5, r2, lsl pc
     b3c:	730a0000 	movwvc	r0, #40960	; 0xa000
     b40:	01000006 	tsteq	r0, r6
     b44:	0204011a 	andeq	r0, r4, #-2147483642	; 0x80000006
     b48:	00280000 	eoreq	r0, r8, r0
     b4c:	9c010000 	stcls	0, cr0, [r1], {-0}
     b50:	000000f5 	strdeq	r0, [r0], -r5
     b54:	00051b0b 	andeq	r1, r5, fp, lsl #22
     b58:	0a1c0100 	beq	700f60 <_bsl_base_address+0x4fef60>
     b5c:	0000006b 	andeq	r0, r0, fp, rrx
     b60:	00000056 	andeq	r0, r0, r6, asr r0
     b64:	00000054 	andeq	r0, r0, r4, asr r0
     b68:	0100690c 	tsteq	r0, ip, lsl #18
     b6c:	006b0a1d 	rsbeq	r0, fp, sp, lsl sl
     b70:	006f0000 	rsbeq	r0, pc, r0
     b74:	00690000 	rsbeq	r0, r9, r0
     b78:	200d0000 	andcs	r0, sp, r0
     b7c:	f5000002 			; <UNDEFINED> instruction: 0xf5000002
     b80:	00000000 	andeq	r0, r0, r0
     b84:	000bf90e 	andeq	pc, fp, lr, lsl #18
     b88:	000bf900 	andeq	pc, fp, r0, lsl #18
     b8c:	0d150100 	ldfeqs	f0, [r5, #-0]
     b90:	00092600 	andeq	r2, r9, r0, lsl #12
     b94:	a0000400 	andge	r0, r0, r0, lsl #8
     b98:	04000003 	streq	r0, [r0], #-3
     b9c:	00016c01 	andeq	r6, r1, r1, lsl #24
     ba0:	07400c00 	strbeq	r0, [r0, -r0, lsl #24]
     ba4:	06dc0000 	ldrbeq	r0, [ip], r0
     ba8:	03b70000 			; <UNDEFINED> instruction: 0x03b70000
     bac:	04020000 	streq	r0, [r2], #-0
     bb0:	746e6905 	strbtvc	r6, [lr], #-2309	; 0xfffff6fb
     bb4:	07040300 	streq	r0, [r4, -r0, lsl #6]
     bb8:	00000156 	andeq	r0, r0, r6, asr r1
     bbc:	94050803 	strls	r0, [r5], #-2051	; 0xfffff7fd
     bc0:	03000000 	movweq	r0, #0
     bc4:	02030408 	andeq	r0, r3, #8, 8	; 0x8000000
     bc8:	d5040000 	strle	r0, [r4, #-0]
     bcc:	01000003 	tsteq	r0, r3
     bd0:	2417015e 	ldrcs	r0, [r7], #-350	; 0xfffffea2
     bd4:	03000000 	movweq	r0, #0
     bd8:	00b30601 	adcseq	r0, r3, r1, lsl #12
     bdc:	01030000 	mrseq	r0, (UNDEF: 3)
     be0:	0000b108 	andeq	fp, r0, r8, lsl #2
     be4:	05020300 	streq	r0, [r2, #-768]	; 0xfffffd00
     be8:	0000020f 	andeq	r0, r0, pc, lsl #4
     bec:	f0070203 			; <UNDEFINED> instruction: 0xf0070203
     bf0:	03000001 	movweq	r0, #1
     bf4:	00990504 	addseq	r0, r9, r4, lsl #10
     bf8:	04030000 	streq	r0, [r3], #-0
     bfc:	00015107 	andeq	r5, r1, r7, lsl #2
     c00:	07080300 	streq	r0, [r8, -r0, lsl #6]
     c04:	0000014c 	andeq	r0, r0, ip, asr #2
     c08:	00041005 	andeq	r1, r4, r5
     c0c:	0e2e0200 	cdpeq	2, 2, cr0, cr14, cr0, {0}
     c10:	00000062 	andeq	r0, r0, r2, rrx
     c14:	00052f05 	andeq	r2, r5, r5, lsl #30
     c18:	0e740200 	cdpeq	2, 7, cr0, cr4, cr0, {0}
     c1c:	00000062 	andeq	r0, r0, r2, rrx
     c20:	a5020406 	strge	r0, [r2, #-1030]	; 0xfffffbfa
     c24:	0000b103 	andeq	fp, r0, r3, lsl #2
     c28:	03cf0700 	biceq	r0, pc, #0, 14
     c2c:	a7020000 	strge	r0, [r2, -r0]
     c30:	0000390c 	andeq	r3, r0, ip, lsl #18
     c34:	03810700 	orreq	r0, r1, #0, 14
     c38:	a8020000 	stmdage	r2, {}	; <UNPREDICTABLE>
     c3c:	0000b113 	andeq	fp, r0, r3, lsl r1
     c40:	4d080000 	stcmi	0, cr0, [r8, #-0]
     c44:	c1000000 	mrsgt	r0, (UNDEF: 0)
     c48:	09000000 	stmdbeq	r0, {}	; <UNPREDICTABLE>
     c4c:	00000024 	andeq	r0, r0, r4, lsr #32
     c50:	080a0003 	stmdaeq	sl, {r0, r1}
     c54:	e509a202 	str	sl, [r9, #-514]	; 0xfffffdfe
     c58:	0b000000 	bleq	c60 <_free_r+0x17c>
     c5c:	00000519 	andeq	r0, r0, r9, lsl r5
     c60:	1d07a402 	cfstrsne	mvf10, [r7, #-8]
     c64:	00000000 	andeq	r0, r0, r0
     c68:	0005210b 	andeq	r2, r5, fp, lsl #2
     c6c:	05a90200 	streq	r0, [r9, #512]!	; 0x200
     c70:	0000008f 	andeq	r0, r0, pc, lsl #1
     c74:	a9050004 	stmdbge	r5, {r2}
     c78:	02000004 	andeq	r0, r0, #4
     c7c:	00c103aa 	sbceq	r0, r1, sl, lsr #7
     c80:	040c0000 	streq	r0, [ip], #-0
     c84:	00056105 	andeq	r6, r5, r5, lsl #2
     c88:	19160300 	ldmdbne	r6, {r8, r9}
     c8c:	00000069 	andeq	r0, r0, r9, rrx
     c90:	00043205 	andeq	r3, r4, r5, lsl #4
     c94:	0d0c0400 	cfstrseq	mvf0, [ip, #-0]
     c98:	0000001d 	andeq	r0, r0, sp, lsl r0
     c9c:	00034405 	andeq	r4, r3, r5, lsl #8
     ca0:	1b230300 	blne	8c18a8 <_bsl_base_address+0x6bf8a8>
     ca4:	000000ff 	strdeq	r0, [r0], -pc	; <UNPREDICTABLE>
     ca8:	0003550d 	andeq	r5, r3, sp, lsl #10
     cac:	34031800 	strcc	r1, [r3], #-2048	; 0xfffff800
     cb0:	00017108 	andeq	r7, r1, r8, lsl #2
     cb4:	04ca0b00 	strbeq	r0, [sl], #2816	; 0xb00
     cb8:	36030000 	strcc	r0, [r3], -r0
     cbc:	00017113 	andeq	r7, r1, r3, lsl r1
     cc0:	5f0e0000 	svcpl	0x000e0000
     cc4:	3703006b 	strcc	r0, [r3, -fp, rrx]
     cc8:	00001d07 	andeq	r1, r0, r7, lsl #26
     ccc:	0b0b0400 	bleq	2c1cd4 <_bsl_base_address+0xbfcd4>
     cd0:	03000005 	movweq	r0, #5
     cd4:	001d0b37 	andseq	r0, sp, r7, lsr fp
     cd8:	0b080000 	bleq	200ce0 <_mailbox_base_address+0xce0>
     cdc:	0000033e 	andeq	r0, r0, lr, lsr r3
     ce0:	1d143703 	ldcne	7, cr3, [r4, #-12]
     ce4:	0c000000 	stceq	0, cr0, [r0], {-0}
     ce8:	00059b0b 	andeq	r9, r5, fp, lsl #22
     cec:	1b370300 	blne	dc18f4 <_bsl_base_address+0xbbf8f4>
     cf0:	0000001d 	andeq	r0, r0, sp, lsl r0
     cf4:	785f0e10 	ldmdavc	pc, {r4, r9, sl, fp}^	; <UNPREDICTABLE>
     cf8:	0b380300 	bleq	e01900 <_bsl_base_address+0xbff900>
     cfc:	00000177 	andeq	r0, r0, r7, ror r1
     d00:	040f0014 	streq	r0, [pc], #-20	; d08 <_reclaim_reent+0x10>
     d04:	00000117 	andeq	r0, r0, r7, lsl r1
     d08:	0000f308 	andeq	pc, r0, r8, lsl #6
     d0c:	00018700 	andeq	r8, r1, r0, lsl #14
     d10:	00240900 	eoreq	r0, r4, r0, lsl #18
     d14:	00000000 	andeq	r0, r0, r0
     d18:	00037c0d 	andeq	r7, r3, sp, lsl #24
     d1c:	3c032400 	cfstrscc	mvf2, [r3], {-0}
     d20:	00020a08 	andeq	r0, r2, r8, lsl #20
     d24:	02a10b00 	adceq	r0, r1, #0, 22
     d28:	3e030000 	cdpcc	0, 0, cr0, cr3, cr0, {0}
     d2c:	00001d09 	andeq	r1, r0, r9, lsl #26
     d30:	370b0000 	strcc	r0, [fp, -r0]
     d34:	03000005 	movweq	r0, #5
     d38:	001d093f 	andseq	r0, sp, pc, lsr r9
     d3c:	0b040000 	bleq	100d44 <__data_load__+0xffee4>
     d40:	000002b6 			; <UNDEFINED> instruction: 0x000002b6
     d44:	1d094003 	stcne	0, cr4, [r9, #-12]
     d48:	08000000 	stmdaeq	r0, {}	; <UNPREDICTABLE>
     d4c:	00060e0b 	andeq	r0, r6, fp, lsl #28
     d50:	09410300 	stmdbeq	r1, {r8, r9}^
     d54:	0000001d 	andeq	r0, r0, sp, lsl r0
     d58:	03fc0b0c 	mvnseq	r0, #12, 22	; 0x3000
     d5c:	42030000 	andmi	r0, r3, #0
     d60:	00001d09 	andeq	r1, r0, r9, lsl #26
     d64:	eb0b1000 	bl	2c4d6c <_bsl_base_address+0xc2d6c>
     d68:	03000003 	movweq	r0, #3
     d6c:	001d0943 	andseq	r0, sp, r3, asr #18
     d70:	0b140000 	bleq	500d78 <_bsl_base_address+0x2fed78>
     d74:	000005a0 	andeq	r0, r0, r0, lsr #11
     d78:	1d094403 	cfstrsne	mvf4, [r9, #-12]
     d7c:	18000000 	stmdane	r0, {}	; <UNPREDICTABLE>
     d80:	00045f0b 	andeq	r5, r4, fp, lsl #30
     d84:	09450300 	stmdbeq	r5, {r8, r9}^
     d88:	0000001d 	andeq	r0, r0, sp, lsl r0
     d8c:	05d50b1c 	ldrbeq	r0, [r5, #2844]	; 0xb1c
     d90:	46030000 	strmi	r0, [r3], -r0
     d94:	00001d09 	andeq	r1, r0, r9, lsl #26
     d98:	10002000 	andne	r2, r0, r0
     d9c:	000002c5 	andeq	r0, r0, r5, asr #5
     da0:	4f030108 	svcmi	0x00030108
     da4:	00024f08 	andeq	r4, r2, r8, lsl #30
     da8:	03310b00 	teqeq	r1, #0, 22
     dac:	50030000 	andpl	r0, r3, r0
     db0:	00024f0a 	andeq	r4, r2, sl, lsl #30
     db4:	310b0000 	mrscc	r0, (UNDEF: 11)
     db8:	03000002 	movweq	r0, #2
     dbc:	024f0951 	subeq	r0, pc, #1327104	; 0x144000
     dc0:	11800000 	orrne	r0, r0, r0
     dc4:	00000553 	andeq	r0, r0, r3, asr r5
     dc8:	f30a5303 	vcgt.u8	d5, d10, d3
     dcc:	00000000 	andeq	r0, r0, r0
     dd0:	02ea1101 	rsceq	r1, sl, #1073741824	; 0x40000000
     dd4:	56030000 	strpl	r0, [r3], -r0
     dd8:	0000f30a 	andeq	pc, r0, sl, lsl #6
     ddc:	00010400 	andeq	r0, r1, r0, lsl #8
     de0:	0000f108 	andeq	pc, r0, r8, lsl #2
     de4:	00025f00 	andeq	r5, r2, r0, lsl #30
     de8:	00240900 	eoreq	r0, r4, r0, lsl #18
     dec:	001f0000 	andseq	r0, pc, r0
     df0:	00021d10 	andeq	r1, r2, r0, lsl sp
     df4:	03019000 	movweq	r9, #4096	; 0x1000
     df8:	02a20862 	adceq	r0, r2, #6422528	; 0x620000
     dfc:	ca0b0000 	bgt	2c0e04 <_bsl_base_address+0xbee04>
     e00:	03000004 	movweq	r0, #4
     e04:	02a21263 	adceq	r1, r2, #805306374	; 0x30000006
     e08:	0b000000 	bleq	e10 <all_implied_fbits+0x1c>
     e0c:	000004db 	ldrdeq	r0, [r0], -fp
     e10:	1d066403 	cfstrsne	mvf6, [r6, #-12]
     e14:	04000000 	streq	r0, [r0], #-0
     e18:	0003390b 	andeq	r3, r3, fp, lsl #18
     e1c:	09660300 	stmdbeq	r6!, {r8, r9}^
     e20:	000002a8 	andeq	r0, r0, r8, lsr #5
     e24:	02c50b08 	sbceq	r0, r5, #8, 22	; 0x2000
     e28:	67030000 	strvs	r0, [r3, -r0]
     e2c:	00020a1e 	andeq	r0, r2, lr, lsl sl
     e30:	0f008800 	svceq	0x00008800
     e34:	00025f04 	andeq	r5, r2, r4, lsl #30
     e38:	02b80800 	adcseq	r0, r8, #0, 16
     e3c:	02b80000 	adcseq	r0, r8, #0
     e40:	24090000 	strcs	r0, [r9], #-0
     e44:	1f000000 	svcne	0x00000000
     e48:	be040f00 	cdplt	15, 0, cr0, cr4, cr0, {0}
     e4c:	12000002 	andne	r0, r0, #2
     e50:	0004690d 	andeq	r6, r4, sp, lsl #18
     e54:	7a030800 	bvc	c2e5c <__data_load__+0xc1ffc>
     e58:	0002e708 	andeq	lr, r2, r8, lsl #14
     e5c:	0a650b00 	beq	1943a64 <_bsl_base_address+0x1741a64>
     e60:	7b030000 	blvc	c0e68 <__data_load__+0xc0008>
     e64:	0002e711 	andeq	lr, r2, r1, lsl r7
     e68:	280b0000 	stmdacs	fp, {}	; <UNPREDICTABLE>
     e6c:	03000009 	movweq	r0, #9
     e70:	001d067c 	andseq	r0, sp, ip, ror r6
     e74:	00040000 	andeq	r0, r4, r0
     e78:	004d040f 	subeq	r0, sp, pc, lsl #8
     e7c:	b40d0000 	strlt	r0, [sp], #-0
     e80:	68000004 	stmdavs	r0, {r2}
     e84:	3008ba03 	andcc	fp, r8, r3, lsl #20
     e88:	0e000004 	cdpeq	0, 0, cr0, cr0, cr4, {0}
     e8c:	0300705f 	movweq	r7, #95	; 0x5f
     e90:	02e712bb 	rsceq	r1, r7, #-1342177269	; 0xb000000b
     e94:	0e000000 	cdpeq	0, 0, cr0, cr0, cr0, {0}
     e98:	0300725f 	movweq	r7, #607	; 0x25f
     e9c:	001d07bc 			; <UNDEFINED> instruction: 0x001d07bc
     ea0:	0e040000 	cdpeq	0, 0, cr0, cr4, cr0, {0}
     ea4:	0300775f 	movweq	r7, #1887	; 0x75f
     ea8:	001d07bd 			; <UNDEFINED> instruction: 0x001d07bd
     eac:	0b080000 	bleq	200eb4 <_mailbox_base_address+0xeb4>
     eb0:	000002e3 	andeq	r0, r0, r3, ror #5
     eb4:	5409be03 	strpl	fp, [r9], #-3587	; 0xfffff1fd
     eb8:	0c000000 	stceq	0, cr0, [r0], {-0}
     ebc:	0003980b 	andeq	r9, r3, fp, lsl #16
     ec0:	09bf0300 	ldmibeq	pc!, {r8, r9}	; <UNPREDICTABLE>
     ec4:	00000054 	andeq	r0, r0, r4, asr r0
     ec8:	625f0e0e 	subsvs	r0, pc, #14, 28	; 0xe0
     ecc:	c0030066 	andgt	r0, r3, r6, rrx
     ed0:	0002bf11 	andeq	fp, r2, r1, lsl pc
     ed4:	700b1000 	andvc	r1, fp, r0
     ed8:	03000002 	movweq	r0, #2
     edc:	001d07c1 	andseq	r0, sp, r1, asr #15
     ee0:	0b180000 	bleq	600ee8 <_bsl_base_address+0x3feee8>
     ee4:	000002d3 	ldrdeq	r0, [r0], -r3
     ee8:	f10ac803 			; <UNDEFINED> instruction: 0xf10ac803
     eec:	1c000000 	stcne	0, cr0, [r0], {-0}
     ef0:	00036c0b 	andeq	r6, r3, fp, lsl #24
     ef4:	1dca0300 	stclne	3, cr0, [sl]
     ef8:	000005b4 			; <UNDEFINED> instruction: 0x000005b4
     efc:	03e40b20 	mvneq	r0, #32, 22	; 0x8000
     f00:	cc030000 	stcgt	0, cr0, [r3], {-0}
     f04:	0005de1d 	andeq	sp, r5, sp, lsl lr
     f08:	290b2400 	stmdbcs	fp, {sl, sp}
     f0c:	03000005 	movweq	r0, #5
     f10:	06020dcf 	streq	r0, [r2], -pc, asr #27
     f14:	0b280000 	bleq	a00f1c <_bsl_base_address+0x7fef1c>
     f18:	000005ef 	andeq	r0, r0, pc, ror #11
     f1c:	1c09d003 	stcne	0, cr13, [r9], {3}
     f20:	2c000006 	stccs	0, cr0, [r0], {6}
     f24:	62755f0e 	rsbsvs	r5, r5, #14, 30	; 0x38
     f28:	11d30300 	bicsne	r0, r3, r0, lsl #6
     f2c:	000002bf 			; <UNDEFINED> instruction: 0x000002bf
     f30:	755f0e30 	ldrbvc	r0, [pc, #-3632]	; 108 <_mainCRTStartup+0x64>
     f34:	d4030070 	strle	r0, [r3], #-112	; 0xffffff90
     f38:	0002e712 	andeq	lr, r2, r2, lsl r7
     f3c:	5f0e3800 	svcpl	0x000e3800
     f40:	03007275 	movweq	r7, #629	; 0x275
     f44:	001d07d5 			; <UNDEFINED> instruction: 0x001d07d5
     f48:	0b3c0000 	bleq	f00f50 <_bsl_base_address+0xcfef50>
     f4c:	000002b0 			; <UNDEFINED> instruction: 0x000002b0
     f50:	2211d803 	andscs	sp, r1, #196608	; 0x30000
     f54:	40000006 	andmi	r0, r0, r6
     f58:	0005c70b 	andeq	ip, r5, fp, lsl #14
     f5c:	11d90300 	bicsne	r0, r9, r0, lsl #6
     f60:	00000632 	andeq	r0, r0, r2, lsr r6
     f64:	6c5f0e43 	mrrcvs	14, 4, r0, pc, cr3	; <UNPREDICTABLE>
     f68:	dc030062 	stcle	0, cr0, [r3], {98}	; 0x62
     f6c:	0002bf11 	andeq	fp, r2, r1, lsl pc
     f70:	f90b4400 			; <UNDEFINED> instruction: 0xf90b4400
     f74:	03000002 	movweq	r0, #2
     f78:	001d07df 			; <UNDEFINED> instruction: 0x001d07df
     f7c:	0b4c0000 	bleq	1300f84 <_bsl_base_address+0x10fef84>
     f80:	0000030a 	andeq	r0, r0, sl, lsl #6
     f84:	770ae003 	strvc	lr, [sl, -r3]
     f88:	50000000 	andpl	r0, r0, r0
     f8c:	00073a0b 	andeq	r3, r7, fp, lsl #20
     f90:	12e30300 	rscne	r0, r3, #0, 6
     f94:	0000044e 	andeq	r0, r0, lr, asr #8
     f98:	08fd0b54 	ldmeq	sp!, {r2, r4, r6, r8, r9, fp}^
     f9c:	e7030000 	str	r0, [r3, -r0]
     fa0:	00010b0c 	andeq	r0, r1, ip, lsl #22
     fa4:	bc0b5800 	stclt	8, cr5, [fp], {-0}
     fa8:	03000004 	movweq	r0, #4
     fac:	00e50ee9 	rsceq	r0, r5, r9, ror #29
     fb0:	0b5c0000 	bleq	1700fb8 <_bsl_base_address+0x14fefb8>
     fb4:	000003dc 	ldrdeq	r0, [r0], -ip
     fb8:	1d09ea03 	vstrne	s28, [r9, #-12]
     fbc:	64000000 	strvs	r0, [r0], #-0
     fc0:	001d1300 	andseq	r1, sp, r0, lsl #6
     fc4:	044e0000 	strbeq	r0, [lr], #-0
     fc8:	4e140000 	cdpmi	0, 1, cr0, cr4, cr0, {0}
     fcc:	14000004 	strne	r0, [r0], #-4
     fd0:	000000f1 	strdeq	r0, [r0], -r1
     fd4:	0005a214 	andeq	sl, r5, r4, lsl r2
     fd8:	001d1400 	andseq	r1, sp, r0, lsl #8
     fdc:	0f000000 	svceq	0x00000000
     fe0:	00045904 	andeq	r5, r4, r4, lsl #18
     fe4:	044e1500 	strbeq	r1, [lr], #-1280	; 0xfffffb00
     fe8:	ab160000 	blge	580ff0 <_bsl_base_address+0x37eff0>
     fec:	2800000c 	stmdacs	r0, {r2, r3}
     ff0:	02650304 	rsbeq	r0, r5, #4, 6	; 0x10000000
     ff4:	0005a208 	andeq	sl, r5, r8, lsl #4
     ff8:	04581700 	ldrbeq	r1, [r8], #-1792	; 0xfffff900
     ffc:	67030000 	strvs	r0, [r3, -r0]
    1000:	001d0702 	andseq	r0, sp, r2, lsl #14
    1004:	17000000 	strne	r0, [r0, -r0]
    1008:	000002f2 	strdeq	r0, [r0], -r2
    100c:	0b026c03 	bleq	9c020 <__data_load__+0x9b1c0>
    1010:	0000068e 	andeq	r0, r0, lr, lsl #13
    1014:	03881704 	orreq	r1, r8, #4, 14	; 0x100000
    1018:	6c030000 	stcvs	0, cr0, [r3], {-0}
    101c:	068e1402 	streq	r1, [lr], r2, lsl #8
    1020:	17080000 	strne	r0, [r8, -r0]
    1024:	0000034d 	andeq	r0, r0, sp, asr #6
    1028:	1e026c03 	cdpne	12, 0, cr6, cr2, cr3, {0}
    102c:	0000068e 	andeq	r0, r0, lr, lsl #13
    1030:	04d6170c 	ldrbeq	r1, [r6], #1804	; 0x70c
    1034:	6e030000 	cdpvs	0, 0, cr0, cr3, cr0, {0}
    1038:	001d0802 	andseq	r0, sp, r2, lsl #16
    103c:	17100000 	ldrne	r0, [r0, -r0]
    1040:	00000245 	andeq	r0, r0, r5, asr #4
    1044:	08026f03 	stmdaeq	r2, {r0, r1, r8, r9, sl, fp, sp, lr}
    1048:	0000088e 	andeq	r0, r0, lr, lsl #17
    104c:	04f21714 	ldrbteq	r1, [r2], #1812	; 0x714
    1050:	72030000 	andvc	r0, r3, #0
    1054:	001d0702 	andseq	r0, sp, r2, lsl #14
    1058:	17300000 	ldrne	r0, [r0, -r0]!
    105c:	000004e0 	andeq	r0, r0, r0, ror #9
    1060:	16027303 	strne	r7, [r2], -r3, lsl #6
    1064:	000008a3 	andeq	r0, r0, r3, lsr #17
    1068:	04051734 	streq	r1, [r5], #-1844	; 0xfffff8cc
    106c:	75030000 	strvc	r0, [r3, #-0]
    1070:	001d0702 	andseq	r0, sp, r2, lsl #14
    1074:	17380000 	ldrne	r0, [r8, -r0]!
    1078:	000004e8 	andeq	r0, r0, r8, ror #9
    107c:	0a027703 	beq	9ec90 <__data_load__+0x9de30>
    1080:	000008b4 			; <UNDEFINED> instruction: 0x000008b4
    1084:	03c7173c 	biceq	r1, r7, #60, 14	; 0xf00000
    1088:	7a030000 	bvc	c1090 <__data_load__+0xc0230>
    108c:	01711302 	cmneq	r1, r2, lsl #6
    1090:	17400000 	strbne	r0, [r0, -r0]
    1094:	00000372 	andeq	r0, r0, r2, ror r3
    1098:	07027b03 	streq	r7, [r2, -r3, lsl #22]
    109c:	0000001d 	andeq	r0, r0, sp, lsl r0
    10a0:	06091744 	streq	r1, [r9], -r4, asr #14
    10a4:	7c030000 	stcvc	0, cr0, [r3], {-0}
    10a8:	01711302 	cmneq	r1, r2, lsl #6
    10ac:	17480000 	strbne	r0, [r8, -r0]
    10b0:	00000428 	andeq	r0, r0, r8, lsr #8
    10b4:	14027d03 	strne	r7, [r2], #-3331	; 0xfffff2fd
    10b8:	000008ba 			; <UNDEFINED> instruction: 0x000008ba
    10bc:	0390174c 	orrseq	r1, r0, #76, 14	; 0x1300000
    10c0:	80030000 	andhi	r0, r3, r0
    10c4:	001d0702 	andseq	r0, sp, r2, lsl #14
    10c8:	17500000 	ldrbne	r0, [r0, -r0]
    10cc:	00000302 	andeq	r0, r0, r2, lsl #6
    10d0:	09028103 	stmdbeq	r2, {r0, r1, r8, pc}
    10d4:	000005a2 	andeq	r0, r0, r2, lsr #11
    10d8:	04511754 	ldrbeq	r1, [r1], #-1876	; 0xfffff8ac
    10dc:	a4030000 	strge	r0, [r3], #-0
    10e0:	08690702 	stmdaeq	r9!, {r1, r8, r9, sl}^
    10e4:	18580000 	ldmdane	r8, {}^	; <UNPREDICTABLE>
    10e8:	0000021d 	andeq	r0, r0, sp, lsl r2
    10ec:	1302a803 	movwne	sl, #10243	; 0x2803
    10f0:	000002a2 	andeq	r0, r0, r2, lsr #5
    10f4:	a5180148 	ldrge	r0, [r8, #-328]	; 0xfffffeb8
    10f8:	03000003 	movweq	r0, #3
    10fc:	5f1202a9 	svcpl	0x001202a9
    1100:	4c000002 	stcmi	0, cr0, [r0], {2}
    1104:	05bd1801 	ldreq	r1, [sp, #2049]!	; 0x801
    1108:	ad030000 	stcge	0, cr0, [r3, #-0]
    110c:	08cb0c02 	stmiaeq	fp, {r1, sl, fp}^
    1110:	02dc0000 	sbcseq	r0, ip, #0
    1114:	0002db18 	andeq	sp, r2, r8, lsl fp
    1118:	02b20300 	adcseq	r0, r2, #0, 6
    111c:	00064f10 	andeq	r4, r6, r0, lsl pc
    1120:	1802e000 	stmdane	r2, {sp, lr, pc}
    1124:	000002c0 	andeq	r0, r0, r0, asr #5
    1128:	0a02b403 	beq	ae13c <__data_load__+0xad2dc>
    112c:	000008d7 	ldrdeq	r0, [r0], -r7
    1130:	0f0002ec 	svceq	0x000002ec
    1134:	0005a804 	andeq	sl, r5, r4, lsl #16
    1138:	08010300 	stmdaeq	r1, {r8, r9}
    113c:	000000ba 	strheq	r0, [r0], -sl
    1140:	0005a815 	andeq	sl, r5, r5, lsl r8
    1144:	30040f00 	andcc	r0, r4, r0, lsl #30
    1148:	13000004 	movwne	r0, #4
    114c:	0000001d 	andeq	r0, r0, sp, lsl r0
    1150:	000005d8 	ldrdeq	r0, [r0], -r8
    1154:	00044e14 	andeq	r4, r4, r4, lsl lr
    1158:	00f11400 	rscseq	r1, r1, r0, lsl #8
    115c:	d8140000 	ldmdale	r4, {}	; <UNPREDICTABLE>
    1160:	14000005 	strne	r0, [r0], #-5
    1164:	0000001d 	andeq	r0, r0, sp, lsl r0
    1168:	af040f00 	svcge	0x00040f00
    116c:	0f000005 	svceq	0x00000005
    1170:	0005ba04 	andeq	fp, r5, r4, lsl #20
    1174:	00831300 	addeq	r1, r3, r0, lsl #6
    1178:	06020000 	streq	r0, [r2], -r0
    117c:	4e140000 	cdpmi	0, 1, cr0, cr4, cr0, {0}
    1180:	14000004 	strne	r0, [r0], #-4
    1184:	000000f1 	strdeq	r0, [r0], -r1
    1188:	00008314 	andeq	r8, r0, r4, lsl r3
    118c:	001d1400 	andseq	r1, sp, r0, lsl #8
    1190:	0f000000 	svceq	0x00000000
    1194:	0005e404 	andeq	lr, r5, r4, lsl #8
    1198:	001d1300 	andseq	r1, sp, r0, lsl #6
    119c:	061c0000 	ldreq	r0, [ip], -r0
    11a0:	4e140000 	cdpmi	0, 1, cr0, cr4, cr0, {0}
    11a4:	14000004 	strne	r0, [r0], #-4
    11a8:	000000f1 	strdeq	r0, [r0], -r1
    11ac:	08040f00 	stmdaeq	r4, {r8, r9, sl, fp}
    11b0:	08000006 	stmdaeq	r0, {r1, r2}
    11b4:	0000004d 	andeq	r0, r0, sp, asr #32
    11b8:	00000632 	andeq	r0, r0, r2, lsr r6
    11bc:	00002409 	andeq	r2, r0, r9, lsl #8
    11c0:	08000200 	stmdaeq	r0, {r9}
    11c4:	0000004d 	andeq	r0, r0, sp, asr #32
    11c8:	00000642 	andeq	r0, r0, r2, asr #12
    11cc:	00002409 	andeq	r2, r0, r9, lsl #8
    11d0:	04000000 	streq	r0, [r0], #-0
    11d4:	000004a2 	andeq	r0, r0, r2, lsr #9
    11d8:	1a012403 	bne	4a1ec <__data_load__+0x4938c>
    11dc:	000002ed 	andeq	r0, r0, sp, ror #5
    11e0:	000cc119 	andeq	ip, ip, r9, lsl r1
    11e4:	28030c00 	stmdacs	r3, {sl, fp}
    11e8:	06880801 	streq	r0, [r8], r1, lsl #16
    11ec:	ca170000 	bgt	5c11f4 <_bsl_base_address+0x3bf1f4>
    11f0:	03000004 	movweq	r0, #4
    11f4:	8811012a 	ldmdahi	r1, {r1, r3, r5, r8}
    11f8:	00000006 	andeq	r0, r0, r6
    11fc:	00039e17 	andeq	r9, r3, r7, lsl lr
    1200:	012b0300 			; <UNDEFINED> instruction: 0x012b0300
    1204:	00001d07 	andeq	r1, r0, r7, lsl #26
    1208:	d0170400 	andsle	r0, r7, r0, lsl #8
    120c:	03000004 	movweq	r0, #4
    1210:	8e0b012c 	adfhiep	f0, f3, #4.0
    1214:	08000006 	stmdaeq	r0, {r1, r2}
    1218:	4f040f00 	svcmi	0x00040f00
    121c:	0f000006 	svceq	0x00000006
    1220:	00064204 	andeq	r4, r6, r4, lsl #4
    1224:	023d1900 	eorseq	r1, sp, #0, 18
    1228:	030e0000 	movweq	r0, #57344	; 0xe000
    122c:	cd080144 	stfgts	f0, [r8, #-272]	; 0xfffffef0
    1230:	17000006 	strne	r0, [r0, -r6]
    1234:	00000513 	andeq	r0, r0, r3, lsl r5
    1238:	12014503 	andne	r4, r1, #12582912	; 0xc00000
    123c:	000006cd 	andeq	r0, r0, sp, asr #13
    1240:	05401700 	strbeq	r1, [r0, #-1792]	; 0xfffff900
    1244:	46030000 	strmi	r0, [r3], -r0
    1248:	06cd1201 	strbeq	r1, [sp], r1, lsl #4
    124c:	17060000 	strne	r0, [r6, -r0]
    1250:	0000055c 	andeq	r0, r0, ip, asr r5
    1254:	12014703 	andne	r4, r1, #786432	; 0xc0000
    1258:	0000005b 	andeq	r0, r0, fp, asr r0
    125c:	5b08000c 	blpl	201294 <_tlv_base_address+0x294>
    1260:	dd000000 	stcle	0, cr0, [r0, #-0]
    1264:	09000006 	stmdbeq	r0, {r1, r2}
    1268:	00000024 	andeq	r0, r0, r4, lsr #32
    126c:	d01a0002 	andsle	r0, sl, r2
    1270:	07028503 	streq	r8, [r2, -r3, lsl #10]
    1274:	000007f2 	strdeq	r0, [r0], -r2
    1278:	00058e17 	andeq	r8, r5, r7, lsl lr
    127c:	02870300 	addeq	r0, r7, #0, 6
    1280:	00002418 	andeq	r2, r0, r8, lsl r4
    1284:	46170000 	ldrmi	r0, [r7], -r0
    1288:	03000005 	movweq	r0, #5
    128c:	a2120288 	andsge	r0, r2, #136, 4	; 0x80000008
    1290:	04000005 	streq	r0, [r0], #-5
    1294:	0003ba17 	andeq	fp, r3, r7, lsl sl
    1298:	02890300 	addeq	r0, r9, #0, 6
    129c:	0007f210 	andeq	pc, r7, r0, lsl r2	; <UNPREDICTABLE>
    12a0:	e0170800 	ands	r0, r7, r0, lsl #16
    12a4:	03000005 	movweq	r0, #5
    12a8:	8717028a 	ldrhi	r0, [r7, -sl, lsl #5]
    12ac:	24000001 	strcs	r0, [r0], #-1
    12b0:	00035d17 	andeq	r5, r3, r7, lsl sp
    12b4:	028b0300 	addeq	r0, fp, #0, 6
    12b8:	00001d0f 	andeq	r1, r0, pc, lsl #26
    12bc:	c5174800 	ldrgt	r4, [r7, #-2048]	; 0xfffff800
    12c0:	03000004 	movweq	r0, #4
    12c4:	702c028c 	eorvc	r0, ip, ip, lsl #5
    12c8:	50000000 	andpl	r0, r0, r0
    12cc:	0005f617 	andeq	pc, r5, r7, lsl r6	; <UNPREDICTABLE>
    12d0:	028d0300 	addeq	r0, sp, #0, 6
    12d4:	0006941a 	andeq	r9, r6, sl, lsl r4
    12d8:	44175800 	ldrmi	r5, [r7], #-2048	; 0xfffff800
    12dc:	03000004 	movweq	r0, #4
    12e0:	e516028e 	ldr	r0, [r6, #-654]	; 0xfffffd72
    12e4:	68000000 	stmdavs	r0, {}	; <UNPREDICTABLE>
    12e8:	0005fb17 	andeq	pc, r5, r7, lsl fp	; <UNPREDICTABLE>
    12ec:	028f0300 	addeq	r0, pc, #0, 6
    12f0:	0000e516 	andeq	lr, r0, r6, lsl r5
    12f4:	93177000 	tstls	r7, #0
    12f8:	03000002 	movweq	r0, #2
    12fc:	e5160290 	ldr	r0, [r6, #-656]	; 0xfffffd70
    1300:	78000000 	stmdavc	r0, {}	; <UNPREDICTABLE>
    1304:	0005b317 	andeq	fp, r5, r7, lsl r3
    1308:	02910300 	addseq	r0, r1, #0, 6
    130c:	00080210 	andeq	r0, r8, r0, lsl r2
    1310:	ae178000 	cdpge	0, 1, cr8, cr7, cr0, {0}
    1314:	03000003 	movweq	r0, #3
    1318:	12100292 	andsne	r0, r0, #536870921	; 0x20000009
    131c:	88000008 	stmdahi	r0, {r3}
    1320:	00056917 	andeq	r6, r5, r7, lsl r9
    1324:	02930300 	addseq	r0, r3, #0, 6
    1328:	00001d0f 	andeq	r1, r0, pc, lsl #26
    132c:	2317a000 	tstcs	r7, #0
    1330:	03000003 	movweq	r0, #3
    1334:	e5160294 	ldr	r0, [r6, #-660]	; 0xfffffd6c
    1338:	a4000000 	strge	r0, [r0], #-0
    133c:	00028417 	andeq	r8, r2, r7, lsl r4
    1340:	02950300 	addseq	r0, r5, #0, 6
    1344:	0000e516 	andeq	lr, r0, r6, lsl r5
    1348:	1217ac00 	andsne	sl, r7, #0, 24
    134c:	03000003 	movweq	r0, #3
    1350:	e5160296 	ldr	r0, [r6, #-662]	; 0xfffffd6a
    1354:	b4000000 	strlt	r0, [r0], #-0
    1358:	00025017 	andeq	r5, r2, r7, lsl r0
    135c:	02970300 	addseq	r0, r7, #0, 6
    1360:	0000e516 	andeq	lr, r0, r6, lsl r5
    1364:	5f17bc00 	svcpl	0x0017bc00
    1368:	03000002 	movweq	r0, #2
    136c:	e5160298 	ldr	r0, [r6, #-664]	; 0xfffffd68
    1370:	c4000000 	strgt	r0, [r0], #-0
    1374:	00045617 	andeq	r5, r4, r7, lsl r6
    1378:	02990300 	addseq	r0, r9, #0, 6
    137c:	00001d08 	andeq	r1, r0, r8, lsl #26
    1380:	0800cc00 	stmdaeq	r0, {sl, fp, lr, pc}
    1384:	000005a8 	andeq	r0, r0, r8, lsr #11
    1388:	00000802 	andeq	r0, r0, r2, lsl #16
    138c:	00002409 	andeq	r2, r0, r9, lsl #8
    1390:	08001900 	stmdaeq	r0, {r8, fp, ip}
    1394:	000005a8 	andeq	r0, r0, r8, lsr #11
    1398:	00000812 	andeq	r0, r0, r2, lsl r8
    139c:	00002409 	andeq	r2, r0, r9, lsl #8
    13a0:	08000700 	stmdaeq	r0, {r8, r9, sl}
    13a4:	000005a8 	andeq	r0, r0, r8, lsr #11
    13a8:	00000822 	andeq	r0, r0, r2, lsr #16
    13ac:	00002409 	andeq	r2, r0, r9, lsl #8
    13b0:	1a001700 	bne	6fb8 <__data_load__+0x6158>
    13b4:	029e03f0 	addseq	r0, lr, #240, 6	; 0xc0000003
    13b8:	00084907 	andeq	r4, r8, r7, lsl #18
    13bc:	03f51700 	mvnseq	r1, #0, 14
    13c0:	a1030000 	mrsge	r0, (UNDEF: 3)
    13c4:	08491b02 	stmdaeq	r9, {r1, r8, r9, fp, ip}^
    13c8:	17000000 	strne	r0, [r0, -r0]
    13cc:	000005aa 	andeq	r0, r0, sl, lsr #11
    13d0:	1802a203 	stmdane	r2, {r0, r1, r9, sp, pc}
    13d4:	00000859 	andeq	r0, r0, r9, asr r8
    13d8:	e7080078 	smlsdx	r8, r8, r0, r0
    13dc:	59000002 	stmdbpl	r0, {r1}
    13e0:	09000008 	stmdbeq	r0, {r3}
    13e4:	00000024 	andeq	r0, r0, r4, lsr #32
    13e8:	2408001d 	strcs	r0, [r8], #-29	; 0xffffffe3
    13ec:	69000000 	stmdbvs	r0, {}	; <UNPREDICTABLE>
    13f0:	09000008 	stmdbeq	r0, {r3}
    13f4:	00000024 	andeq	r0, r0, r4, lsr #32
    13f8:	f01b001d 			; <UNDEFINED> instruction: 0xf01b001d
    13fc:	03028303 	movweq	r8, #8963	; 0x2303
    1400:	0000088e 	andeq	r0, r0, lr, lsl #17
    1404:	000cab1c 	andeq	sl, ip, ip, lsl fp
    1408:	029a0300 	addseq	r0, sl, #0, 6
    140c:	0006dd0b 	andeq	sp, r6, fp, lsl #26
    1410:	05cd1c00 	strbeq	r1, [sp, #3072]	; 0xc00
    1414:	a3030000 	movwge	r0, #12288	; 0x3000
    1418:	08220b02 	stmdaeq	r2!, {r1, r8, r9, fp}
    141c:	08000000 	stmdaeq	r0, {}	; <UNPREDICTABLE>
    1420:	000005a8 	andeq	r0, r0, r8, lsr #11
    1424:	0000089e 	muleq	r0, lr, r8
    1428:	00002409 	andeq	r2, r0, r9, lsl #8
    142c:	1d001800 	stcne	8, cr1, [r0, #-0]
    1430:	00000279 	andeq	r0, r0, r9, ror r2
    1434:	089e040f 	ldmeq	lr, {r0, r1, r2, r3, sl}
    1438:	b41e0000 	ldrlt	r0, [lr], #-0
    143c:	14000008 	strne	r0, [r0], #-8
    1440:	0000044e 	andeq	r0, r0, lr, asr #8
    1444:	a9040f00 	stmdbge	r4, {r8, r9, sl, fp}
    1448:	0f000008 	svceq	0x00000008
    144c:	00017104 	andeq	r7, r1, r4, lsl #2
    1450:	08cb1e00 	stmiaeq	fp, {r9, sl, fp, ip}^
    1454:	1d140000 	ldcne	0, cr0, [r4, #-0]
    1458:	00000000 	andeq	r0, r0, r0
    145c:	08d1040f 	ldmeq	r1, {r0, r1, r2, r3, sl}^
    1460:	040f0000 	streq	r0, [pc], #-0	; 1468 <__data_load__+0x608>
    1464:	000008c0 	andeq	r0, r0, r0, asr #17
    1468:	00064208 	andeq	r4, r6, r8, lsl #4
    146c:	0008e700 	andeq	lr, r8, r0, lsl #14
    1470:	00240900 	eoreq	r0, r4, r0, lsl #18
    1474:	00020000 	andeq	r0, r2, r0
    1478:	00057d1f 	andeq	r7, r5, pc, lsl sp
    147c:	03330300 	teqeq	r3, #0, 6
    1480:	00044e17 	andeq	r4, r4, r7, lsl lr
    1484:	05761f00 	ldrbeq	r1, [r6, #-3840]!	; 0xfffff100
    1488:	34030000 	strcc	r0, [r3], #-0
    148c:	04541d03 	ldrbeq	r1, [r4], #-3331	; 0xfffff2fd
    1490:	34200000 	strtcc	r0, [r0], #-0
    1494:	05000007 	streq	r0, [r0, #-7]
    1498:	04593017 	ldrbeq	r3, [r9], #-23	; 0xffffffe9
    149c:	03050000 	movweq	r0, #20480	; 0x5000
    14a0:	20000038 	andcs	r0, r0, r8, lsr r0
    14a4:	0008e721 	andeq	lr, r8, r1, lsr #14
    14a8:	30030500 	andcc	r0, r3, r0, lsl #10
    14ac:	21200000 			; <UNDEFINED> instruction: 0x21200000
    14b0:	000008f4 	strdeq	r0, [r0], -r4
    14b4:	0e2c0305 	cdpeq	3, 2, cr0, cr12, cr5, {0}
    14b8:	16000000 	strne	r0, [r0], -r0
    14bc:	04000001 	streq	r0, [r0], #-1
    14c0:	00055800 	andeq	r5, r5, r0, lsl #16
    14c4:	6c010400 	cfstrsvs	mvf0, [r1], {-0}
    14c8:	0c000001 	stceq	0, cr0, [r0], {1}
    14cc:	000007d9 	ldrdeq	r0, [r0], -r9
    14d0:	00000685 	andeq	r0, r0, r5, lsl #13
    14d4:	0000022c 	andeq	r0, r0, ip, lsr #4
    14d8:	00000044 	andeq	r0, r0, r4, asr #32
    14dc:	0000049b 	muleq	r0, fp, r4
    14e0:	b3060102 	movwlt	r0, #24834	; 0x6102
    14e4:	02000000 	andeq	r0, r0, #0
    14e8:	00b10801 	adcseq	r0, r1, r1, lsl #16
    14ec:	02020000 	andeq	r0, r2, #0
    14f0:	00020f05 	andeq	r0, r2, r5, lsl #30
    14f4:	07020200 	streq	r0, [r2, -r0, lsl #4]
    14f8:	000001f0 	strdeq	r0, [r0], -r0	; <UNPREDICTABLE>
    14fc:	99050402 	stmdbls	r5, {r1, sl}
    1500:	02000000 	andeq	r0, r0, #0
    1504:	01510704 	cmpeq	r1, r4, lsl #14
    1508:	08020000 	stmdaeq	r2, {}	; <UNPREDICTABLE>
    150c:	00009405 	andeq	r9, r0, r5, lsl #8
    1510:	07080200 	streq	r0, [r8, -r0, lsl #4]
    1514:	0000014c 	andeq	r0, r0, ip, asr #2
    1518:	69050403 	stmdbvs	r5, {r0, r1, sl}
    151c:	0200746e 	andeq	r7, r0, #1845493760	; 0x6e000000
    1520:	01560704 	cmpeq	r6, r4, lsl #14
    1524:	18040000 	stmdane	r4, {}	; <UNPREDICTABLE>
    1528:	02000006 	andeq	r0, r0, #6
    152c:	006417d1 	ldrdeq	r1, [r4], #-113	; 0xffffff8f	; <UNPREDICTABLE>
    1530:	08020000 	stmdaeq	r2, {}	; <UNPREDICTABLE>
    1534:	00020304 	andeq	r0, r2, r4, lsl #6
    1538:	08010200 	stmdaeq	r1, {r9}
    153c:	000000ba 	strheq	r0, [r0], -sl
    1540:	00009005 	andeq	r9, r0, r5
    1544:	00009000 	andeq	r9, r0, r0
    1548:	07000600 	streq	r0, [r0, -r0, lsl #12]
    154c:	00009604 	andeq	r9, r0, r4, lsl #12
    1550:	98090800 	stmdals	r9, {fp}
    1554:	01000007 	tsteq	r0, r7
    1558:	00850f13 	addeq	r0, r5, r3, lsl pc
    155c:	b4090000 	strlt	r0, [r9], #-0
    1560:	01000007 	tsteq	r0, r7
    1564:	00850f14 	addeq	r0, r5, r4, lsl pc
    1568:	73090000 	movwvc	r0, #36864	; 0x9000
    156c:	01000007 	tsteq	r0, r7
    1570:	00850f15 	addeq	r0, r5, r5, lsl pc
    1574:	c8090000 	stmdagt	r9, {}	; <UNPREDICTABLE>
    1578:	01000007 	tsteq	r0, r7
    157c:	00850f16 	addeq	r0, r5, r6, lsl pc
    1580:	860a0000 	strhi	r0, [sl], -r0
    1584:	01000007 	tsteq	r0, r7
    1588:	022c011e 	eoreq	r0, ip, #-2147483641	; 0x80000007
    158c:	00440000 	subeq	r0, r4, r0
    1590:	9c010000 	stcls	0, cr0, [r1], {-0}
    1594:	0000010d 	andeq	r0, r0, sp, lsl #2
    1598:	00051b0b 	andeq	r1, r5, fp, lsl #22
    159c:	0a200100 	beq	8019a4 <_bsl_base_address+0x5ff9a4>
    15a0:	0000006b 	andeq	r0, r0, fp, rrx
    15a4:	0000009e 	muleq	r0, lr, r0
    15a8:	0000009a 	muleq	r0, sl, r0
    15ac:	0100690c 	tsteq	r0, ip, lsl #18
    15b0:	006b0a21 	rsbeq	r0, fp, r1, lsr #20
    15b4:	00cc0000 	sbceq	r0, ip, r0
    15b8:	00bc0000 	adcseq	r0, ip, r0
    15bc:	480d0000 	stmdami	sp, {}	; <UNPREDICTABLE>
    15c0:	0d000002 	stceq	0, cr0, [r0, #-8]
    15c4:	00000001 	andeq	r0, r0, r1
    15c8:	0007ae0e 	andeq	sl, r7, lr, lsl #28
    15cc:	0007ae00 	andeq	sl, r7, r0, lsl #28
    15d0:	0d190100 	ldfeqs	f0, [r9, #-0]
    15d4:	00099400 	andeq	r9, r9, r0, lsl #8
    15d8:	24000400 	strcs	r0, [r0], #-1024	; 0xfffffc00
    15dc:	04000006 	streq	r0, [r0], #-6
    15e0:	00016c01 	andeq	r6, r1, r1, lsl #24
    15e4:	081a0c00 	ldmdaeq	sl, {sl, fp}
    15e8:	00f30000 	rscseq	r0, r3, r0
    15ec:	02700000 	rsbseq	r0, r0, #0
    15f0:	00280000 	eoreq	r0, r8, r0
    15f4:	05c20000 	strbeq	r0, [r2]
    15f8:	04020000 	streq	r0, [r2], #-0
    15fc:	746e6905 	strbtvc	r6, [lr], #-2309	; 0xfffff6fb
    1600:	06180300 	ldreq	r0, [r8], -r0, lsl #6
    1604:	d1020000 	mrsle	r0, (UNDEF: 2)
    1608:	00003817 	andeq	r3, r0, r7, lsl r8
    160c:	07040400 	streq	r0, [r4, -r0, lsl #8]
    1610:	00000156 	andeq	r0, r0, r6, asr r1
    1614:	94050804 	strls	r0, [r5], #-2052	; 0xfffff7fc
    1618:	04000000 	streq	r0, [r0], #-0
    161c:	02030408 	andeq	r0, r3, #8, 8	; 0x8000000
    1620:	d5050000 	strle	r0, [r5, #-0]
    1624:	02000003 	andeq	r0, r0, #3
    1628:	3817015e 	ldmdacc	r7, {r1, r2, r3, r4, r6, r8}
    162c:	04000000 	streq	r0, [r0], #-0
    1630:	00b30601 	adcseq	r0, r3, r1, lsl #12
    1634:	01040000 	mrseq	r0, (UNDEF: 4)
    1638:	0000b108 	andeq	fp, r0, r8, lsl #2
    163c:	05020400 	streq	r0, [r2, #-1024]	; 0xfffffc00
    1640:	0000020f 	andeq	r0, r0, pc, lsl #4
    1644:	f0070204 			; <UNDEFINED> instruction: 0xf0070204
    1648:	04000001 	streq	r0, [r0], #-1
    164c:	00990504 	addseq	r0, r9, r4, lsl #10
    1650:	04040000 	streq	r0, [r4], #-0
    1654:	00015107 	andeq	r5, r1, r7, lsl #2
    1658:	07080400 	streq	r0, [r8, -r0, lsl #8]
    165c:	0000014c 	andeq	r0, r0, ip, asr #2
    1660:	00041003 	andeq	r1, r4, r3
    1664:	0e2e0300 	cdpeq	3, 2, cr0, cr14, cr0, {0}
    1668:	00000076 	andeq	r0, r0, r6, ror r0
    166c:	00052f03 	andeq	r2, r5, r3, lsl #30
    1670:	0e740300 	cdpeq	3, 7, cr0, cr4, cr0, {0}
    1674:	00000076 	andeq	r0, r0, r6, ror r0
    1678:	a5030406 	strge	r0, [r3, #-1030]	; 0xfffffbfa
    167c:	0000c503 	andeq	ip, r0, r3, lsl #10
    1680:	03cf0700 	biceq	r0, pc, #0, 14
    1684:	a7030000 	strge	r0, [r3, -r0]
    1688:	00004d0c 	andeq	r4, r0, ip, lsl #26
    168c:	03810700 	orreq	r0, r1, #0, 14
    1690:	a8030000 	stmdage	r3, {}	; <UNPREDICTABLE>
    1694:	0000c513 	andeq	ip, r0, r3, lsl r5
    1698:	61080000 	mrsvs	r0, (UNDEF: 8)
    169c:	d5000000 	strle	r0, [r0, #-0]
    16a0:	09000000 	stmdbeq	r0, {}	; <UNPREDICTABLE>
    16a4:	00000038 	andeq	r0, r0, r8, lsr r0
    16a8:	080a0003 	stmdaeq	sl, {r0, r1}
    16ac:	f909a203 			; <UNDEFINED> instruction: 0xf909a203
    16b0:	0b000000 	bleq	16b8 <__data_load__+0x858>
    16b4:	00000519 	andeq	r0, r0, r9, lsl r5
    16b8:	2507a403 	strcs	sl, [r7, #-1027]	; 0xfffffbfd
    16bc:	00000000 	andeq	r0, r0, r0
    16c0:	0005210b 	andeq	r2, r5, fp, lsl #2
    16c4:	05a90300 	streq	r0, [r9, #768]!	; 0x300
    16c8:	000000a3 	andeq	r0, r0, r3, lsr #1
    16cc:	a9030004 	stmdbge	r3, {r2}
    16d0:	03000004 	movweq	r0, #4
    16d4:	00d503aa 	sbcseq	r0, r5, sl, lsr #7
    16d8:	040c0000 	streq	r0, [ip], #-0
    16dc:	00056103 	andeq	r6, r5, r3, lsl #2
    16e0:	19160400 	ldmdbne	r6, {sl}
    16e4:	0000007d 	andeq	r0, r0, sp, ror r0
    16e8:	00043203 	andeq	r3, r4, r3, lsl #4
    16ec:	0d0c0500 	cfstr32eq	mvfx0, [ip, #-0]
    16f0:	00000025 	andeq	r0, r0, r5, lsr #32
    16f4:	00034403 	andeq	r4, r3, r3, lsl #8
    16f8:	1b230400 	blne	8c2700 <_bsl_base_address+0x6c0700>
    16fc:	00000113 	andeq	r0, r0, r3, lsl r1
    1700:	0003550d 	andeq	r5, r3, sp, lsl #10
    1704:	34041800 	strcc	r1, [r4], #-2048	; 0xfffff800
    1708:	00018508 	andeq	r8, r1, r8, lsl #10
    170c:	04ca0b00 	strbeq	r0, [sl], #2816	; 0xb00
    1710:	36040000 	strcc	r0, [r4], -r0
    1714:	00018513 	andeq	r8, r1, r3, lsl r5
    1718:	5f0e0000 	svcpl	0x000e0000
    171c:	3704006b 	strcc	r0, [r4, -fp, rrx]
    1720:	00002507 	andeq	r2, r0, r7, lsl #10
    1724:	0b0b0400 	bleq	2c272c <_bsl_base_address+0xc072c>
    1728:	04000005 	streq	r0, [r0], #-5
    172c:	00250b37 	eoreq	r0, r5, r7, lsr fp
    1730:	0b080000 	bleq	201738 <_tlv_base_address+0x738>
    1734:	0000033e 	andeq	r0, r0, lr, lsr r3
    1738:	25143704 	ldrcs	r3, [r4, #-1796]	; 0xfffff8fc
    173c:	0c000000 	stceq	0, cr0, [r0], {-0}
    1740:	00059b0b 	andeq	r9, r5, fp, lsl #22
    1744:	1b370400 	blne	dc274c <_bsl_base_address+0xbc074c>
    1748:	00000025 	andeq	r0, r0, r5, lsr #32
    174c:	785f0e10 	ldmdavc	pc, {r4, r9, sl, fp}^	; <UNPREDICTABLE>
    1750:	0b380400 	bleq	e02758 <_bsl_base_address+0xc00758>
    1754:	0000018b 	andeq	r0, r0, fp, lsl #3
    1758:	040f0014 	streq	r0, [pc], #-20	; 1760 <__data_load__+0x900>
    175c:	0000012b 	andeq	r0, r0, fp, lsr #2
    1760:	00010708 	andeq	r0, r1, r8, lsl #14
    1764:	00019b00 	andeq	r9, r1, r0, lsl #22
    1768:	00380900 	eorseq	r0, r8, r0, lsl #18
    176c:	00000000 	andeq	r0, r0, r0
    1770:	00037c0d 	andeq	r7, r3, sp, lsl #24
    1774:	3c042400 	cfstrscc	mvf2, [r4], {-0}
    1778:	00021e08 	andeq	r1, r2, r8, lsl #28
    177c:	02a10b00 	adceq	r0, r1, #0, 22
    1780:	3e040000 	cdpcc	0, 0, cr0, cr4, cr0, {0}
    1784:	00002509 	andeq	r2, r0, r9, lsl #10
    1788:	370b0000 	strcc	r0, [fp, -r0]
    178c:	04000005 	streq	r0, [r0], #-5
    1790:	0025093f 	eoreq	r0, r5, pc, lsr r9
    1794:	0b040000 	bleq	10179c <__data_load__+0x10093c>
    1798:	000002b6 			; <UNDEFINED> instruction: 0x000002b6
    179c:	25094004 	strcs	r4, [r9, #-4]
    17a0:	08000000 	stmdaeq	r0, {}	; <UNPREDICTABLE>
    17a4:	00060e0b 	andeq	r0, r6, fp, lsl #28
    17a8:	09410400 	stmdbeq	r1, {sl}^
    17ac:	00000025 	andeq	r0, r0, r5, lsr #32
    17b0:	03fc0b0c 	mvnseq	r0, #12, 22	; 0x3000
    17b4:	42040000 	andmi	r0, r4, #0
    17b8:	00002509 	andeq	r2, r0, r9, lsl #10
    17bc:	eb0b1000 	bl	2c57c4 <_bsl_base_address+0xc37c4>
    17c0:	04000003 	streq	r0, [r0], #-3
    17c4:	00250943 	eoreq	r0, r5, r3, asr #18
    17c8:	0b140000 	bleq	5017d0 <_bsl_base_address+0x2ff7d0>
    17cc:	000005a0 	andeq	r0, r0, r0, lsr #11
    17d0:	25094404 	strcs	r4, [r9, #-1028]	; 0xfffffbfc
    17d4:	18000000 	stmdane	r0, {}	; <UNPREDICTABLE>
    17d8:	00045f0b 	andeq	r5, r4, fp, lsl #30
    17dc:	09450400 	stmdbeq	r5, {sl}^
    17e0:	00000025 	andeq	r0, r0, r5, lsr #32
    17e4:	05d50b1c 	ldrbeq	r0, [r5, #2844]	; 0xb1c
    17e8:	46040000 	strmi	r0, [r4], -r0
    17ec:	00002509 	andeq	r2, r0, r9, lsl #10
    17f0:	10002000 	andne	r2, r0, r0
    17f4:	000002c5 	andeq	r0, r0, r5, asr #5
    17f8:	4f040108 	svcmi	0x00040108
    17fc:	00026308 	andeq	r6, r2, r8, lsl #6
    1800:	03310b00 	teqeq	r1, #0, 22
    1804:	50040000 	andpl	r0, r4, r0
    1808:	0002630a 	andeq	r6, r2, sl, lsl #6
    180c:	310b0000 	mrscc	r0, (UNDEF: 11)
    1810:	04000002 	streq	r0, [r0], #-2
    1814:	02630951 	rsbeq	r0, r3, #1327104	; 0x144000
    1818:	11800000 	orrne	r0, r0, r0
    181c:	00000553 	andeq	r0, r0, r3, asr r5
    1820:	070a5304 	streq	r5, [sl, -r4, lsl #6]
    1824:	00000001 	andeq	r0, r0, r1
    1828:	02ea1101 	rsceq	r1, sl, #1073741824	; 0x40000000
    182c:	56040000 	strpl	r0, [r4], -r0
    1830:	0001070a 	andeq	r0, r1, sl, lsl #14
    1834:	00010400 	andeq	r0, r1, r0, lsl #8
    1838:	00010508 	andeq	r0, r1, r8, lsl #10
    183c:	00027300 	andeq	r7, r2, r0, lsl #6
    1840:	00380900 	eorseq	r0, r8, r0, lsl #18
    1844:	001f0000 	andseq	r0, pc, r0
    1848:	00021d10 	andeq	r1, r2, r0, lsl sp
    184c:	04019000 	streq	r9, [r1], #-0
    1850:	02b60862 	adcseq	r0, r6, #6422528	; 0x620000
    1854:	ca0b0000 	bgt	2c185c <_bsl_base_address+0xbf85c>
    1858:	04000004 	streq	r0, [r0], #-4
    185c:	02b61263 	adcseq	r1, r6, #805306374	; 0x30000006
    1860:	0b000000 	bleq	1868 <__data_load__+0xa08>
    1864:	000004db 	ldrdeq	r0, [r0], -fp
    1868:	25066404 	strcs	r6, [r6, #-1028]	; 0xfffffbfc
    186c:	04000000 	streq	r0, [r0], #-0
    1870:	0003390b 	andeq	r3, r3, fp, lsl #18
    1874:	09660400 	stmdbeq	r6!, {sl}^
    1878:	000002bc 			; <UNDEFINED> instruction: 0x000002bc
    187c:	02c50b08 	sbceq	r0, r5, #8, 22	; 0x2000
    1880:	67040000 	strvs	r0, [r4, -r0]
    1884:	00021e1e 	andeq	r1, r2, lr, lsl lr
    1888:	0f008800 	svceq	0x00008800
    188c:	00027304 	andeq	r7, r2, r4, lsl #6
    1890:	02cc0800 	sbceq	r0, ip, #0, 16
    1894:	02cc0000 	sbceq	r0, ip, #0
    1898:	38090000 	stmdacc	r9, {}	; <UNPREDICTABLE>
    189c:	1f000000 	svcne	0x00000000
    18a0:	d2040f00 	andle	r0, r4, #0, 30
    18a4:	12000002 	andne	r0, r0, #2
    18a8:	0004690d 	andeq	r6, r4, sp, lsl #18
    18ac:	7a040800 	bvc	1038b4 <__data_load__+0x102a54>
    18b0:	0002fb08 	andeq	pc, r2, r8, lsl #22
    18b4:	0a650b00 	beq	19444bc <_bsl_base_address+0x17424bc>
    18b8:	7b040000 	blvc	1018c0 <__data_load__+0x100a60>
    18bc:	0002fb11 	andeq	pc, r2, r1, lsl fp	; <UNPREDICTABLE>
    18c0:	280b0000 	stmdacs	fp, {}	; <UNPREDICTABLE>
    18c4:	04000009 	streq	r0, [r0], #-9
    18c8:	0025067c 	eoreq	r0, r5, ip, ror r6
    18cc:	00040000 	andeq	r0, r4, r0
    18d0:	0061040f 	rsbeq	r0, r1, pc, lsl #8
    18d4:	b40d0000 	strlt	r0, [sp], #-0
    18d8:	68000004 	stmdavs	r0, {r2}
    18dc:	4408ba04 	strmi	fp, [r8], #-2564	; 0xfffff5fc
    18e0:	0e000004 	cdpeq	0, 0, cr0, cr0, cr4, {0}
    18e4:	0400705f 	streq	r7, [r0], #-95	; 0xffffffa1
    18e8:	02fb12bb 	rscseq	r1, fp, #-1342177269	; 0xb000000b
    18ec:	0e000000 	cdpeq	0, 0, cr0, cr0, cr0, {0}
    18f0:	0400725f 	streq	r7, [r0], #-607	; 0xfffffda1
    18f4:	002507bc 	strhteq	r0, [r5], -ip
    18f8:	0e040000 	cdpeq	0, 0, cr0, cr4, cr0, {0}
    18fc:	0400775f 	streq	r7, [r0], #-1887	; 0xfffff8a1
    1900:	002507bd 	strhteq	r0, [r5], -sp
    1904:	0b080000 	bleq	20190c <_tlv_base_address+0x90c>
    1908:	000002e3 	andeq	r0, r0, r3, ror #5
    190c:	6809be04 	stmdavs	r9, {r2, r9, sl, fp, ip, sp, pc}
    1910:	0c000000 	stceq	0, cr0, [r0], {-0}
    1914:	0003980b 	andeq	r9, r3, fp, lsl #16
    1918:	09bf0400 	ldmibeq	pc!, {sl}	; <UNPREDICTABLE>
    191c:	00000068 	andeq	r0, r0, r8, rrx
    1920:	625f0e0e 	subsvs	r0, pc, #14, 28	; 0xe0
    1924:	c0040066 	andgt	r0, r4, r6, rrx
    1928:	0002d311 	andeq	sp, r2, r1, lsl r3
    192c:	700b1000 	andvc	r1, fp, r0
    1930:	04000002 	streq	r0, [r0], #-2
    1934:	002507c1 	eoreq	r0, r5, r1, asr #15
    1938:	0b180000 	bleq	601940 <_bsl_base_address+0x3ff940>
    193c:	000002d3 	ldrdeq	r0, [r0], -r3
    1940:	050ac804 	streq	ip, [sl, #-2052]	; 0xfffff7fc
    1944:	1c000001 	stcne	0, cr0, [r0], {1}
    1948:	00036c0b 	andeq	r6, r3, fp, lsl #24
    194c:	1dca0400 	cfstrdne	mvd0, [sl]
    1950:	000005c3 	andeq	r0, r0, r3, asr #11
    1954:	03e40b20 	mvneq	r0, #32, 22	; 0x8000
    1958:	cc040000 	stcgt	0, cr0, [r4], {-0}
    195c:	0005ed1d 	andeq	lr, r5, sp, lsl sp
    1960:	290b2400 	stmdbcs	fp, {sl, sp}
    1964:	04000005 	streq	r0, [r0], #-5
    1968:	06110dcf 	ldreq	r0, [r1], -pc, asr #27
    196c:	0b280000 	bleq	a01974 <_bsl_base_address+0x7ff974>
    1970:	000005ef 	andeq	r0, r0, pc, ror #11
    1974:	2b09d004 	blcs	27598c <_bsl_base_address+0x7398c>
    1978:	2c000006 	stccs	0, cr0, [r0], {6}
    197c:	62755f0e 	rsbsvs	r5, r5, #14, 30	; 0x38
    1980:	11d30400 	bicsne	r0, r3, r0, lsl #8
    1984:	000002d3 	ldrdeq	r0, [r0], -r3
    1988:	755f0e30 	ldrbvc	r0, [pc, #-3632]	; b60 <_free_r+0x7c>
    198c:	d4040070 	strle	r0, [r4], #-112	; 0xffffff90
    1990:	0002fb12 	andeq	pc, r2, r2, lsl fp	; <UNPREDICTABLE>
    1994:	5f0e3800 	svcpl	0x000e3800
    1998:	04007275 	streq	r7, [r0], #-629	; 0xfffffd8b
    199c:	002507d5 	ldrdeq	r0, [r5], -r5	; <UNPREDICTABLE>
    19a0:	0b3c0000 	bleq	f019a8 <_bsl_base_address+0xcff9a8>
    19a4:	000002b0 			; <UNDEFINED> instruction: 0x000002b0
    19a8:	3111d804 	tstcc	r1, r4, lsl #16
    19ac:	40000006 	andmi	r0, r0, r6
    19b0:	0005c70b 	andeq	ip, r5, fp, lsl #14
    19b4:	11d90400 	bicsne	r0, r9, r0, lsl #8
    19b8:	00000641 	andeq	r0, r0, r1, asr #12
    19bc:	6c5f0e43 	mrrcvs	14, 4, r0, pc, cr3	; <UNPREDICTABLE>
    19c0:	dc040062 	stcle	0, cr0, [r4], {98}	; 0x62
    19c4:	0002d311 	andeq	sp, r2, r1, lsl r3
    19c8:	f90b4400 			; <UNDEFINED> instruction: 0xf90b4400
    19cc:	04000002 	streq	r0, [r0], #-2
    19d0:	002507df 	ldrdeq	r0, [r5], -pc	; <UNPREDICTABLE>
    19d4:	0b4c0000 	bleq	13019dc <_bsl_base_address+0x10ff9dc>
    19d8:	0000030a 	andeq	r0, r0, sl, lsl #6
    19dc:	8b0ae004 	blhi	2b99f4 <_bsl_base_address+0xb79f4>
    19e0:	50000000 	andpl	r0, r0, r0
    19e4:	00073a0b 	andeq	r3, r7, fp, lsl #20
    19e8:	12e30400 	rscne	r0, r3, #0, 8
    19ec:	00000462 	andeq	r0, r0, r2, ror #8
    19f0:	08fd0b54 	ldmeq	sp!, {r2, r4, r6, r8, r9, fp}^
    19f4:	e7040000 	str	r0, [r4, -r0]
    19f8:	00011f0c 	andeq	r1, r1, ip, lsl #30
    19fc:	bc0b5800 	stclt	8, cr5, [fp], {-0}
    1a00:	04000004 	streq	r0, [r0], #-4
    1a04:	00f90ee9 	rscseq	r0, r9, r9, ror #29
    1a08:	0b5c0000 	bleq	1701a10 <_bsl_base_address+0x14ffa10>
    1a0c:	000003dc 	ldrdeq	r0, [r0], -ip
    1a10:	2509ea04 	strcs	lr, [r9, #-2564]	; 0xfffff5fc
    1a14:	64000000 	strvs	r0, [r0], #-0
    1a18:	00251300 	eoreq	r1, r5, r0, lsl #6
    1a1c:	04620000 	strbteq	r0, [r2], #-0
    1a20:	62140000 	andsvs	r0, r4, #0
    1a24:	14000004 	strne	r0, [r0], #-4
    1a28:	00000105 	andeq	r0, r0, r5, lsl #2
    1a2c:	0005b114 	andeq	fp, r5, r4, lsl r1
    1a30:	00251400 	eoreq	r1, r5, r0, lsl #8
    1a34:	0f000000 	svceq	0x00000000
    1a38:	00046804 	andeq	r6, r4, r4, lsl #16
    1a3c:	0cab1500 	cfstr32eq	mvfx1, [fp]
    1a40:	04280000 	strteq	r0, [r8], #-0
    1a44:	08026504 	stmdaeq	r2, {r2, r8, sl, sp, lr}
    1a48:	000005b1 			; <UNDEFINED> instruction: 0x000005b1
    1a4c:	00045816 	andeq	r5, r4, r6, lsl r8
    1a50:	02670400 	rsbeq	r0, r7, #0, 8
    1a54:	00002507 	andeq	r2, r0, r7, lsl #10
    1a58:	f2160000 	vhadd.s16	d0, d6, d0
    1a5c:	04000002 	streq	r0, [r0], #-2
    1a60:	9d0b026c 	sfmls	f0, 4, [fp, #-432]	; 0xfffffe50
    1a64:	04000006 	streq	r0, [r0], #-6
    1a68:	00038816 	andeq	r8, r3, r6, lsl r8
    1a6c:	026c0400 	rsbeq	r0, ip, #0, 8
    1a70:	00069d14 	andeq	r9, r6, r4, lsl sp
    1a74:	4d160800 	ldcmi	8, cr0, [r6, #-0]
    1a78:	04000003 	streq	r0, [r0], #-3
    1a7c:	9d1e026c 	lfmls	f0, 4, [lr, #-432]	; 0xfffffe50
    1a80:	0c000006 	stceq	0, cr0, [r0], {6}
    1a84:	0004d616 	andeq	sp, r4, r6, lsl r6
    1a88:	026e0400 	rsbeq	r0, lr, #0, 8
    1a8c:	00002508 	andeq	r2, r0, r8, lsl #10
    1a90:	45161000 	ldrmi	r1, [r6, #-0]
    1a94:	04000002 	streq	r0, [r0], #-2
    1a98:	9d08026f 	sfmls	f0, 4, [r8, #-444]	; 0xfffffe44
    1a9c:	14000008 	strne	r0, [r0], #-8
    1aa0:	0004f216 	andeq	pc, r4, r6, lsl r2	; <UNPREDICTABLE>
    1aa4:	02720400 	rsbseq	r0, r2, #0, 8
    1aa8:	00002507 	andeq	r2, r0, r7, lsl #10
    1aac:	e0163000 	ands	r3, r6, r0
    1ab0:	04000004 	streq	r0, [r0], #-4
    1ab4:	b2160273 	andslt	r0, r6, #805306375	; 0x30000007
    1ab8:	34000008 	strcc	r0, [r0], #-8
    1abc:	00040516 	andeq	r0, r4, r6, lsl r5
    1ac0:	02750400 	rsbseq	r0, r5, #0, 8
    1ac4:	00002507 	andeq	r2, r0, r7, lsl #10
    1ac8:	e8163800 	ldmda	r6, {fp, ip, sp}
    1acc:	04000004 	streq	r0, [r0], #-4
    1ad0:	c30a0277 	movwgt	r0, #41591	; 0xa277
    1ad4:	3c000008 	stccc	0, cr0, [r0], {8}
    1ad8:	0003c716 	andeq	ip, r3, r6, lsl r7
    1adc:	027a0400 	rsbseq	r0, sl, #0, 8
    1ae0:	00018513 	andeq	r8, r1, r3, lsl r5
    1ae4:	72164000 	andsvc	r4, r6, #0
    1ae8:	04000003 	streq	r0, [r0], #-3
    1aec:	2507027b 	strcs	r0, [r7, #-635]	; 0xfffffd85
    1af0:	44000000 	strmi	r0, [r0], #-0
    1af4:	00060916 	andeq	r0, r6, r6, lsl r9
    1af8:	027c0400 	rsbseq	r0, ip, #0, 8
    1afc:	00018513 	andeq	r8, r1, r3, lsl r5
    1b00:	28164800 	ldmdacs	r6, {fp, lr}
    1b04:	04000004 	streq	r0, [r0], #-4
    1b08:	c914027d 	ldmdbgt	r4, {r0, r2, r3, r4, r5, r6, r9}
    1b0c:	4c000008 	stcmi	0, cr0, [r0], {8}
    1b10:	00039016 	andeq	r9, r3, r6, lsl r0
    1b14:	02800400 	addeq	r0, r0, #0, 8
    1b18:	00002507 	andeq	r2, r0, r7, lsl #10
    1b1c:	02165000 	andseq	r5, r6, #0
    1b20:	04000003 	streq	r0, [r0], #-3
    1b24:	b1090281 	smlabblt	r9, r1, r2, r0
    1b28:	54000005 	strpl	r0, [r0], #-5
    1b2c:	00045116 	andeq	r5, r4, r6, lsl r1
    1b30:	02a40400 	adceq	r0, r4, #0, 8
    1b34:	00087807 	andeq	r7, r8, r7, lsl #16
    1b38:	1d175800 	ldcne	8, cr5, [r7, #-0]
    1b3c:	04000002 	streq	r0, [r0], #-2
    1b40:	b61302a8 	ldrlt	r0, [r3], -r8, lsr #5
    1b44:	48000002 	stmdami	r0, {r1}
    1b48:	03a51701 			; <UNDEFINED> instruction: 0x03a51701
    1b4c:	a9040000 	stmdbge	r4, {}	; <UNPREDICTABLE>
    1b50:	02731202 	rsbseq	r1, r3, #536870912	; 0x20000000
    1b54:	014c0000 	mrseq	r0, (UNDEF: 76)
    1b58:	0005bd17 	andeq	fp, r5, r7, lsl sp
    1b5c:	02ad0400 	adceq	r0, sp, #0, 8
    1b60:	0008da0c 	andeq	sp, r8, ip, lsl #20
    1b64:	1702dc00 	strne	sp, [r2, -r0, lsl #24]
    1b68:	000002db 	ldrdeq	r0, [r0], -fp
    1b6c:	1002b204 	andne	fp, r2, r4, lsl #4
    1b70:	0000065e 	andeq	r0, r0, lr, asr r6
    1b74:	c01702e0 	andsgt	r0, r7, r0, ror #5
    1b78:	04000002 	streq	r0, [r0], #-2
    1b7c:	e60a02b4 			; <UNDEFINED> instruction: 0xe60a02b4
    1b80:	ec000008 	stc	0, cr0, [r0], {8}
    1b84:	040f0002 	streq	r0, [pc], #-2	; 1b8c <__data_load__+0xd2c>
    1b88:	000005b7 			; <UNDEFINED> instruction: 0x000005b7
    1b8c:	ba080104 	blt	201fa4 <_tlv_base_address+0xfa4>
    1b90:	18000000 	stmdane	r0, {}	; <UNPREDICTABLE>
    1b94:	000005b7 			; <UNDEFINED> instruction: 0x000005b7
    1b98:	0444040f 	strbeq	r0, [r4], #-1039	; 0xfffffbf1
    1b9c:	25130000 	ldrcs	r0, [r3, #-0]
    1ba0:	e7000000 	str	r0, [r0, -r0]
    1ba4:	14000005 	strne	r0, [r0], #-5
    1ba8:	00000462 	andeq	r0, r0, r2, ror #8
    1bac:	00010514 	andeq	r0, r1, r4, lsl r5
    1bb0:	05e71400 	strbeq	r1, [r7, #1024]!	; 0x400
    1bb4:	25140000 	ldrcs	r0, [r4, #-0]
    1bb8:	00000000 	andeq	r0, r0, r0
    1bbc:	05be040f 	ldreq	r0, [lr, #1039]!	; 0x40f
    1bc0:	040f0000 	streq	r0, [pc], #-0	; 1bc8 <__data_load__+0xd68>
    1bc4:	000005c9 	andeq	r0, r0, r9, asr #11
    1bc8:	00009713 	andeq	r9, r0, r3, lsl r7
    1bcc:	00061100 	andeq	r1, r6, r0, lsl #2
    1bd0:	04621400 	strbteq	r1, [r2], #-1024	; 0xfffffc00
    1bd4:	05140000 	ldreq	r0, [r4, #-0]
    1bd8:	14000001 	strne	r0, [r0], #-1
    1bdc:	00000097 	muleq	r0, r7, r0
    1be0:	00002514 	andeq	r2, r0, r4, lsl r5
    1be4:	040f0000 	streq	r0, [pc], #-0	; 1bec <__data_load__+0xd8c>
    1be8:	000005f3 	strdeq	r0, [r0], -r3
    1bec:	00002513 	andeq	r2, r0, r3, lsl r5
    1bf0:	00062b00 	andeq	r2, r6, r0, lsl #22
    1bf4:	04621400 	strbteq	r1, [r2], #-1024	; 0xfffffc00
    1bf8:	05140000 	ldreq	r0, [r4, #-0]
    1bfc:	00000001 	andeq	r0, r0, r1
    1c00:	0617040f 	ldreq	r0, [r7], -pc, lsl #8
    1c04:	61080000 	mrsvs	r0, (UNDEF: 8)
    1c08:	41000000 	mrsmi	r0, (UNDEF: 0)
    1c0c:	09000006 	stmdbeq	r0, {r1, r2}
    1c10:	00000038 	andeq	r0, r0, r8, lsr r0
    1c14:	61080002 	tstvs	r8, r2
    1c18:	51000000 	mrspl	r0, (UNDEF: 0)
    1c1c:	09000006 	stmdbeq	r0, {r1, r2}
    1c20:	00000038 	andeq	r0, r0, r8, lsr r0
    1c24:	a2050000 	andge	r0, r5, #0
    1c28:	04000004 	streq	r0, [r0], #-4
    1c2c:	011a0124 	tsteq	sl, r4, lsr #2
    1c30:	19000003 	stmdbne	r0, {r0, r1}
    1c34:	00000cc1 	andeq	r0, r0, r1, asr #25
    1c38:	0128040c 			; <UNDEFINED> instruction: 0x0128040c
    1c3c:	00069708 	andeq	r9, r6, r8, lsl #14
    1c40:	04ca1600 	strbeq	r1, [sl], #1536	; 0x600
    1c44:	2a040000 	bcs	101c4c <__data_load__+0x100dec>
    1c48:	06971101 	ldreq	r1, [r7], r1, lsl #2
    1c4c:	16000000 	strne	r0, [r0], -r0
    1c50:	0000039e 	muleq	r0, lr, r3
    1c54:	07012b04 	streq	r2, [r1, -r4, lsl #22]
    1c58:	00000025 	andeq	r0, r0, r5, lsr #32
    1c5c:	04d01604 	ldrbeq	r1, [r0], #1540	; 0x604
    1c60:	2c040000 	stccs	0, cr0, [r4], {-0}
    1c64:	069d0b01 	ldreq	r0, [sp], r1, lsl #22
    1c68:	00080000 	andeq	r0, r8, r0
    1c6c:	065e040f 	ldrbeq	r0, [lr], -pc, lsl #8
    1c70:	040f0000 	streq	r0, [pc], #-0	; 1c78 <__data_load__+0xe18>
    1c74:	00000651 	andeq	r0, r0, r1, asr r6
    1c78:	00023d19 	andeq	r3, r2, r9, lsl sp
    1c7c:	44040e00 	strmi	r0, [r4], #-3584	; 0xfffff200
    1c80:	06dc0801 	ldrbeq	r0, [ip], r1, lsl #16
    1c84:	13160000 	tstne	r6, #0
    1c88:	04000005 	streq	r0, [r0], #-5
    1c8c:	dc120145 	ldfles	f0, [r2], {69}	; 0x45
    1c90:	00000006 	andeq	r0, r0, r6
    1c94:	00054016 	andeq	r4, r5, r6, lsl r0
    1c98:	01460400 	cmpeq	r6, r0, lsl #8
    1c9c:	0006dc12 	andeq	sp, r6, r2, lsl ip
    1ca0:	5c160600 	ldcpl	6, cr0, [r6], {-0}
    1ca4:	04000005 	streq	r0, [r0], #-5
    1ca8:	6f120147 	svcvs	0x00120147
    1cac:	0c000000 	stceq	0, cr0, [r0], {-0}
    1cb0:	006f0800 	rsbeq	r0, pc, r0, lsl #16
    1cb4:	06ec0000 	strbteq	r0, [ip], r0
    1cb8:	38090000 	stmdacc	r9, {}	; <UNPREDICTABLE>
    1cbc:	02000000 	andeq	r0, r0, #0
    1cc0:	04d01a00 	ldrbeq	r1, [r0], #2560	; 0xa00
    1cc4:	01070285 	smlabbeq	r7, r5, r2, r0
    1cc8:	16000008 	strne	r0, [r0], -r8
    1ccc:	0000058e 	andeq	r0, r0, lr, lsl #11
    1cd0:	18028704 	stmdane	r2, {r2, r8, r9, sl, pc}
    1cd4:	00000038 	andeq	r0, r0, r8, lsr r0
    1cd8:	05461600 	strbeq	r1, [r6, #-1536]	; 0xfffffa00
    1cdc:	88040000 	stmdahi	r4, {}	; <UNPREDICTABLE>
    1ce0:	05b11202 	ldreq	r1, [r1, #514]!	; 0x202
    1ce4:	16040000 	strne	r0, [r4], -r0
    1ce8:	000003ba 			; <UNDEFINED> instruction: 0x000003ba
    1cec:	10028904 	andne	r8, r2, r4, lsl #18
    1cf0:	00000801 	andeq	r0, r0, r1, lsl #16
    1cf4:	05e01608 	strbeq	r1, [r0, #1544]!	; 0x608
    1cf8:	8a040000 	bhi	101d00 <__data_load__+0x100ea0>
    1cfc:	019b1702 	orrseq	r1, fp, r2, lsl #14
    1d00:	16240000 	strtne	r0, [r4], -r0
    1d04:	0000035d 	andeq	r0, r0, sp, asr r3
    1d08:	0f028b04 	svceq	0x00028b04
    1d0c:	00000025 	andeq	r0, r0, r5, lsr #32
    1d10:	04c51648 	strbeq	r1, [r5], #1608	; 0x648
    1d14:	8c040000 	stchi	0, cr0, [r4], {-0}
    1d18:	00842c02 	addeq	r2, r4, r2, lsl #24
    1d1c:	16500000 	ldrbne	r0, [r0], -r0
    1d20:	000005f6 	strdeq	r0, [r0], -r6
    1d24:	1a028d04 	bne	a513c <__data_load__+0xa42dc>
    1d28:	000006a3 	andeq	r0, r0, r3, lsr #13
    1d2c:	04441658 	strbeq	r1, [r4], #-1624	; 0xfffff9a8
    1d30:	8e040000 	cdphi	0, 0, cr0, cr4, cr0, {0}
    1d34:	00f91602 	rscseq	r1, r9, r2, lsl #12
    1d38:	16680000 	strbtne	r0, [r8], -r0
    1d3c:	000005fb 	strdeq	r0, [r0], -fp
    1d40:	16028f04 	strne	r8, [r2], -r4, lsl #30
    1d44:	000000f9 	strdeq	r0, [r0], -r9
    1d48:	02931670 	addseq	r1, r3, #112, 12	; 0x7000000
    1d4c:	90040000 	andls	r0, r4, r0
    1d50:	00f91602 	rscseq	r1, r9, r2, lsl #12
    1d54:	16780000 	ldrbtne	r0, [r8], -r0
    1d58:	000005b3 			; <UNDEFINED> instruction: 0x000005b3
    1d5c:	10029104 	andne	r9, r2, r4, lsl #2
    1d60:	00000811 	andeq	r0, r0, r1, lsl r8
    1d64:	03ae1680 			; <UNDEFINED> instruction: 0x03ae1680
    1d68:	92040000 	andls	r0, r4, #0
    1d6c:	08211002 	stmdaeq	r1!, {r1, ip}
    1d70:	16880000 	strne	r0, [r8], r0
    1d74:	00000569 	andeq	r0, r0, r9, ror #10
    1d78:	0f029304 	svceq	0x00029304
    1d7c:	00000025 	andeq	r0, r0, r5, lsr #32
    1d80:	032316a0 			; <UNDEFINED> instruction: 0x032316a0
    1d84:	94040000 	strls	r0, [r4], #-0
    1d88:	00f91602 	rscseq	r1, r9, r2, lsl #12
    1d8c:	16a40000 	strtne	r0, [r4], r0
    1d90:	00000284 	andeq	r0, r0, r4, lsl #5
    1d94:	16029504 	strne	r9, [r2], -r4, lsl #10
    1d98:	000000f9 	strdeq	r0, [r0], -r9
    1d9c:	031216ac 	tsteq	r2, #172, 12	; 0xac00000
    1da0:	96040000 	strls	r0, [r4], -r0
    1da4:	00f91602 	rscseq	r1, r9, r2, lsl #12
    1da8:	16b40000 	ldrtne	r0, [r4], r0
    1dac:	00000250 	andeq	r0, r0, r0, asr r2
    1db0:	16029704 	strne	r9, [r2], -r4, lsl #14
    1db4:	000000f9 	strdeq	r0, [r0], -r9
    1db8:	025f16bc 	subseq	r1, pc, #188, 12	; 0xbc00000
    1dbc:	98040000 	stmdals	r4, {}	; <UNPREDICTABLE>
    1dc0:	00f91602 	rscseq	r1, r9, r2, lsl #12
    1dc4:	16c40000 	strbne	r0, [r4], r0
    1dc8:	00000456 	andeq	r0, r0, r6, asr r4
    1dcc:	08029904 	stmdaeq	r2, {r2, r8, fp, ip, pc}
    1dd0:	00000025 	andeq	r0, r0, r5, lsr #32
    1dd4:	b70800cc 	strlt	r0, [r8, -ip, asr #1]
    1dd8:	11000005 	tstne	r0, r5
    1ddc:	09000008 	stmdbeq	r0, {r3}
    1de0:	00000038 	andeq	r0, r0, r8, lsr r0
    1de4:	b7080019 	smladlt	r8, r9, r0, r0
    1de8:	21000005 	tstcs	r0, r5
    1dec:	09000008 	stmdbeq	r0, {r3}
    1df0:	00000038 	andeq	r0, r0, r8, lsr r0
    1df4:	b7080007 	strlt	r0, [r8, -r7]
    1df8:	31000005 	tstcc	r0, r5
    1dfc:	09000008 	stmdbeq	r0, {r3}
    1e00:	00000038 	andeq	r0, r0, r8, lsr r0
    1e04:	f01a0017 			; <UNDEFINED> instruction: 0xf01a0017
    1e08:	07029e04 	streq	r9, [r2, -r4, lsl #28]
    1e0c:	00000858 	andeq	r0, r0, r8, asr r8
    1e10:	0003f516 	andeq	pc, r3, r6, lsl r5	; <UNPREDICTABLE>
    1e14:	02a10400 	adceq	r0, r1, #0, 8
    1e18:	0008581b 	andeq	r5, r8, fp, lsl r8
    1e1c:	aa160000 	bge	581e24 <_bsl_base_address+0x37fe24>
    1e20:	04000005 	streq	r0, [r0], #-5
    1e24:	681802a2 	ldmdavs	r8, {r1, r5, r7, r9}
    1e28:	78000008 	stmdavc	r0, {r3}
    1e2c:	02fb0800 	rscseq	r0, fp, #0, 16
    1e30:	08680000 	stmdaeq	r8!, {}^	; <UNPREDICTABLE>
    1e34:	38090000 	stmdacc	r9, {}	; <UNPREDICTABLE>
    1e38:	1d000000 	stcne	0, cr0, [r0, #-0]
    1e3c:	00380800 	eorseq	r0, r8, r0, lsl #16
    1e40:	08780000 	ldmdaeq	r8!, {}^	; <UNPREDICTABLE>
    1e44:	38090000 	stmdacc	r9, {}	; <UNPREDICTABLE>
    1e48:	1d000000 	stcne	0, cr0, [r0, #-0]
    1e4c:	04f01b00 	ldrbteq	r1, [r0], #2816	; 0xb00
    1e50:	9d030283 	sfmls	f0, 4, [r3, #-524]	; 0xfffffdf4
    1e54:	1c000008 	stcne	0, cr0, [r0], {8}
    1e58:	00000cab 	andeq	r0, r0, fp, lsr #25
    1e5c:	0b029a04 	bleq	a8674 <__data_load__+0xa7814>
    1e60:	000006ec 	andeq	r0, r0, ip, ror #13
    1e64:	0005cd1c 	andeq	ip, r5, ip, lsl sp
    1e68:	02a30400 	adceq	r0, r3, #0, 8
    1e6c:	0008310b 	andeq	r3, r8, fp, lsl #2
    1e70:	b7080000 	strlt	r0, [r8, -r0]
    1e74:	ad000005 	stcge	0, cr0, [r0, #-20]	; 0xffffffec
    1e78:	09000008 	stmdbeq	r0, {r3}
    1e7c:	00000038 	andeq	r0, r0, r8, lsr r0
    1e80:	791d0018 	ldmdbvc	sp, {r3, r4}
    1e84:	0f000002 	svceq	0x00000002
    1e88:	0008ad04 	andeq	sl, r8, r4, lsl #26
    1e8c:	08c31e00 	stmiaeq	r3, {r9, sl, fp, ip}^
    1e90:	62140000 	andsvs	r0, r4, #0
    1e94:	00000004 	andeq	r0, r0, r4
    1e98:	08b8040f 	ldmeq	r8!, {r0, r1, r2, r3, sl}
    1e9c:	040f0000 	streq	r0, [pc], #-0	; 1ea4 <__data_load__+0x1044>
    1ea0:	00000185 	andeq	r0, r0, r5, lsl #3
    1ea4:	0008da1e 	andeq	sp, r8, lr, lsl sl
    1ea8:	00251400 	eoreq	r1, r5, r0, lsl #8
    1eac:	0f000000 	svceq	0x00000000
    1eb0:	0008e004 	andeq	lr, r8, r4
    1eb4:	cf040f00 	svcgt	0x00040f00
    1eb8:	08000008 	stmdaeq	r0, {r3}
    1ebc:	00000651 	andeq	r0, r0, r1, asr r6
    1ec0:	000008f6 	strdeq	r0, [r0], -r6
    1ec4:	00003809 	andeq	r3, r0, r9, lsl #16
    1ec8:	1f000200 	svcne	0x00000200
    1ecc:	0000057d 	andeq	r0, r0, sp, ror r5
    1ed0:	17033304 	strne	r3, [r3, -r4, lsl #6]
    1ed4:	00000462 	andeq	r0, r0, r2, ror #8
    1ed8:	00080e20 	andeq	r0, r8, r0, lsr #28
    1edc:	0d2d0600 	stceq	6, cr0, [sp, #-0]
    1ee0:	00000284 	andeq	r0, r0, r4, lsl #5
    1ee4:	00000014 	andeq	r0, r0, r4, lsl r0
    1ee8:	093f9c01 	ldmdbeq	pc!, {r0, sl, fp, ip, pc}	; <UNPREDICTABLE>
    1eec:	09210000 	stmdbeq	r1!, {}	; <UNPREDICTABLE>
    1ef0:	01000008 	tsteq	r0, r8
    1ef4:	01050da8 	smlatbeq	r5, r8, sp, r0
    1ef8:	01380000 	teqeq	r8, r0
    1efc:	01320000 	teqeq	r2, r0
    1f00:	90220000 	eorls	r0, r2, r0
    1f04:	7f000002 	svcvc	0x00000002
    1f08:	23000009 	movwcs	r0, #9
    1f0c:	f3035101 	vrhadd.u8	d5, d3, d1
    1f10:	00005001 	andeq	r5, r0, r1
    1f14:	0005ac24 	andeq	sl, r5, r4, lsr #24
    1f18:	0e250600 	cfmadda32eq	mvax0, mvax0, mvfx5, mvfx0
    1f1c:	00000105 	andeq	r0, r0, r5, lsl #2
    1f20:	00000270 	andeq	r0, r0, r0, ror r2
    1f24:	00000014 	andeq	r0, r0, r4, lsl r0
    1f28:	097f9c01 	ldmdbeq	pc!, {r0, sl, fp, ip, pc}^	; <UNPREDICTABLE>
    1f2c:	13210000 			; <UNDEFINED> instruction: 0x13210000
    1f30:	01000008 	tsteq	r0, r8
    1f34:	002c10a2 	eoreq	r1, ip, r2, lsr #1
    1f38:	016a0000 	cmneq	sl, r0
    1f3c:	01640000 	cmneq	r4, r0
    1f40:	7c220000 	stcvc	0, cr0, [r2], #-0
    1f44:	8b000002 	blhi	1f54 <__data_load__+0x10f4>
    1f48:	23000009 	movwcs	r0, #9
    1f4c:	f3035101 	vrhadd.u8	d5, d3, d1
    1f50:	00005001 	andeq	r5, r0, r1
    1f54:	00084e25 	andeq	r4, r8, r5, lsr #28
    1f58:	00084e00 	andeq	r4, r8, r0, lsl #28
    1f5c:	0d320600 	ldceq	6, cr0, [r2, #-0]
    1f60:	00085625 	andeq	r5, r8, r5, lsr #12
    1f64:	00085600 	andeq	r5, r8, r0, lsl #12
    1f68:	0e2a0600 	cfmadda32eq	mvax0, mvax0, mvfx10, mvfx0
    1f6c:	000e7c00 	andeq	r7, lr, r0, lsl #24
    1f70:	3e000400 	cfcpyscc	mvf0, mvf0
    1f74:	04000008 	streq	r0, [r0], #-8
    1f78:	00016c01 	andeq	r6, r1, r1, lsl #24
    1f7c:	09e90c00 	stmibeq	r9!, {sl, fp}^
    1f80:	00f30000 	rscseq	r0, r3, r0
    1f84:	02980000 	addseq	r0, r8, #0
    1f88:	05740000 	ldrbeq	r0, [r4, #-0]!
    1f8c:	07270000 	streq	r0, [r7, -r0]!
    1f90:	04020000 	streq	r0, [r2], #-0
    1f94:	746e6905 	strbtvc	r6, [lr], #-2309	; 0xfffff6fb
    1f98:	06180300 	ldreq	r0, [r8], -r0, lsl #6
    1f9c:	d1020000 	mrsle	r0, (UNDEF: 2)
    1fa0:	00003817 	andeq	r3, r0, r7, lsl r8
    1fa4:	07040400 	streq	r0, [r4, -r0, lsl #8]
    1fa8:	00000156 	andeq	r0, r0, r6, asr r1
    1fac:	94050804 	strls	r0, [r5], #-2052	; 0xfffff7fc
    1fb0:	04000000 	streq	r0, [r0], #-0
    1fb4:	02030408 	andeq	r0, r3, #8, 8	; 0x8000000
    1fb8:	01040000 	mrseq	r0, (UNDEF: 4)
    1fbc:	0000b306 	andeq	fp, r0, r6, lsl #6
    1fc0:	08010400 	stmdaeq	r1, {sl}
    1fc4:	000000b1 	strheq	r0, [r0], -r1
    1fc8:	0f050204 	svceq	0x00050204
    1fcc:	04000002 	streq	r0, [r0], #-2
    1fd0:	01f00702 	mvnseq	r0, r2, lsl #14
    1fd4:	04040000 	streq	r0, [r4], #-0
    1fd8:	00009905 	andeq	r9, r0, r5, lsl #18
    1fdc:	07040400 	streq	r0, [r4, -r0, lsl #8]
    1fe0:	00000151 	andeq	r0, r0, r1, asr r1
    1fe4:	4c070804 	stcmi	8, cr0, [r7], {4}
    1fe8:	05000001 	streq	r0, [r0, #-1]
    1fec:	03d50604 	bicseq	r0, r5, #4, 12	; 0x400000
    1ff0:	5e020000 	cdppl	0, 0, cr0, cr2, cr0, {0}
    1ff4:	00381701 	eorseq	r1, r8, r1, lsl #14
    1ff8:	10030000 	andne	r0, r3, r0
    1ffc:	03000004 	movweq	r0, #4
    2000:	00690e2e 	rsbeq	r0, r9, lr, lsr #28
    2004:	2f030000 	svccs	0x00030000
    2008:	03000005 	movweq	r0, #5
    200c:	00690e74 	rsbeq	r0, r9, r4, ror lr
    2010:	04070000 	streq	r0, [r7], #-0
    2014:	c703a503 	strgt	sl, [r3, -r3, lsl #10]
    2018:	08000000 	stmdaeq	r0, {}	; <UNPREDICTABLE>
    201c:	000003cf 	andeq	r0, r0, pc, asr #7
    2020:	800ca703 	andhi	sl, ip, r3, lsl #14
    2024:	08000000 	stmdaeq	r0, {}	; <UNPREDICTABLE>
    2028:	00000381 	andeq	r0, r0, r1, lsl #7
    202c:	c713a803 	ldrgt	sl, [r3, -r3, lsl #16]
    2030:	00000000 	andeq	r0, r0, r0
    2034:	00005409 	andeq	r5, r0, r9, lsl #8
    2038:	0000d700 	andeq	sp, r0, r0, lsl #14
    203c:	00380a00 	eorseq	r0, r8, r0, lsl #20
    2040:	00030000 	andeq	r0, r3, r0
    2044:	a203080b 	andge	r0, r3, #720896	; 0xb0000
    2048:	0000fb09 	andeq	pc, r0, r9, lsl #22
    204c:	05190c00 	ldreq	r0, [r9, #-3072]	; 0xfffff400
    2050:	a4030000 	strge	r0, [r3], #-0
    2054:	00002507 	andeq	r2, r0, r7, lsl #10
    2058:	210c0000 	mrscs	r0, (UNDEF: 12)
    205c:	03000005 	movweq	r0, #5
    2060:	00a505a9 	adceq	r0, r5, r9, lsr #11
    2064:	00040000 	andeq	r0, r4, r0
    2068:	0004a903 	andeq	sl, r4, r3, lsl #18
    206c:	03aa0300 			; <UNDEFINED> instruction: 0x03aa0300
    2070:	000000d7 	ldrdeq	r0, [r0], -r7
    2074:	00056103 	andeq	r6, r5, r3, lsl #2
    2078:	19160400 	ldmdbne	r6, {sl}
    207c:	00000070 	andeq	r0, r0, r0, ror r0
    2080:	00043203 	andeq	r3, r4, r3, lsl #4
    2084:	0d0c0500 	cfstr32eq	mvfx0, [ip, #-0]
    2088:	00000025 	andeq	r0, r0, r5, lsr #32
    208c:	00034403 	andeq	r4, r3, r3, lsl #8
    2090:	1b230400 	blne	8c3098 <_bsl_base_address+0x6c1098>
    2094:	00000113 	andeq	r0, r0, r3, lsl r1
    2098:	0003550d 	andeq	r5, r3, sp, lsl #10
    209c:	34041800 	strcc	r1, [r4], #-2048	; 0xfffff800
    20a0:	00018508 	andeq	r8, r1, r8, lsl #10
    20a4:	04ca0c00 	strbeq	r0, [sl], #3072	; 0xc00
    20a8:	36040000 	strcc	r0, [r4], -r0
    20ac:	00018513 	andeq	r8, r1, r3, lsl r5
    20b0:	5f0e0000 	svcpl	0x000e0000
    20b4:	3704006b 	strcc	r0, [r4, -fp, rrx]
    20b8:	00002507 	andeq	r2, r0, r7, lsl #10
    20bc:	0b0c0400 	bleq	3030c4 <_bsl_base_address+0x1010c4>
    20c0:	04000005 	streq	r0, [r0], #-5
    20c4:	00250b37 	eoreq	r0, r5, r7, lsr fp
    20c8:	0c080000 	stceq	0, cr0, [r8], {-0}
    20cc:	0000033e 	andeq	r0, r0, lr, lsr r3
    20d0:	25143704 	ldrcs	r3, [r4, #-1796]	; 0xfffff8fc
    20d4:	0c000000 	stceq	0, cr0, [r0], {-0}
    20d8:	00059b0c 	andeq	r9, r5, ip, lsl #22
    20dc:	1b370400 	blne	dc30e4 <_bsl_base_address+0xbc10e4>
    20e0:	00000025 	andeq	r0, r0, r5, lsr #32
    20e4:	785f0e10 	ldmdavc	pc, {r4, r9, sl, fp}^	; <UNPREDICTABLE>
    20e8:	0b380400 	bleq	e030f0 <_bsl_base_address+0xc010f0>
    20ec:	0000018b 	andeq	r0, r0, fp, lsl #3
    20f0:	040f0014 	streq	r0, [pc], #-20	; 20f8 <__data_load__+0x1298>
    20f4:	0000012b 	andeq	r0, r0, fp, lsr #2
    20f8:	00010709 	andeq	r0, r1, r9, lsl #14
    20fc:	00019b00 	andeq	r9, r1, r0, lsl #22
    2100:	00380a00 	eorseq	r0, r8, r0, lsl #20
    2104:	00000000 	andeq	r0, r0, r0
    2108:	00037c0d 	andeq	r7, r3, sp, lsl #24
    210c:	3c042400 	cfstrscc	mvf2, [r4], {-0}
    2110:	00021e08 	andeq	r1, r2, r8, lsl #28
    2114:	02a10c00 	adceq	r0, r1, #0, 24
    2118:	3e040000 	cdpcc	0, 0, cr0, cr4, cr0, {0}
    211c:	00002509 	andeq	r2, r0, r9, lsl #10
    2120:	370c0000 	strcc	r0, [ip, -r0]
    2124:	04000005 	streq	r0, [r0], #-5
    2128:	0025093f 	eoreq	r0, r5, pc, lsr r9
    212c:	0c040000 	stceq	0, cr0, [r4], {-0}
    2130:	000002b6 			; <UNDEFINED> instruction: 0x000002b6
    2134:	25094004 	strcs	r4, [r9, #-4]
    2138:	08000000 	stmdaeq	r0, {}	; <UNPREDICTABLE>
    213c:	00060e0c 	andeq	r0, r6, ip, lsl #28
    2140:	09410400 	stmdbeq	r1, {sl}^
    2144:	00000025 	andeq	r0, r0, r5, lsr #32
    2148:	03fc0c0c 	mvnseq	r0, #12, 24	; 0xc00
    214c:	42040000 	andmi	r0, r4, #0
    2150:	00002509 	andeq	r2, r0, r9, lsl #10
    2154:	eb0c1000 	bl	30615c <_bsl_base_address+0x10415c>
    2158:	04000003 	streq	r0, [r0], #-3
    215c:	00250943 	eoreq	r0, r5, r3, asr #18
    2160:	0c140000 	ldceq	0, cr0, [r4], {-0}
    2164:	000005a0 	andeq	r0, r0, r0, lsr #11
    2168:	25094404 	strcs	r4, [r9, #-1028]	; 0xfffffbfc
    216c:	18000000 	stmdane	r0, {}	; <UNPREDICTABLE>
    2170:	00045f0c 	andeq	r5, r4, ip, lsl #30
    2174:	09450400 	stmdbeq	r5, {sl}^
    2178:	00000025 	andeq	r0, r0, r5, lsr #32
    217c:	05d50c1c 	ldrbeq	r0, [r5, #3100]	; 0xc1c
    2180:	46040000 	strmi	r0, [r4], -r0
    2184:	00002509 	andeq	r2, r0, r9, lsl #10
    2188:	10002000 	andne	r2, r0, r0
    218c:	000002c5 	andeq	r0, r0, r5, asr #5
    2190:	4f040108 	svcmi	0x00040108
    2194:	00026308 	andeq	r6, r2, r8, lsl #6
    2198:	03310c00 	teqeq	r1, #0, 24
    219c:	50040000 	andpl	r0, r4, r0
    21a0:	0002630a 	andeq	r6, r2, sl, lsl #6
    21a4:	310c0000 	mrscc	r0, (UNDEF: 12)
    21a8:	04000002 	streq	r0, [r0], #-2
    21ac:	02630951 	rsbeq	r0, r3, #1327104	; 0x144000
    21b0:	11800000 	orrne	r0, r0, r0
    21b4:	00000553 	andeq	r0, r0, r3, asr r5
    21b8:	070a5304 	streq	r5, [sl, -r4, lsl #6]
    21bc:	00000001 	andeq	r0, r0, r1
    21c0:	02ea1101 	rsceq	r1, sl, #1073741824	; 0x40000000
    21c4:	56040000 	strpl	r0, [r4], -r0
    21c8:	0001070a 	andeq	r0, r1, sl, lsl #14
    21cc:	00010400 	andeq	r0, r1, r0, lsl #8
    21d0:	00007e09 	andeq	r7, r0, r9, lsl #28
    21d4:	00027300 	andeq	r7, r2, r0, lsl #6
    21d8:	00380a00 	eorseq	r0, r8, r0, lsl #20
    21dc:	001f0000 	andseq	r0, pc, r0
    21e0:	00021d10 	andeq	r1, r2, r0, lsl sp
    21e4:	04019000 	streq	r9, [r1], #-0
    21e8:	02b60862 	adcseq	r0, r6, #6422528	; 0x620000
    21ec:	ca0c0000 	bgt	3021f4 <_bsl_base_address+0x1001f4>
    21f0:	04000004 	streq	r0, [r0], #-4
    21f4:	02b61263 	adcseq	r1, r6, #805306374	; 0x30000006
    21f8:	0c000000 	stceq	0, cr0, [r0], {-0}
    21fc:	000004db 	ldrdeq	r0, [r0], -fp
    2200:	25066404 	strcs	r6, [r6, #-1028]	; 0xfffffbfc
    2204:	04000000 	streq	r0, [r0], #-0
    2208:	0003390c 	andeq	r3, r3, ip, lsl #18
    220c:	09660400 	stmdbeq	r6!, {sl}^
    2210:	000002bc 			; <UNDEFINED> instruction: 0x000002bc
    2214:	02c50c08 	sbceq	r0, r5, #8, 24	; 0x800
    2218:	67040000 	strvs	r0, [r4, -r0]
    221c:	00021e1e 	andeq	r1, r2, lr, lsl lr
    2220:	0f008800 	svceq	0x00008800
    2224:	00027304 	andeq	r7, r2, r4, lsl #6
    2228:	02cc0900 	sbceq	r0, ip, #0, 18
    222c:	02cc0000 	sbceq	r0, ip, #0
    2230:	380a0000 	stmdacc	sl, {}	; <UNPREDICTABLE>
    2234:	1f000000 	svcne	0x00000000
    2238:	d2040f00 	andle	r0, r4, #0, 30
    223c:	12000002 	andne	r0, r0, #2
    2240:	0004690d 	andeq	r6, r4, sp, lsl #18
    2244:	7a040800 	bvc	10424c <__data_load__+0x1033ec>
    2248:	0002fb08 	andeq	pc, r2, r8, lsl #22
    224c:	0a650c00 	beq	1945254 <_bsl_base_address+0x1743254>
    2250:	7b040000 	blvc	102258 <__data_load__+0x1013f8>
    2254:	0002fb11 	andeq	pc, r2, r1, lsl fp	; <UNPREDICTABLE>
    2258:	280c0000 	stmdacs	ip, {}	; <UNPREDICTABLE>
    225c:	04000009 	streq	r0, [r0], #-9
    2260:	0025067c 	eoreq	r0, r5, ip, ror r6
    2264:	00040000 	andeq	r0, r4, r0
    2268:	0054040f 	subseq	r0, r4, pc, lsl #8
    226c:	b40d0000 	strlt	r0, [sp], #-0
    2270:	68000004 	stmdavs	r0, {r2}
    2274:	4408ba04 	strmi	fp, [r8], #-2564	; 0xfffff5fc
    2278:	0e000004 	cdpeq	0, 0, cr0, cr0, cr4, {0}
    227c:	0400705f 	streq	r7, [r0], #-95	; 0xffffffa1
    2280:	02fb12bb 	rscseq	r1, fp, #-1342177269	; 0xb000000b
    2284:	0e000000 	cdpeq	0, 0, cr0, cr0, cr0, {0}
    2288:	0400725f 	streq	r7, [r0], #-607	; 0xfffffda1
    228c:	002507bc 	strhteq	r0, [r5], -ip
    2290:	0e040000 	cdpeq	0, 0, cr0, cr4, cr0, {0}
    2294:	0400775f 	streq	r7, [r0], #-1887	; 0xfffff8a1
    2298:	002507bd 	strhteq	r0, [r5], -sp
    229c:	0c080000 	stceq	0, cr0, [r8], {-0}
    22a0:	000002e3 	andeq	r0, r0, r3, ror #5
    22a4:	5b09be04 	blpl	271abc <_bsl_base_address+0x6fabc>
    22a8:	0c000000 	stceq	0, cr0, [r0], {-0}
    22ac:	0003980c 	andeq	r9, r3, ip, lsl #16
    22b0:	09bf0400 	ldmibeq	pc!, {sl}	; <UNPREDICTABLE>
    22b4:	0000005b 	andeq	r0, r0, fp, asr r0
    22b8:	625f0e0e 	subsvs	r0, pc, #14, 28	; 0xe0
    22bc:	c0040066 	andgt	r0, r4, r6, rrx
    22c0:	0002d311 	andeq	sp, r2, r1, lsl r3
    22c4:	700c1000 	andvc	r1, ip, r0
    22c8:	04000002 	streq	r0, [r0], #-2
    22cc:	002507c1 	eoreq	r0, r5, r1, asr #15
    22d0:	0c180000 	ldceq	0, cr0, [r8], {-0}
    22d4:	000002d3 	ldrdeq	r0, [r0], -r3
    22d8:	7e0ac804 	cdpvc	8, 0, cr12, cr10, cr4, {0}
    22dc:	1c000000 	stcne	0, cr0, [r0], {-0}
    22e0:	00036c0c 	andeq	r6, r3, ip, lsl #24
    22e4:	1dca0400 	cfstrdne	mvd0, [sl]
    22e8:	000005c3 	andeq	r0, r0, r3, asr #11
    22ec:	03e40c20 	mvneq	r0, #32, 24	; 0x2000
    22f0:	cc040000 	stcgt	0, cr0, [r4], {-0}
    22f4:	0005ed1d 	andeq	lr, r5, sp, lsl sp
    22f8:	290c2400 	stmdbcs	ip, {sl, sp}
    22fc:	04000005 	streq	r0, [r0], #-5
    2300:	06110dcf 	ldreq	r0, [r1], -pc, asr #27
    2304:	0c280000 	stceq	0, cr0, [r8], #-0
    2308:	000005ef 	andeq	r0, r0, pc, ror #11
    230c:	2b09d004 	blcs	276324 <_bsl_base_address+0x74324>
    2310:	2c000006 	stccs	0, cr0, [r0], {6}
    2314:	62755f0e 	rsbsvs	r5, r5, #14, 30	; 0x38
    2318:	11d30400 	bicsne	r0, r3, r0, lsl #8
    231c:	000002d3 	ldrdeq	r0, [r0], -r3
    2320:	755f0e30 	ldrbvc	r0, [pc, #-3632]	; 14f8 <__data_load__+0x698>
    2324:	d4040070 	strle	r0, [r4], #-112	; 0xffffff90
    2328:	0002fb12 	andeq	pc, r2, r2, lsl fp	; <UNPREDICTABLE>
    232c:	5f0e3800 	svcpl	0x000e3800
    2330:	04007275 	streq	r7, [r0], #-629	; 0xfffffd8b
    2334:	002507d5 	ldrdeq	r0, [r5], -r5	; <UNPREDICTABLE>
    2338:	0c3c0000 	ldceq	0, cr0, [ip], #-0
    233c:	000002b0 			; <UNDEFINED> instruction: 0x000002b0
    2340:	3111d804 	tstcc	r1, r4, lsl #16
    2344:	40000006 	andmi	r0, r0, r6
    2348:	0005c70c 	andeq	ip, r5, ip, lsl #14
    234c:	11d90400 	bicsne	r0, r9, r0, lsl #8
    2350:	00000641 	andeq	r0, r0, r1, asr #12
    2354:	6c5f0e43 	mrrcvs	14, 4, r0, pc, cr3	; <UNPREDICTABLE>
    2358:	dc040062 	stcle	0, cr0, [r4], {98}	; 0x62
    235c:	0002d311 	andeq	sp, r2, r1, lsl r3
    2360:	f90c4400 			; <UNDEFINED> instruction: 0xf90c4400
    2364:	04000002 	streq	r0, [r0], #-2
    2368:	002507df 	ldrdeq	r0, [r5], -pc	; <UNPREDICTABLE>
    236c:	0c4c0000 	mareq	acc0, r0, ip
    2370:	0000030a 	andeq	r0, r0, sl, lsl #6
    2374:	8d0ae004 	stchi	0, cr14, [sl, #-16]
    2378:	50000000 	andpl	r0, r0, r0
    237c:	00073a0c 	andeq	r3, r7, ip, lsl #20
    2380:	12e30400 	rscne	r0, r3, #0, 8
    2384:	00000462 	andeq	r0, r0, r2, ror #8
    2388:	08fd0c54 	ldmeq	sp!, {r2, r4, r6, sl, fp}^
    238c:	e7040000 	str	r0, [r4, -r0]
    2390:	00011f0c 	andeq	r1, r1, ip, lsl #30
    2394:	bc0c5800 	stclt	8, cr5, [ip], {-0}
    2398:	04000004 	streq	r0, [r0], #-4
    239c:	00fb0ee9 	rscseq	r0, fp, r9, ror #29
    23a0:	0c5c0000 	mraeq	r0, ip, acc0
    23a4:	000003dc 	ldrdeq	r0, [r0], -ip
    23a8:	2509ea04 	strcs	lr, [r9, #-2564]	; 0xfffff5fc
    23ac:	64000000 	strvs	r0, [r0], #-0
    23b0:	00251300 	eoreq	r1, r5, r0, lsl #6
    23b4:	04620000 	strbteq	r0, [r2], #-0
    23b8:	62140000 	andsvs	r0, r4, #0
    23bc:	14000004 	strne	r0, [r0], #-4
    23c0:	0000007e 	andeq	r0, r0, lr, ror r0
    23c4:	0005b114 	andeq	fp, r5, r4, lsl r1
    23c8:	00251400 	eoreq	r1, r5, r0, lsl #8
    23cc:	0f000000 	svceq	0x00000000
    23d0:	00046804 	andeq	r6, r4, r4, lsl #16
    23d4:	0cab1500 	cfstr32eq	mvfx1, [fp]
    23d8:	04280000 	strteq	r0, [r8], #-0
    23dc:	08026504 	stmdaeq	r2, {r2, r8, sl, sp, lr}
    23e0:	000005b1 			; <UNDEFINED> instruction: 0x000005b1
    23e4:	00045816 	andeq	r5, r4, r6, lsl r8
    23e8:	02670400 	rsbeq	r0, r7, #0, 8
    23ec:	00002507 	andeq	r2, r0, r7, lsl #10
    23f0:	f2160000 	vhadd.s16	d0, d6, d0
    23f4:	04000002 	streq	r0, [r0], #-2
    23f8:	9d0b026c 	sfmls	f0, 4, [fp, #-432]	; 0xfffffe50
    23fc:	04000006 	streq	r0, [r0], #-6
    2400:	00038816 	andeq	r8, r3, r6, lsl r8
    2404:	026c0400 	rsbeq	r0, ip, #0, 8
    2408:	00069d14 	andeq	r9, r6, r4, lsl sp
    240c:	4d160800 	ldcmi	8, cr0, [r6, #-0]
    2410:	04000003 	streq	r0, [r0], #-3
    2414:	9d1e026c 	lfmls	f0, 4, [lr, #-432]	; 0xfffffe50
    2418:	0c000006 	stceq	0, cr0, [r0], {6}
    241c:	0004d616 	andeq	sp, r4, r6, lsl r6
    2420:	026e0400 	rsbeq	r0, lr, #0, 8
    2424:	00002508 	andeq	r2, r0, r8, lsl #10
    2428:	45161000 	ldrmi	r1, [r6, #-0]
    242c:	04000002 	streq	r0, [r0], #-2
    2430:	9d08026f 	sfmls	f0, 4, [r8, #-444]	; 0xfffffe44
    2434:	14000008 	strne	r0, [r0], #-8
    2438:	0004f216 	andeq	pc, r4, r6, lsl r2	; <UNPREDICTABLE>
    243c:	02720400 	rsbseq	r0, r2, #0, 8
    2440:	00002507 	andeq	r2, r0, r7, lsl #10
    2444:	e0163000 	ands	r3, r6, r0
    2448:	04000004 	streq	r0, [r0], #-4
    244c:	b2160273 	andslt	r0, r6, #805306375	; 0x30000007
    2450:	34000008 	strcc	r0, [r0], #-8
    2454:	00040516 	andeq	r0, r4, r6, lsl r5
    2458:	02750400 	rsbseq	r0, r5, #0, 8
    245c:	00002507 	andeq	r2, r0, r7, lsl #10
    2460:	e8163800 	ldmda	r6, {fp, ip, sp}
    2464:	04000004 	streq	r0, [r0], #-4
    2468:	c30a0277 	movwgt	r0, #41591	; 0xa277
    246c:	3c000008 	stccc	0, cr0, [r0], {8}
    2470:	0003c716 	andeq	ip, r3, r6, lsl r7
    2474:	027a0400 	rsbseq	r0, sl, #0, 8
    2478:	00018513 	andeq	r8, r1, r3, lsl r5
    247c:	72164000 	andsvc	r4, r6, #0
    2480:	04000003 	streq	r0, [r0], #-3
    2484:	2507027b 	strcs	r0, [r7, #-635]	; 0xfffffd85
    2488:	44000000 	strmi	r0, [r0], #-0
    248c:	00060916 	andeq	r0, r6, r6, lsl r9
    2490:	027c0400 	rsbseq	r0, ip, #0, 8
    2494:	00018513 	andeq	r8, r1, r3, lsl r5
    2498:	28164800 	ldmdacs	r6, {fp, lr}
    249c:	04000004 	streq	r0, [r0], #-4
    24a0:	c914027d 	ldmdbgt	r4, {r0, r2, r3, r4, r5, r6, r9}
    24a4:	4c000008 	stcmi	0, cr0, [r0], {8}
    24a8:	00039016 	andeq	r9, r3, r6, lsl r0
    24ac:	02800400 	addeq	r0, r0, #0, 8
    24b0:	00002507 	andeq	r2, r0, r7, lsl #10
    24b4:	02165000 	andseq	r5, r6, #0
    24b8:	04000003 	streq	r0, [r0], #-3
    24bc:	b1090281 	smlabblt	r9, r1, r2, r0
    24c0:	54000005 	strpl	r0, [r0], #-5
    24c4:	00045116 	andeq	r5, r4, r6, lsl r1
    24c8:	02a40400 	adceq	r0, r4, #0, 8
    24cc:	00087807 	andeq	r7, r8, r7, lsl #16
    24d0:	1d175800 	ldcne	8, cr5, [r7, #-0]
    24d4:	04000002 	streq	r0, [r0], #-2
    24d8:	b61302a8 	ldrlt	r0, [r3], -r8, lsr #5
    24dc:	48000002 	stmdami	r0, {r1}
    24e0:	03a51701 			; <UNDEFINED> instruction: 0x03a51701
    24e4:	a9040000 	stmdbge	r4, {}	; <UNPREDICTABLE>
    24e8:	02731202 	rsbseq	r1, r3, #536870912	; 0x20000000
    24ec:	014c0000 	mrseq	r0, (UNDEF: 76)
    24f0:	0005bd17 	andeq	fp, r5, r7, lsl sp
    24f4:	02ad0400 	adceq	r0, sp, #0, 8
    24f8:	0008da0c 	andeq	sp, r8, ip, lsl #20
    24fc:	1702dc00 	strne	sp, [r2, -r0, lsl #24]
    2500:	000002db 	ldrdeq	r0, [r0], -fp
    2504:	1002b204 	andne	fp, r2, r4, lsl #4
    2508:	0000065e 	andeq	r0, r0, lr, asr r6
    250c:	c01702e0 	andsgt	r0, r7, r0, ror #5
    2510:	04000002 	streq	r0, [r0], #-2
    2514:	e60a02b4 			; <UNDEFINED> instruction: 0xe60a02b4
    2518:	ec000008 	stc	0, cr0, [r0], {8}
    251c:	040f0002 	streq	r0, [pc], #-2	; 2524 <__data_load__+0x16c4>
    2520:	000005b7 			; <UNDEFINED> instruction: 0x000005b7
    2524:	ba080104 	blt	20293c <_bsl_base_address+0x93c>
    2528:	18000000 	stmdane	r0, {}	; <UNPREDICTABLE>
    252c:	000005b7 			; <UNDEFINED> instruction: 0x000005b7
    2530:	0444040f 	strbeq	r0, [r4], #-1039	; 0xfffffbf1
    2534:	25130000 	ldrcs	r0, [r3, #-0]
    2538:	e7000000 	str	r0, [r0, -r0]
    253c:	14000005 	strne	r0, [r0], #-5
    2540:	00000462 	andeq	r0, r0, r2, ror #8
    2544:	00007e14 	andeq	r7, r0, r4, lsl lr
    2548:	05e71400 	strbeq	r1, [r7, #1024]!	; 0x400
    254c:	25140000 	ldrcs	r0, [r4, #-0]
    2550:	00000000 	andeq	r0, r0, r0
    2554:	05be040f 	ldreq	r0, [lr, #1039]!	; 0x40f
    2558:	040f0000 	streq	r0, [pc], #-0	; 2560 <__data_load__+0x1700>
    255c:	000005c9 	andeq	r0, r0, r9, asr #11
    2560:	00009913 	andeq	r9, r0, r3, lsl r9
    2564:	00061100 	andeq	r1, r6, r0, lsl #2
    2568:	04621400 	strbteq	r1, [r2], #-1024	; 0xfffffc00
    256c:	7e140000 	cdpvc	0, 1, cr0, cr4, cr0, {0}
    2570:	14000000 	strne	r0, [r0], #-0
    2574:	00000099 	muleq	r0, r9, r0
    2578:	00002514 	andeq	r2, r0, r4, lsl r5
    257c:	040f0000 	streq	r0, [pc], #-0	; 2584 <__data_load__+0x1724>
    2580:	000005f3 	strdeq	r0, [r0], -r3
    2584:	00002513 	andeq	r2, r0, r3, lsl r5
    2588:	00062b00 	andeq	r2, r6, r0, lsl #22
    258c:	04621400 	strbteq	r1, [r2], #-1024	; 0xfffffc00
    2590:	7e140000 	cdpvc	0, 1, cr0, cr4, cr0, {0}
    2594:	00000000 	andeq	r0, r0, r0
    2598:	0617040f 	ldreq	r0, [r7], -pc, lsl #8
    259c:	54090000 	strpl	r0, [r9], #-0
    25a0:	41000000 	mrsmi	r0, (UNDEF: 0)
    25a4:	0a000006 	beq	25c4 <__data_load__+0x1764>
    25a8:	00000038 	andeq	r0, r0, r8, lsr r0
    25ac:	54090002 	strpl	r0, [r9], #-2
    25b0:	51000000 	mrspl	r0, (UNDEF: 0)
    25b4:	0a000006 	beq	25d4 <__data_load__+0x1774>
    25b8:	00000038 	andeq	r0, r0, r8, lsr r0
    25bc:	a2060000 	andge	r0, r6, #0
    25c0:	04000004 	streq	r0, [r0], #-4
    25c4:	011a0124 	tsteq	sl, r4, lsr #2
    25c8:	19000003 	stmdbne	r0, {r0, r1}
    25cc:	00000cc1 	andeq	r0, r0, r1, asr #25
    25d0:	0128040c 			; <UNDEFINED> instruction: 0x0128040c
    25d4:	00069708 	andeq	r9, r6, r8, lsl #14
    25d8:	04ca1600 	strbeq	r1, [sl], #1536	; 0x600
    25dc:	2a040000 	bcs	1025e4 <__data_load__+0x101784>
    25e0:	06971101 	ldreq	r1, [r7], r1, lsl #2
    25e4:	16000000 	strne	r0, [r0], -r0
    25e8:	0000039e 	muleq	r0, lr, r3
    25ec:	07012b04 	streq	r2, [r1, -r4, lsl #22]
    25f0:	00000025 	andeq	r0, r0, r5, lsr #32
    25f4:	04d01604 	ldrbeq	r1, [r0], #1540	; 0x604
    25f8:	2c040000 	stccs	0, cr0, [r4], {-0}
    25fc:	069d0b01 	ldreq	r0, [sp], r1, lsl #22
    2600:	00080000 	andeq	r0, r8, r0
    2604:	065e040f 	ldrbeq	r0, [lr], -pc, lsl #8
    2608:	040f0000 	streq	r0, [pc], #-0	; 2610 <__data_load__+0x17b0>
    260c:	00000651 	andeq	r0, r0, r1, asr r6
    2610:	00023d19 	andeq	r3, r2, r9, lsl sp
    2614:	44040e00 	strmi	r0, [r4], #-3584	; 0xfffff200
    2618:	06dc0801 	ldrbeq	r0, [ip], r1, lsl #16
    261c:	13160000 	tstne	r6, #0
    2620:	04000005 	streq	r0, [r0], #-5
    2624:	dc120145 	ldfles	f0, [r2], {69}	; 0x45
    2628:	00000006 	andeq	r0, r0, r6
    262c:	00054016 	andeq	r4, r5, r6, lsl r0
    2630:	01460400 	cmpeq	r6, r0, lsl #8
    2634:	0006dc12 	andeq	sp, r6, r2, lsl ip
    2638:	5c160600 	ldcpl	6, cr0, [r6], {-0}
    263c:	04000005 	streq	r0, [r0], #-5
    2640:	62120147 	andsvs	r0, r2, #-1073741807	; 0xc0000011
    2644:	0c000000 	stceq	0, cr0, [r0], {-0}
    2648:	00620900 	rsbeq	r0, r2, r0, lsl #18
    264c:	06ec0000 	strbteq	r0, [ip], r0
    2650:	380a0000 	stmdacc	sl, {}	; <UNPREDICTABLE>
    2654:	02000000 	andeq	r0, r0, #0
    2658:	04d01a00 	ldrbeq	r1, [r0], #2560	; 0xa00
    265c:	01070285 	smlabbeq	r7, r5, r2, r0
    2660:	16000008 	strne	r0, [r0], -r8
    2664:	0000058e 	andeq	r0, r0, lr, lsl #11
    2668:	18028704 	stmdane	r2, {r2, r8, r9, sl, pc}
    266c:	00000038 	andeq	r0, r0, r8, lsr r0
    2670:	05461600 	strbeq	r1, [r6, #-1536]	; 0xfffffa00
    2674:	88040000 	stmdahi	r4, {}	; <UNPREDICTABLE>
    2678:	05b11202 	ldreq	r1, [r1, #514]!	; 0x202
    267c:	16040000 	strne	r0, [r4], -r0
    2680:	000003ba 			; <UNDEFINED> instruction: 0x000003ba
    2684:	10028904 	andne	r8, r2, r4, lsl #18
    2688:	00000801 	andeq	r0, r0, r1, lsl #16
    268c:	05e01608 	strbeq	r1, [r0, #1544]!	; 0x608
    2690:	8a040000 	bhi	102698 <__data_load__+0x101838>
    2694:	019b1702 	orrseq	r1, fp, r2, lsl #14
    2698:	16240000 	strtne	r0, [r4], -r0
    269c:	0000035d 	andeq	r0, r0, sp, asr r3
    26a0:	0f028b04 	svceq	0x00028b04
    26a4:	00000025 	andeq	r0, r0, r5, lsr #32
    26a8:	04c51648 	strbeq	r1, [r5], #1608	; 0x648
    26ac:	8c040000 	stchi	0, cr0, [r4], {-0}
    26b0:	00772c02 	rsbseq	r2, r7, r2, lsl #24
    26b4:	16500000 	ldrbne	r0, [r0], -r0
    26b8:	000005f6 	strdeq	r0, [r0], -r6
    26bc:	1a028d04 	bne	a5ad4 <__data_load__+0xa4c74>
    26c0:	000006a3 	andeq	r0, r0, r3, lsr #13
    26c4:	04441658 	strbeq	r1, [r4], #-1624	; 0xfffff9a8
    26c8:	8e040000 	cdphi	0, 0, cr0, cr4, cr0, {0}
    26cc:	00fb1602 	rscseq	r1, fp, r2, lsl #12
    26d0:	16680000 	strbtne	r0, [r8], -r0
    26d4:	000005fb 	strdeq	r0, [r0], -fp
    26d8:	16028f04 	strne	r8, [r2], -r4, lsl #30
    26dc:	000000fb 	strdeq	r0, [r0], -fp
    26e0:	02931670 	addseq	r1, r3, #112, 12	; 0x7000000
    26e4:	90040000 	andls	r0, r4, r0
    26e8:	00fb1602 	rscseq	r1, fp, r2, lsl #12
    26ec:	16780000 	ldrbtne	r0, [r8], -r0
    26f0:	000005b3 			; <UNDEFINED> instruction: 0x000005b3
    26f4:	10029104 	andne	r9, r2, r4, lsl #2
    26f8:	00000811 	andeq	r0, r0, r1, lsl r8
    26fc:	03ae1680 			; <UNDEFINED> instruction: 0x03ae1680
    2700:	92040000 	andls	r0, r4, #0
    2704:	08211002 	stmdaeq	r1!, {r1, ip}
    2708:	16880000 	strne	r0, [r8], r0
    270c:	00000569 	andeq	r0, r0, r9, ror #10
    2710:	0f029304 	svceq	0x00029304
    2714:	00000025 	andeq	r0, r0, r5, lsr #32
    2718:	032316a0 			; <UNDEFINED> instruction: 0x032316a0
    271c:	94040000 	strls	r0, [r4], #-0
    2720:	00fb1602 	rscseq	r1, fp, r2, lsl #12
    2724:	16a40000 	strtne	r0, [r4], r0
    2728:	00000284 	andeq	r0, r0, r4, lsl #5
    272c:	16029504 	strne	r9, [r2], -r4, lsl #10
    2730:	000000fb 	strdeq	r0, [r0], -fp
    2734:	031216ac 	tsteq	r2, #172, 12	; 0xac00000
    2738:	96040000 	strls	r0, [r4], -r0
    273c:	00fb1602 	rscseq	r1, fp, r2, lsl #12
    2740:	16b40000 	ldrtne	r0, [r4], r0
    2744:	00000250 	andeq	r0, r0, r0, asr r2
    2748:	16029704 	strne	r9, [r2], -r4, lsl #14
    274c:	000000fb 	strdeq	r0, [r0], -fp
    2750:	025f16bc 	subseq	r1, pc, #188, 12	; 0xbc00000
    2754:	98040000 	stmdals	r4, {}	; <UNPREDICTABLE>
    2758:	00fb1602 	rscseq	r1, fp, r2, lsl #12
    275c:	16c40000 	strbne	r0, [r4], r0
    2760:	00000456 	andeq	r0, r0, r6, asr r4
    2764:	08029904 	stmdaeq	r2, {r2, r8, fp, ip, pc}
    2768:	00000025 	andeq	r0, r0, r5, lsr #32
    276c:	b70900cc 	strlt	r0, [r9, -ip, asr #1]
    2770:	11000005 	tstne	r0, r5
    2774:	0a000008 	beq	279c <__data_load__+0x193c>
    2778:	00000038 	andeq	r0, r0, r8, lsr r0
    277c:	b7090019 	smladlt	r9, r9, r0, r0
    2780:	21000005 	tstcs	r0, r5
    2784:	0a000008 	beq	27ac <__data_load__+0x194c>
    2788:	00000038 	andeq	r0, r0, r8, lsr r0
    278c:	b7090007 	strlt	r0, [r9, -r7]
    2790:	31000005 	tstcc	r0, r5
    2794:	0a000008 	beq	27bc <__data_load__+0x195c>
    2798:	00000038 	andeq	r0, r0, r8, lsr r0
    279c:	f01a0017 			; <UNDEFINED> instruction: 0xf01a0017
    27a0:	07029e04 	streq	r9, [r2, -r4, lsl #28]
    27a4:	00000858 	andeq	r0, r0, r8, asr r8
    27a8:	0003f516 	andeq	pc, r3, r6, lsl r5	; <UNPREDICTABLE>
    27ac:	02a10400 	adceq	r0, r1, #0, 8
    27b0:	0008581b 	andeq	r5, r8, fp, lsl r8
    27b4:	aa160000 	bge	5827bc <_bsl_base_address+0x3807bc>
    27b8:	04000005 	streq	r0, [r0], #-5
    27bc:	681802a2 	ldmdavs	r8, {r1, r5, r7, r9}
    27c0:	78000008 	stmdavc	r0, {r3}
    27c4:	02fb0900 	rscseq	r0, fp, #0, 18
    27c8:	08680000 	stmdaeq	r8!, {}^	; <UNPREDICTABLE>
    27cc:	380a0000 	stmdacc	sl, {}	; <UNPREDICTABLE>
    27d0:	1d000000 	stcne	0, cr0, [r0, #-0]
    27d4:	00380900 	eorseq	r0, r8, r0, lsl #18
    27d8:	08780000 	ldmdaeq	r8!, {}^	; <UNPREDICTABLE>
    27dc:	380a0000 	stmdacc	sl, {}	; <UNPREDICTABLE>
    27e0:	1d000000 	stcne	0, cr0, [r0, #-0]
    27e4:	04f01b00 	ldrbteq	r1, [r0], #2816	; 0xb00
    27e8:	9d030283 	sfmls	f0, 4, [r3, #-524]	; 0xfffffdf4
    27ec:	1c000008 	stcne	0, cr0, [r0], {8}
    27f0:	00000cab 	andeq	r0, r0, fp, lsr #25
    27f4:	0b029a04 	bleq	a900c <__data_load__+0xa81ac>
    27f8:	000006ec 	andeq	r0, r0, ip, ror #13
    27fc:	0005cd1c 	andeq	ip, r5, ip, lsl sp
    2800:	02a30400 	adceq	r0, r3, #0, 8
    2804:	0008310b 	andeq	r3, r8, fp, lsl #2
    2808:	b7090000 	strlt	r0, [r9, -r0]
    280c:	ad000005 	stcge	0, cr0, [r0, #-20]	; 0xffffffec
    2810:	0a000008 	beq	2838 <__data_load__+0x19d8>
    2814:	00000038 	andeq	r0, r0, r8, lsr r0
    2818:	791d0018 	ldmdbvc	sp, {r3, r4}
    281c:	0f000002 	svceq	0x00000002
    2820:	0008ad04 	andeq	sl, r8, r4, lsl #26
    2824:	08c31e00 	stmiaeq	r3, {r9, sl, fp, ip}^
    2828:	62140000 	andsvs	r0, r4, #0
    282c:	00000004 	andeq	r0, r0, r4
    2830:	08b8040f 	ldmeq	r8!, {r0, r1, r2, r3, sl}
    2834:	040f0000 	streq	r0, [pc], #-0	; 283c <__data_load__+0x19dc>
    2838:	00000185 	andeq	r0, r0, r5, lsl #3
    283c:	0008da1e 	andeq	sp, r8, lr, lsl sl
    2840:	00251400 	eoreq	r1, r5, r0, lsl #8
    2844:	0f000000 	svceq	0x00000000
    2848:	0008e004 	andeq	lr, r8, r4
    284c:	cf040f00 	svcgt	0x00040f00
    2850:	09000008 	stmdbeq	r0, {r3}
    2854:	00000651 	andeq	r0, r0, r1, asr r6
    2858:	000008f6 	strdeq	r0, [r0], -r6
    285c:	0000380a 	andeq	r3, r0, sl, lsl #16
    2860:	19000200 	stmdbne	r0, {r9}
    2864:	000009b7 			; <UNDEFINED> instruction: 0x000009b7
    2868:	02d80128 	sbcseq	r0, r8, #40, 2
    286c:	00099108 	andeq	r9, r9, r8, lsl #2
    2870:	08881600 	stmeq	r8, {r9, sl, ip}
    2874:	d9010000 	stmdble	r1, {}	; <UNPREDICTABLE>
    2878:	00250702 	eoreq	r0, r5, r2, lsl #14
    287c:	16000000 	strne	r0, [r0], -r0
    2880:	000008de 	ldrdeq	r0, [r0], -lr
    2884:	0702da01 	streq	sp, [r2, -r1, lsl #20]
    2888:	00000025 	andeq	r0, r0, r5, lsr #32
    288c:	096b1604 	stmdbeq	fp!, {r2, r9, sl, ip}^
    2890:	db010000 	blle	42898 <__data_load__+0x41a38>
    2894:	00250702 	eoreq	r0, r5, r2, lsl #14
    2898:	16080000 	strne	r0, [r8], -r0
    289c:	0000087b 	andeq	r0, r0, fp, ror r8
    28a0:	0702dc01 	streq	sp, [r2, -r1, lsl #24]
    28a4:	00000025 	andeq	r0, r0, r5, lsr #32
    28a8:	0a76160c 	beq	1d880e0 <_bsl_base_address+0x1b860e0>
    28ac:	dd010000 	stcle	0, cr0, [r1, #-0]
    28b0:	00250702 	eoreq	r0, r5, r2, lsl #14
    28b4:	16100000 	ldrne	r0, [r0], -r0
    28b8:	00000997 	muleq	r0, r7, r9
    28bc:	0702de01 	streq	sp, [r2, -r1, lsl #28]
    28c0:	00000025 	andeq	r0, r0, r5, lsr #32
    28c4:	096a1614 	stmdbeq	sl!, {r2, r4, r9, sl, ip}^
    28c8:	df010000 	svcle	0x00010000
    28cc:	00250702 	eoreq	r0, r5, r2, lsl #14
    28d0:	16180000 	ldrne	r0, [r8], -r0
    28d4:	0000091b 	andeq	r0, r0, fp, lsl r9
    28d8:	0702e001 	streq	lr, [r2, -r1]
    28dc:	00000025 	andeq	r0, r0, r5, lsr #32
    28e0:	08dd161c 	ldmeq	sp, {r2, r3, r4, r9, sl, ip}^
    28e4:	e1010000 	mrs	r0, (UNDEF: 1)
    28e8:	00250702 	eoreq	r0, r5, r2, lsl #14
    28ec:	16200000 	strtne	r0, [r0], -r0
    28f0:	00000a4f 	andeq	r0, r0, pc, asr #20
    28f4:	0702e201 	streq	lr, [r2, -r1, lsl #4]
    28f8:	00000025 	andeq	r0, r0, r5, lsr #32
    28fc:	72190024 	andsvc	r0, r9, #36	; 0x24
    2900:	10000009 	andne	r0, r0, r9
    2904:	0804e901 	stmdaeq	r4, {r0, r8, fp, sp, lr, pc}
    2908:	000009d6 	ldrdeq	r0, [r0], -r6
    290c:	00086016 	andeq	r6, r8, r6, lsl r0
    2910:	04eb0100 	strbteq	r0, [fp], #256	; 0x100
    2914:	00002c13 	andeq	r2, r0, r3, lsl ip
    2918:	29160000 	ldmdbcs	r6, {}	; <UNPREDICTABLE>
    291c:	01000009 	tsteq	r0, r9
    2920:	2c1304ec 	cfldrscs	mvf0, [r3], {236}	; 0xec
    2924:	04000000 	streq	r0, [r0], #-0
    2928:	0064661f 	rsbeq	r6, r4, pc, lsl r6
    292c:	1804ed01 	stmdane	r4, {r0, r8, sl, fp, sp, lr, pc}
    2930:	000009d6 	ldrdeq	r0, [r0], -r6
    2934:	6b621f08 	blvs	188a55c <_bsl_base_address+0x168855c>
    2938:	04ee0100 	strbteq	r0, [lr], #256	; 0x100
    293c:	0009d618 	andeq	sp, r9, r8, lsl r6
    2940:	0f000c00 	svceq	0x00000c00
    2944:	00099104 	andeq	r9, r9, r4, lsl #2
    2948:	0a380600 	beq	e04150 <_bsl_base_address+0xc02150>
    294c:	f1010000 	setend	le
    2950:	09d61e04 	ldmibeq	r6, {r2, r9, sl, fp, ip}^
    2954:	bb060000 	bllt	18295c <__data_load__+0x181afc>
    2958:	01000008 	tsteq	r0, r8
    295c:	d61e061d 			; <UNDEFINED> instruction: 0xd61e061d
    2960:	09000009 	stmdbeq	r0, {r0, r3}
    2964:	000009e9 	andeq	r0, r0, r9, ror #19
    2968:	00000a07 	andeq	r0, r0, r7, lsl #20
    296c:	00003820 	andeq	r3, r0, r0, lsr #16
    2970:	00010100 	andeq	r0, r1, r0, lsl #2
    2974:	0009d221 	andeq	sp, r9, r1, lsr #4
    2978:	063d0100 	ldrteq	r0, [sp], -r0, lsl #2
    297c:	0009f610 	andeq	pc, r9, r0, lsl r6	; <UNPREDICTABLE>
    2980:	68030500 	stmdavs	r3, {r8, sl}
    2984:	21200004 			; <UNDEFINED> instruction: 0x21200004
    2988:	0000097f 	andeq	r0, r0, pc, ror r9
    298c:	1606a801 	strne	sl, [r6], -r1, lsl #16
    2990:	00000070 	andeq	r0, r0, r0, ror r0
    2994:	04640305 	strbteq	r0, [r4], #-773	; 0xfffffcfb
    2998:	6a212000 	bvs	84a9a0 <_bsl_base_address+0x6489a0>
    299c:	01000008 	tsteq	r0, r8
    29a0:	701606a9 	andsvc	r0, r6, r9, lsr #13
    29a4:	05000000 	streq	r0, [r0, #-0]
    29a8:	00089803 	andeq	r9, r8, r3, lsl #16
    29ac:	0a582120 	beq	160ae34 <_bsl_base_address+0x1408e34>
    29b0:	b0010000 	andlt	r0, r1, r0
    29b4:	05b10e06 	ldreq	r0, [r1, #3590]!	; 0xe06
    29b8:	03050000 	movweq	r0, #20480	; 0x5000
    29bc:	20000460 	andcs	r0, r0, r0, ror #8
    29c0:	00090321 	andeq	r0, r9, r1, lsr #6
    29c4:	06b30100 	ldrteq	r0, [r3], r0, lsl #2
    29c8:	00007016 	andeq	r7, r0, r6, lsl r0
    29cc:	c4030500 	strgt	r0, [r3], #-1280	; 0xfffffb00
    29d0:	21200008 			; <UNDEFINED> instruction: 0x21200008
    29d4:	0000093e 	andeq	r0, r0, lr, lsr r9
    29d8:	1606b601 	strne	fp, [r6], -r1, lsl #12
    29dc:	00000070 	andeq	r0, r0, r0, ror r0
    29e0:	08c80305 	stmiaeq	r8, {r0, r2, r8, r9}^
    29e4:	a6212000 	strtge	r2, [r1], -r0
    29e8:	01000009 	tsteq	r0, r9
    29ec:	f61806b9 			; <UNDEFINED> instruction: 0xf61806b9
    29f0:	05000008 	streq	r0, [r0, #-8]
    29f4:	00089c03 	andeq	r9, r8, r3, lsl #24
    29f8:	08562220 	ldmdaeq	r6, {r5, r9, sp}^
    29fc:	19010000 	stmdbne	r1, {}	; <UNPREDICTABLE>
    2a00:	007e0909 	rsbseq	r0, lr, r9, lsl #18
    2a04:	02980000 	addseq	r0, r8, #0
    2a08:	05740000 	ldrbeq	r0, [r4, #-0]!
    2a0c:	9c010000 	stcls	0, cr0, [r1], {-0}
    2a10:	00000d95 	muleq	r0, r5, sp
    2a14:	0009df23 	andeq	sp, r9, r3, lsr #30
    2a18:	09190100 	ldmdbeq	r9, {r8}
    2a1c:	00046210 	andeq	r6, r4, r0, lsl r2
    2a20:	0001a600 	andeq	sl, r1, r0, lsl #12
    2a24:	00019600 	andeq	r9, r1, r0, lsl #12
    2a28:	08142300 	ldmdaeq	r4, {r8, r9, sp}
    2a2c:	19010000 	stmdbne	r1, {}	; <UNPREDICTABLE>
    2a30:	002c1c09 	eoreq	r1, ip, r9, lsl #24
    2a34:	02170000 	andseq	r0, r7, #0
    2a38:	02090000 	andeq	r0, r9, #0
    2a3c:	81240000 			; <UNDEFINED> instruction: 0x81240000
    2a40:	01000008 	tsteq	r0, r8
    2a44:	dc0d0924 			; <UNDEFINED> instruction: 0xdc0d0924
    2a48:	91000009 	tstls	r0, r9
    2a4c:	77000002 	strvc	r0, [r0, -r2]
    2a50:	24000002 	strcs	r0, [r0], #-2
    2a54:	0000095e 	andeq	r0, r0, lr, asr r9
    2a58:	13092501 	movwne	r2, #38145	; 0x9501
    2a5c:	0000002c 	andeq	r0, r0, ip, lsr #32
    2a60:	00000356 	andeq	r0, r0, r6, asr r3
    2a64:	0000032c 	andeq	r0, r0, ip, lsr #6
    2a68:	78646925 	stmdavc	r4!, {r0, r2, r5, r8, fp, sp, lr}^
    2a6c:	09260100 	stmdbeq	r6!, {r8}
    2a70:	0000250d 	andeq	r2, r0, sp, lsl #10
    2a74:	00046e00 	andeq	r6, r4, r0, lsl #28
    2a78:	00044c00 	andeq	r4, r4, r0, lsl #24
    2a7c:	69622500 	stmdbvs	r2!, {r8, sl, sp}^
    2a80:	2701006e 	strcs	r0, [r1, -lr, rrx]
    2a84:	09e90d09 	stmibeq	r9!, {r0, r3, r8, sl, fp}^
    2a88:	053d0000 	ldreq	r0, [sp, #-0]!
    2a8c:	05310000 	ldreq	r0, [r1, #-0]!
    2a90:	c0240000 	eorgt	r0, r4, r0
    2a94:	01000009 	tsteq	r0, r9
    2a98:	dc0d0928 			; <UNDEFINED> instruction: 0xdc0d0928
    2a9c:	8b000009 	blhi	2ac8 <__data_load__+0x1c68>
    2aa0:	87000005 	strhi	r0, [r0, -r5]
    2aa4:	24000005 	strcs	r0, [r0], #-5
    2aa8:	0000088e 	andeq	r0, r0, lr, lsl #17
    2aac:	0d092901 	vstreq.16	s4, [r9, #-2]	; <UNPREDICTABLE>
    2ab0:	00000069 	andeq	r0, r0, r9, rrx
    2ab4:	000005db 	ldrdeq	r0, [r0], -fp
    2ab8:	000005a9 	andeq	r0, r0, r9, lsr #11
    2abc:	00092e24 	andeq	r2, r9, r4, lsr #28
    2ac0:	092a0100 	stmdbeq	sl!, {r8}
    2ac4:	0000250d 	andeq	r2, r0, sp, lsl #10
    2ac8:	00073f00 	andeq	r3, r7, r0, lsl #30
    2acc:	00073700 	andeq	r3, r7, r0, lsl #14
    2ad0:	08a52400 	stmiaeq	r5!, {sl, sp}
    2ad4:	2b010000 	blcs	42adc <__data_load__+0x41c7c>
    2ad8:	00701109 	rsbseq	r1, r0, r9, lsl #2
    2adc:	07850000 	streq	r0, [r5, r0]
    2ae0:	07770000 	ldrbeq	r0, [r7, -r0]!
    2ae4:	55240000 	strpl	r0, [r4, #-0]!
    2ae8:	01000009 	tsteq	r0, r9
    2aec:	250d092c 	strcs	r0, [sp, #-2348]	; 0xfffff6d4
    2af0:	e2000000 	and	r0, r0, #0
    2af4:	da000007 	ble	2b18 <__data_load__+0x1cb8>
    2af8:	25000007 	strcs	r0, [r0, #-7]
    2afc:	00647766 	rsbeq	r7, r4, r6, ror #14
    2b00:	0d092d01 	stceq	13, cr2, [r9, #-4]
    2b04:	000009dc 	ldrdeq	r0, [r0], -ip
    2b08:	00000824 	andeq	r0, r0, r4, lsr #16
    2b0c:	00000816 	andeq	r0, r0, r6, lsl r8
    2b10:	6b636225 	blvs	18db3ac <_bsl_base_address+0x16d93ac>
    2b14:	092e0100 	stmdbeq	lr!, {r8}
    2b18:	0009dc0d 	andeq	sp, r9, sp, lsl #24
    2b1c:	00088a00 	andeq	r8, r8, r0, lsl #20
    2b20:	00087a00 	andeq	r7, r8, r0, lsl #20
    2b24:	00712500 	rsbseq	r2, r1, r0, lsl #10
    2b28:	0b092f01 	bleq	24e734 <_bsl_base_address+0x4c734>
    2b2c:	000009e9 	andeq	r0, r0, r9, ror #19
    2b30:	0000090b 	andeq	r0, r0, fp, lsl #18
    2b34:	000008f7 	strdeq	r0, [r0], -r7
    2b38:	00626e25 	rsbeq	r6, r2, r5, lsr #28
    2b3c:	13093101 	movwne	r3, #37121	; 0x9101
    2b40:	0000002c 	andeq	r0, r0, ip, lsr #32
    2b44:	00000999 	muleq	r0, r9, r9
    2b48:	00000985 	andeq	r0, r0, r5, lsl #19
    2b4c:	000d9526 	andeq	r9, sp, r6, lsr #10
    2b50:	00047400 	andeq	r7, r4, r0, lsl #8
    2b54:	00000100 	andeq	r0, r0, r0, lsl #2
    2b58:	01000000 	mrseq	r0, (UNDEF: 0)
    2b5c:	03050a14 	movweq	r0, #23060	; 0x5a14
    2b60:	2700000d 	strcs	r0, [r0, -sp]
    2b64:	00000db0 			; <UNDEFINED> instruction: 0x00000db0
    2b68:	000da328 	andeq	sl, sp, r8, lsr #6
    2b6c:	000a6100 	andeq	r6, sl, r0, lsl #2
    2b70:	000a5500 	andeq	r5, sl, r0, lsl #10
    2b74:	00002900 	andeq	r2, r0, r0, lsl #18
    2b78:	bc2a0000 	stclt	0, cr0, [sl], #-0
    2b7c:	c700000d 	strgt	r0, [r0, -sp]
    2b80:	ab00000a 	blge	2bb0 <__data_load__+0x1d50>
    2b84:	2a00000a 	bcs	2bb4 <__data_load__+0x1d54>
    2b88:	00000dc9 	andeq	r0, r0, r9, asr #27
    2b8c:	00000b75 	andeq	r0, r0, r5, ror fp
    2b90:	00000b69 	andeq	r0, r0, r9, ror #22
    2b94:	000dd62a 	andeq	sp, sp, sl, lsr #12
    2b98:	000bd500 	andeq	sp, fp, r0, lsl #10
    2b9c:	000bc300 	andeq	ip, fp, r0, lsl #6
    2ba0:	0de32a00 			; <UNDEFINED> instruction: 0x0de32a00
    2ba4:	0c8b0000 	stceq	0, cr0, [fp], {0}
    2ba8:	0c7d0000 	ldcleq	0, cr0, [sp], #-0
    2bac:	f02a0000 			; <UNDEFINED> instruction: 0xf02a0000
    2bb0:	f300000d 	vhadd.u8	d0, d0, d13
    2bb4:	e700000c 	str	r0, [r0, -ip]
    2bb8:	2a00000c 	bcs	2bf0 <__data_load__+0x1d90>
    2bbc:	00000dfd 	strdeq	r0, [r0], -sp
    2bc0:	00000d55 	andeq	r0, r0, r5, asr sp
    2bc4:	00000d4f 	andeq	r0, r0, pc, asr #26
    2bc8:	000e0a2a 	andeq	r0, lr, sl, lsr #20
    2bcc:	000d9800 	andeq	r9, sp, r0, lsl #16
    2bd0:	000d8800 	andeq	r8, sp, r0, lsl #16
    2bd4:	0e172a00 	vnmlseq.f32	s4, s14, s0
    2bd8:	0e140000 	cdpeq	0, 1, cr0, cr4, cr0, {0}
    2bdc:	0df80000 	ldcleq	0, cr0, [r8]
    2be0:	242a0000 	strtcs	r0, [sl], #-0
    2be4:	d800000e 	stmdale	r0, {r1, r2, r3}
    2be8:	c000000e 	andgt	r0, r0, lr
    2bec:	2a00000e 	bcs	2c2c <__data_load__+0x1dcc>
    2bf0:	00000e31 	andeq	r0, r0, r1, lsr lr
    2bf4:	00000f9d 	muleq	r0, sp, pc	; <UNPREDICTABLE>
    2bf8:	00000f8b 	andeq	r0, r0, fp, lsl #31
    2bfc:	000e3e2a 	andeq	r3, lr, sl, lsr #28
    2c00:	00102a00 	andseq	r2, r0, r0, lsl #20
    2c04:	00101e00 	andseq	r1, r0, r0, lsl #28
    2c08:	04a22b00 	strteq	r2, [r2], #2816	; 0xb00
    2c0c:	0e4c0000 	cdpeq	0, 4, cr0, cr12, cr0, {0}
    2c10:	0cb70000 	ldceq	0, cr0, [r7]
    2c14:	012c0000 			; <UNDEFINED> instruction: 0x012c0000
    2c18:	00760250 	rsbseq	r0, r6, r0, asr r2
    2c1c:	0351012c 	cmpeq	r1, #44, 2
    2c20:	0006007d 	andeq	r0, r6, sp, ror r0
    2c24:	0005162b 	andeq	r1, r5, fp, lsr #12
    2c28:	000e4c00 	andeq	r4, lr, r0, lsl #24
    2c2c:	000cd100 	andeq	sp, ip, r0, lsl #2
    2c30:	50012c00 	andpl	r2, r1, r0, lsl #24
    2c34:	2c007602 	stccs	6, cr7, [r0], {2}
    2c38:	7b025101 	blvc	97044 <__data_load__+0x961e4>
    2c3c:	242b0000 	strtcs	r0, [fp], #-0
    2c40:	4c000007 	stcmi	0, cr0, [r0], {7}
    2c44:	eb00000e 	bl	2c84 <__data_load__+0x1e24>
    2c48:	2c00000c 	stccs	0, cr0, [r0], {12}
    2c4c:	76025001 	strvc	r5, [r2], -r1
    2c50:	51012c00 	tstpl	r1, r0, lsl #24
    2c54:	00007b02 	andeq	r7, r0, r2, lsl #22
    2c58:	0007d22d 	andeq	sp, r7, sp, lsr #4
    2c5c:	000e5800 	andeq	r5, lr, r0, lsl #16
    2c60:	50012c00 	andpl	r2, r1, r0, lsl #24
    2c64:	2c007602 	stccs	6, cr7, [r0], {2}
    2c68:	74025101 	strvc	r5, [r2], #-257	; 0xfffffeff
    2c6c:	00000008 	andeq	r0, r0, r8
    2c70:	0002ba2b 	andeq	fp, r2, fp, lsr #20
    2c74:	000e6500 	andeq	r6, lr, r0, lsl #10
    2c78:	000d1700 	andeq	r1, sp, r0, lsl #14
    2c7c:	50012c00 	andpl	r2, r1, r0, lsl #24
    2c80:	00007602 	andeq	r7, r0, r2, lsl #12
    2c84:	0002f02b 	andeq	pc, r2, fp, lsr #32
    2c88:	000e7200 	andeq	r7, lr, r0, lsl #4
    2c8c:	000d2b00 	andeq	r2, sp, r0, lsl #22
    2c90:	50012c00 	andpl	r2, r1, r0, lsl #24
    2c94:	00007602 	andeq	r7, r0, r2, lsl #12
    2c98:	0003082e 	andeq	r0, r3, lr, lsr #16
    2c9c:	000e6500 	andeq	r6, lr, r0, lsl #10
    2ca0:	04162b00 	ldreq	r2, [r6], #-2816	; 0xfffff500
    2ca4:	0e720000 	cdpeq	0, 7, cr0, cr2, cr0, {0}
    2ca8:	0d480000 	stcleq	0, cr0, [r8, #-0]
    2cac:	012c0000 			; <UNDEFINED> instruction: 0x012c0000
    2cb0:	00760250 	rsbseq	r0, r6, r0, asr r2
    2cb4:	05a02b00 	streq	r2, [r0, #2816]!	; 0xb00
    2cb8:	0e720000 	cdpeq	0, 7, cr0, cr2, cr0, {0}
    2cbc:	0d5c0000 	ldcleq	0, cr0, [ip, #-0]
    2cc0:	012c0000 			; <UNDEFINED> instruction: 0x012c0000
    2cc4:	00760250 	rsbseq	r0, r6, r0, asr r2
    2cc8:	06502b00 	ldrbeq	r2, [r0], -r0, lsl #22
    2ccc:	0e720000 	cdpeq	0, 7, cr0, cr2, cr0, {0}
    2cd0:	0d700000 	ldcleq	0, cr0, [r0, #-0]
    2cd4:	012c0000 			; <UNDEFINED> instruction: 0x012c0000
    2cd8:	00760250 	rsbseq	r0, r6, r0, asr r2
    2cdc:	067e2b00 	ldrbteq	r2, [lr], -r0, lsl #22
    2ce0:	0e720000 	cdpeq	0, 7, cr0, cr2, cr0, {0}
    2ce4:	0d840000 	stceq	0, cr0, [r4]
    2ce8:	012c0000 			; <UNDEFINED> instruction: 0x012c0000
    2cec:	00760250 	rsbseq	r0, r6, r0, asr r2
    2cf0:	06ae2d00 	strteq	r2, [lr], r0, lsl #26
    2cf4:	0e720000 	cdpeq	0, 7, cr0, cr2, cr0, {0}
    2cf8:	012c0000 			; <UNDEFINED> instruction: 0x012c0000
    2cfc:	00760250 	rsbseq	r0, r6, r0, asr r2
    2d00:	cb2f0000 	blgt	bc2d08 <_bsl_base_address+0x9c0d08>
    2d04:	01000008 	tsteq	r0, r8
    2d08:	010d0859 	tsteq	sp, r9, asr r8
    2d0c:	00000e4c 	andeq	r0, r0, ip, asr #28
    2d10:	0009df30 	andeq	sp, r9, r0, lsr pc
    2d14:	08590100 	ldmdaeq	r9, {r8}^
    2d18:	0004621f 	andeq	r6, r4, pc, lsl r2
    2d1c:	626e3100 	rsbvs	r3, lr, #0, 2
    2d20:	08590100 	ldmdaeq	r9, {r8}^
    2d24:	00002c34 	andeq	r2, r0, r4, lsr ip
    2d28:	72623200 	rsbvc	r3, r2, #0, 4
    2d2c:	5e01006b 	cdppl	0, 0, cr0, cr1, cr11, {3}
    2d30:	05b10d08 	ldreq	r0, [r1, #3336]!	; 0xd08
    2d34:	e6330000 	ldrt	r0, [r3], -r0
    2d38:	01000008 	tsteq	r0, r8
    2d3c:	2c13085f 	ldccs	8, cr0, [r3], {95}	; 0x5f
    2d40:	33000000 	movwcc	r0, #0
    2d44:	00000a6b 	andeq	r0, r0, fp, ror #20
    2d48:	13086001 	movwne	r6, #32769	; 0x8001
    2d4c:	0000002c 	andeq	r0, r0, ip, lsr #32
    2d50:	000a2633 	andeq	r2, sl, r3, lsr r6
    2d54:	08610100 	stmdaeq	r1!, {r8}^
    2d58:	00002507 	andeq	r2, r0, r7, lsl #10
    2d5c:	08c33300 	stmiaeq	r3, {r8, r9, ip, sp}^
    2d60:	62010000 	andvs	r0, r1, #0
    2d64:	05b10d08 	ldreq	r0, [r1, #3336]!	; 0xd08
    2d68:	46330000 	ldrtmi	r0, [r3], -r0
    2d6c:	0100000a 	tsteq	r0, sl
    2d70:	2c130863 	ldccs	8, cr0, [r3], {99}	; 0x63
    2d74:	33000000 	movwcc	r0, #0
    2d78:	000009ca 	andeq	r0, r0, sl, asr #19
    2d7c:	0d086501 	cfstr32eq	mvfx6, [r8, #-4]
    2d80:	000009dc 	ldrdeq	r0, [r0], -ip
    2d84:	000a4233 	andeq	r4, sl, r3, lsr r2
    2d88:	08660100 	stmdaeq	r6!, {r8}^
    2d8c:	00002c13 	andeq	r2, r0, r3, lsl ip
    2d90:	089d3300 	ldmeq	sp, {r8, r9, ip, sp}
    2d94:	67010000 	strvs	r0, [r1, -r0]
    2d98:	05b10d08 	ldreq	r0, [r1, #3336]!	; 0xd08
    2d9c:	24330000 	ldrtcs	r0, [r3], #-0
    2da0:	01000009 	tsteq	r0, r9
    2da4:	2c16086b 	ldccs	8, cr0, [r6], {107}	; 0x6b
    2da8:	33000000 	movwcc	r0, #0
    2dac:	0000099f 	muleq	r0, pc, r9	; <UNPREDICTABLE>
    2db0:	11086c01 	tstne	r8, r1, lsl #24
    2db4:	00000070 	andeq	r0, r0, r0, ror r0
    2db8:	0a1e3400 	beq	78fdc0 <_bsl_base_address+0x58ddc0>
    2dbc:	0a1e0000 	beq	782dc4 <_bsl_base_address+0x580dc4>
    2dc0:	99060000 	stmdbls	r6, {}	; <UNPREDICTABLE>
    2dc4:	084e350e 	stmdaeq	lr, {r1, r2, r3, r8, sl, ip, sp}^
    2dc8:	084e0000 	stmdaeq	lr, {}^	; <UNPREDICTABLE>
    2dcc:	19010000 	stmdbne	r1, {}	; <UNPREDICTABLE>
    2dd0:	f5350904 			; <UNDEFINED> instruction: 0xf5350904
    2dd4:	f5000008 			; <UNDEFINED> instruction: 0xf5000008
    2dd8:	01000008 	tsteq	r0, r8
    2ddc:	350d0148 	strcc	r0, [sp, #-328]	; 0xfffffeb8
    2de0:	000008ab 	andeq	r0, r0, fp, lsr #17
    2de4:	000008ab 	andeq	r0, r0, fp, lsr #17
    2de8:	0d014901 	vstreq.16	s8, [r1, #-2]	; <UNPREDICTABLE>
    2dec:	00013900 	andeq	r3, r1, r0, lsl #18
    2df0:	34000400 	strcc	r0, [r0], #-1024	; 0xfffffc00
    2df4:	0400000b 	streq	r0, [r0], #-11
    2df8:	00016c01 	andeq	r6, r1, r1, lsl #24
    2dfc:	0a8a0c00 	beq	fe285e04 <__stack+0xde28552c>
    2e00:	0abe0000 	beq	fef82e08 <__stack+0xdef82530>
    2e04:	080c0000 	stmdaeq	ip, {}	; <UNPREDICTABLE>
    2e08:	00a60000 	adceq	r0, r6, r0
    2e0c:	10090000 	andne	r0, r9, r0
    2e10:	04020000 	streq	r0, [r2], #-0
    2e14:	746e6905 	strbtvc	r6, [lr], #-2309	; 0xfffff6fb
    2e18:	06180300 	ldreq	r0, [r8], -r0, lsl #6
    2e1c:	d1020000 	mrsle	r0, (UNDEF: 2)
    2e20:	00003817 	andeq	r3, r0, r7, lsl r8
    2e24:	07040400 	streq	r0, [r4, -r0, lsl #8]
    2e28:	00000156 	andeq	r0, r0, r6, asr r1
    2e2c:	94050804 	strls	r0, [r5], #-2052	; 0xfffff7fc
    2e30:	04000000 	streq	r0, [r0], #-0
    2e34:	02030408 	andeq	r0, r3, #8, 8	; 0x8000000
    2e38:	01040000 	mrseq	r0, (UNDEF: 4)
    2e3c:	0000b306 	andeq	fp, r0, r6, lsl #6
    2e40:	08010400 	stmdaeq	r1, {sl}
    2e44:	000000b1 	strheq	r0, [r0], -r1
    2e48:	0f050204 	svceq	0x00050204
    2e4c:	04000002 	streq	r0, [r0], #-2
    2e50:	01f00702 	mvnseq	r0, r2, lsl #14
    2e54:	04040000 	streq	r0, [r4], #-0
    2e58:	00009905 	andeq	r9, r0, r5, lsl #18
    2e5c:	07040400 	streq	r0, [r4, -r0, lsl #8]
    2e60:	00000151 	andeq	r0, r0, r1, asr r1
    2e64:	4c070804 	stcmi	8, cr0, [r7], {4}
    2e68:	05000001 	streq	r0, [r0, #-1]
    2e6c:	86040604 	strhi	r0, [r4], -r4, lsl #12
    2e70:	04000000 	streq	r0, [r0], #-0
    2e74:	00ba0801 	adcseq	r0, sl, r1, lsl #16
    2e78:	17070000 	strne	r0, [r7, -r0]
    2e7c:	0300000b 	movweq	r0, #11
    2e80:	007e0921 	rsbseq	r0, lr, r1, lsr #18
    2e84:	080c0000 	stmdaeq	ip, {}	; <UNPREDICTABLE>
    2e88:	00a60000 	adceq	r0, r6, r0
    2e8c:	9c010000 	stcls	0, cr0, [r1], {-0}
    2e90:	00000136 	andeq	r0, r0, r6, lsr r1
    2e94:	01006d08 	tsteq	r0, r8, lsl #26
    2e98:	007e0f26 	rsbseq	r0, lr, r6, lsr #30
    2e9c:	50010000 	andpl	r0, r1, r0
    2ea0:	01006309 	tsteq	r0, r9, lsl #6
    2ea4:	00250627 	eoreq	r0, r5, r7, lsr #12
    2ea8:	108c0000 	addne	r0, ip, r0
    2eac:	10860000 	addne	r0, r6, r0
    2eb0:	6e090000 	cdpvs	0, 0, cr0, cr9, cr0, {0}
    2eb4:	09280100 	stmdbeq	r8!, {r8}
    2eb8:	0000002c 	andeq	r0, r0, ip, lsr #32
    2ebc:	000010ce 	andeq	r1, r0, lr, asr #1
    2ec0:	000010b8 	strheq	r1, [r0], -r8
    2ec4:	0100730a 	tsteq	r0, sl, lsl #6
    2ec8:	0080092a 	addeq	r0, r0, sl, lsr #18
    2ecc:	11920000 	orrsne	r0, r2, r0
    2ed0:	11800000 	orrne	r0, r0, r0
    2ed4:	690a0000 	stmdbvs	sl, {}	; <UNPREDICTABLE>
    2ed8:	102d0100 	eorne	r0, sp, r0, lsl #2
    2edc:	00000038 	andeq	r0, r0, r8, lsr r0
    2ee0:	00001205 	andeq	r1, r0, r5, lsl #4
    2ee4:	00001201 	andeq	r1, r0, r1, lsl #4
    2ee8:	000b1e0b 	andeq	r1, fp, fp, lsl #28
    2eec:	112e0100 			; <UNDEFINED> instruction: 0x112e0100
    2ef0:	00000070 	andeq	r0, r0, r0, ror r0
    2ef4:	0000122b 	andeq	r1, r0, fp, lsr #4
    2ef8:	00001227 	andeq	r1, r0, r7, lsr #4
    2efc:	000a7d0b 	andeq	r7, sl, fp, lsl #26
    2f00:	122f0100 	eorne	r0, pc, #0, 2
    2f04:	00000136 	andeq	r0, r0, r6, lsr r1
    2f08:	0000125f 	andeq	r1, r0, pc, asr r2
    2f0c:	00001249 	andeq	r1, r0, r9, asr #4
    2f10:	0100640a 	tsteq	r0, sl, lsl #8
    2f14:	00381030 	eorseq	r1, r8, r0, lsr r0
    2f18:	12f00000 	rscsne	r0, r0, #0
    2f1c:	12ea0000 	rscne	r0, sl, #0
    2f20:	06000000 	streq	r0, [r0], -r0
    2f24:	00007004 	andeq	r7, r0, r4
    2f28:	093e0000 	ldmdbeq	lr!, {}	; <UNPREDICTABLE>
    2f2c:	00040000 	andeq	r0, r4, r0
    2f30:	00000be8 	andeq	r0, r0, r8, ror #23
    2f34:	016c0104 	cmneq	ip, r4, lsl #2
    2f38:	3e0c0000 	cdpcc	0, 0, cr0, cr12, cr0, {0}
    2f3c:	f300000b 	vhadd.u8	d0, d0, d11
    2f40:	b4000000 	strlt	r0, [r0], #-0
    2f44:	06000008 	streq	r0, [r0], -r8
    2f48:	d7000000 	strle	r0, [r0, -r0]
    2f4c:	02000011 	andeq	r0, r0, #17
    2f50:	6e690504 	cdpvs	5, 6, cr0, cr9, cr4, {0}
    2f54:	04030074 	streq	r0, [r3], #-116	; 0xffffff8c
    2f58:	00015607 	andeq	r5, r1, r7, lsl #12
    2f5c:	05080300 	streq	r0, [r8, #-768]	; 0xfffffd00
    2f60:	00000094 	muleq	r0, r4, r0
    2f64:	03040803 	movweq	r0, #18435	; 0x4803
    2f68:	04000002 	streq	r0, [r0], #-2
    2f6c:	000003d5 	ldrdeq	r0, [r0], -r5
    2f70:	17015e02 	strne	r5, [r1, -r2, lsl #28]
    2f74:	0000002c 	andeq	r0, r0, ip, lsr #32
    2f78:	b3060103 	movwlt	r0, #24835	; 0x6103
    2f7c:	03000000 	movweq	r0, #0
    2f80:	00b10801 	adcseq	r0, r1, r1, lsl #16
    2f84:	02030000 	andeq	r0, r3, #0
    2f88:	00020f05 	andeq	r0, r2, r5, lsl #30
    2f8c:	07020300 	streq	r0, [r2, -r0, lsl #6]
    2f90:	000001f0 	strdeq	r0, [r0], -r0	; <UNPREDICTABLE>
    2f94:	99050403 	stmdbls	r5, {r0, r1, sl}
    2f98:	03000000 	movweq	r0, #0
    2f9c:	01510704 	cmpeq	r1, r4, lsl #14
    2fa0:	08030000 	stmdaeq	r3, {}	; <UNPREDICTABLE>
    2fa4:	00014c07 	andeq	r4, r1, r7, lsl #24
    2fa8:	04100500 	ldreq	r0, [r0], #-1280	; 0xfffffb00
    2fac:	2e030000 	cdpcs	0, 0, cr0, cr3, cr0, {0}
    2fb0:	00006a0e 	andeq	r6, r0, lr, lsl #20
    2fb4:	052f0500 	streq	r0, [pc, #-1280]!	; 2abc <__data_load__+0x1c5c>
    2fb8:	74030000 	strvc	r0, [r3], #-0
    2fbc:	00006a0e 	andeq	r6, r0, lr, lsl #20
    2fc0:	03040600 	movweq	r0, #17920	; 0x4600
    2fc4:	00b903a5 	adcseq	r0, r9, r5, lsr #7
    2fc8:	cf070000 	svcgt	0x00070000
    2fcc:	03000003 	movweq	r0, #3
    2fd0:	00410ca7 	subeq	r0, r1, r7, lsr #25
    2fd4:	81070000 	mrshi	r0, (UNDEF: 7)
    2fd8:	03000003 	movweq	r0, #3
    2fdc:	00b913a8 	adcseq	r1, r9, r8, lsr #7
    2fe0:	08000000 	stmdaeq	r0, {}	; <UNPREDICTABLE>
    2fe4:	00000055 	andeq	r0, r0, r5, asr r0
    2fe8:	000000c9 	andeq	r0, r0, r9, asr #1
    2fec:	00002c09 	andeq	r2, r0, r9, lsl #24
    2ff0:	0a000300 	beq	3bf8 <__data_load__+0x2d98>
    2ff4:	09a20308 	stmibeq	r2!, {r3, r8, r9}
    2ff8:	000000ed 	andeq	r0, r0, sp, ror #1
    2ffc:	0005190b 	andeq	r1, r5, fp, lsl #18
    3000:	07a40300 	streq	r0, [r4, r0, lsl #6]!
    3004:	00000025 	andeq	r0, r0, r5, lsr #32
    3008:	05210b00 	streq	r0, [r1, #-2816]!	; 0xfffff500
    300c:	a9030000 	stmdbge	r3, {}	; <UNPREDICTABLE>
    3010:	00009705 	andeq	r9, r0, r5, lsl #14
    3014:	05000400 	streq	r0, [r0, #-1024]	; 0xfffffc00
    3018:	000004a9 	andeq	r0, r0, r9, lsr #9
    301c:	c903aa03 	stmdbgt	r3, {r0, r1, r9, fp, sp, pc}
    3020:	0c000000 	stceq	0, cr0, [r0], {-0}
    3024:	05610504 	strbeq	r0, [r1, #-1284]!	; 0xfffffafc
    3028:	16040000 	strne	r0, [r4], -r0
    302c:	00007119 	andeq	r7, r0, r9, lsl r1
    3030:	04320500 	ldrteq	r0, [r2], #-1280	; 0xfffffb00
    3034:	0c050000 	stceq	0, cr0, [r5], {-0}
    3038:	0000250d 	andeq	r2, r0, sp, lsl #10
    303c:	03440500 	movteq	r0, #17664	; 0x4500
    3040:	23040000 	movwcs	r0, #16384	; 0x4000
    3044:	0001071b 	andeq	r0, r1, fp, lsl r7
    3048:	03550d00 	cmpeq	r5, #0, 26
    304c:	04180000 	ldreq	r0, [r8], #-0
    3050:	01790834 	cmneq	r9, r4, lsr r8
    3054:	ca0b0000 	bgt	2c305c <_bsl_base_address+0xc105c>
    3058:	04000004 	streq	r0, [r0], #-4
    305c:	01791336 	cmneq	r9, r6, lsr r3
    3060:	0e000000 	cdpeq	0, 0, cr0, cr0, cr0, {0}
    3064:	04006b5f 	streq	r6, [r0], #-2911	; 0xfffff4a1
    3068:	00250737 	eoreq	r0, r5, r7, lsr r7
    306c:	0b040000 	bleq	103074 <__data_load__+0x102214>
    3070:	0000050b 	andeq	r0, r0, fp, lsl #10
    3074:	250b3704 	strcs	r3, [fp, #-1796]	; 0xfffff8fc
    3078:	08000000 	stmdaeq	r0, {}	; <UNPREDICTABLE>
    307c:	00033e0b 	andeq	r3, r3, fp, lsl #28
    3080:	14370400 	ldrtne	r0, [r7], #-1024	; 0xfffffc00
    3084:	00000025 	andeq	r0, r0, r5, lsr #32
    3088:	059b0b0c 	ldreq	r0, [fp, #2828]	; 0xb0c
    308c:	37040000 	strcc	r0, [r4, -r0]
    3090:	0000251b 	andeq	r2, r0, fp, lsl r5
    3094:	5f0e1000 	svcpl	0x000e1000
    3098:	38040078 	stmdacc	r4, {r3, r4, r5, r6}
    309c:	00017f0b 	andeq	r7, r1, fp, lsl #30
    30a0:	0f001400 	svceq	0x00001400
    30a4:	00011f04 	andeq	r1, r1, r4, lsl #30
    30a8:	00fb0800 	rscseq	r0, fp, r0, lsl #16
    30ac:	018f0000 	orreq	r0, pc, r0
    30b0:	2c090000 	stccs	0, cr0, [r9], {-0}
    30b4:	00000000 	andeq	r0, r0, r0
    30b8:	037c0d00 	cmneq	ip, #0, 26
    30bc:	04240000 	strteq	r0, [r4], #-0
    30c0:	0212083c 	andseq	r0, r2, #60, 16	; 0x3c0000
    30c4:	a10b0000 	mrsge	r0, (UNDEF: 11)
    30c8:	04000002 	streq	r0, [r0], #-2
    30cc:	0025093e 	eoreq	r0, r5, lr, lsr r9
    30d0:	0b000000 	bleq	30d8 <__data_load__+0x2278>
    30d4:	00000537 	andeq	r0, r0, r7, lsr r5
    30d8:	25093f04 	strcs	r3, [r9, #-3844]	; 0xfffff0fc
    30dc:	04000000 	streq	r0, [r0], #-0
    30e0:	0002b60b 	andeq	fp, r2, fp, lsl #12
    30e4:	09400400 	stmdbeq	r0, {sl}^
    30e8:	00000025 	andeq	r0, r0, r5, lsr #32
    30ec:	060e0b08 	streq	r0, [lr], -r8, lsl #22
    30f0:	41040000 	mrsmi	r0, (UNDEF: 4)
    30f4:	00002509 	andeq	r2, r0, r9, lsl #10
    30f8:	fc0b0c00 	stc2	12, cr0, [fp], {-0}
    30fc:	04000003 	streq	r0, [r0], #-3
    3100:	00250942 	eoreq	r0, r5, r2, asr #18
    3104:	0b100000 	bleq	40310c <_bsl_base_address+0x20110c>
    3108:	000003eb 	andeq	r0, r0, fp, ror #7
    310c:	25094304 	strcs	r4, [r9, #-772]	; 0xfffffcfc
    3110:	14000000 	strne	r0, [r0], #-0
    3114:	0005a00b 	andeq	sl, r5, fp
    3118:	09440400 	stmdbeq	r4, {sl}^
    311c:	00000025 	andeq	r0, r0, r5, lsr #32
    3120:	045f0b18 	ldrbeq	r0, [pc], #-2840	; 3128 <__data_load__+0x22c8>
    3124:	45040000 	strmi	r0, [r4, #-0]
    3128:	00002509 	andeq	r2, r0, r9, lsl #10
    312c:	d50b1c00 	strle	r1, [fp, #-3072]	; 0xfffff400
    3130:	04000005 	streq	r0, [r0], #-5
    3134:	00250946 	eoreq	r0, r5, r6, asr #18
    3138:	00200000 	eoreq	r0, r0, r0
    313c:	0002c510 	andeq	ip, r2, r0, lsl r5
    3140:	04010800 	streq	r0, [r1], #-2048	; 0xfffff800
    3144:	0257084f 	subseq	r0, r7, #5177344	; 0x4f0000
    3148:	310b0000 	mrscc	r0, (UNDEF: 11)
    314c:	04000003 	streq	r0, [r0], #-3
    3150:	02570a50 	subseq	r0, r7, #80, 20	; 0x50000
    3154:	0b000000 	bleq	315c <__data_load__+0x22fc>
    3158:	00000231 	andeq	r0, r0, r1, lsr r2
    315c:	57095104 	strpl	r5, [r9, -r4, lsl #2]
    3160:	80000002 	andhi	r0, r0, r2
    3164:	00055311 	andeq	r5, r5, r1, lsl r3
    3168:	0a530400 	beq	14c4170 <_bsl_base_address+0x12c2170>
    316c:	000000fb 	strdeq	r0, [r0], -fp
    3170:	ea110100 	b	443578 <_bsl_base_address+0x241578>
    3174:	04000002 	streq	r0, [r0], #-2
    3178:	00fb0a56 	rscseq	r0, fp, r6, asr sl
    317c:	01040000 	mrseq	r0, (UNDEF: 4)
    3180:	00f90800 	rscseq	r0, r9, r0, lsl #16
    3184:	02670000 	rsbeq	r0, r7, #0
    3188:	2c090000 	stccs	0, cr0, [r9], {-0}
    318c:	1f000000 	svcne	0x00000000
    3190:	021d1000 	andseq	r1, sp, #0
    3194:	01900000 	orrseq	r0, r0, r0
    3198:	aa086204 	bge	21b9b0 <_bsl_base_address+0x199b0>
    319c:	0b000002 	bleq	31ac <__data_load__+0x234c>
    31a0:	000004ca 	andeq	r0, r0, sl, asr #9
    31a4:	aa126304 	bge	49bdbc <_bsl_base_address+0x299dbc>
    31a8:	00000002 	andeq	r0, r0, r2
    31ac:	0004db0b 	andeq	sp, r4, fp, lsl #22
    31b0:	06640400 	strbteq	r0, [r4], -r0, lsl #8
    31b4:	00000025 	andeq	r0, r0, r5, lsr #32
    31b8:	03390b04 	teqeq	r9, #4, 22	; 0x1000
    31bc:	66040000 	strvs	r0, [r4], -r0
    31c0:	0002b009 	andeq	fp, r2, r9
    31c4:	c50b0800 	strgt	r0, [fp, #-2048]	; 0xfffff800
    31c8:	04000002 	streq	r0, [r0], #-2
    31cc:	02121e67 	andseq	r1, r2, #1648	; 0x670
    31d0:	00880000 	addeq	r0, r8, r0
    31d4:	0267040f 	rsbeq	r0, r7, #251658240	; 0xf000000
    31d8:	c0080000 	andgt	r0, r8, r0
    31dc:	c0000002 	andgt	r0, r0, r2
    31e0:	09000002 	stmdbeq	r0, {r1}
    31e4:	0000002c 	andeq	r0, r0, ip, lsr #32
    31e8:	040f001f 	streq	r0, [pc], #-31	; 31f0 <__data_load__+0x2390>
    31ec:	000002c6 	andeq	r0, r0, r6, asr #5
    31f0:	04690d12 	strbteq	r0, [r9], #-3346	; 0xfffff2ee
    31f4:	04080000 	streq	r0, [r8], #-0
    31f8:	02ef087a 	rsceq	r0, pc, #7995392	; 0x7a0000
    31fc:	650b0000 	strvs	r0, [fp, #-0]
    3200:	0400000a 	streq	r0, [r0], #-10
    3204:	02ef117b 	rsceq	r1, pc, #-1073741794	; 0xc000001e
    3208:	0b000000 	bleq	3210 <__data_load__+0x23b0>
    320c:	00000928 	andeq	r0, r0, r8, lsr #18
    3210:	25067c04 	strcs	r7, [r6, #-3076]	; 0xfffff3fc
    3214:	04000000 	streq	r0, [r0], #-0
    3218:	55040f00 	strpl	r0, [r4, #-3840]	; 0xfffff100
    321c:	0d000000 	stceq	0, cr0, [r0, #-0]
    3220:	000004b4 			; <UNDEFINED> instruction: 0x000004b4
    3224:	08ba0468 	ldmeq	sl!, {r3, r5, r6, sl}
    3228:	00000438 	andeq	r0, r0, r8, lsr r4
    322c:	00705f0e 	rsbseq	r5, r0, lr, lsl #30
    3230:	ef12bb04 	svc	0x0012bb04
    3234:	00000002 	andeq	r0, r0, r2
    3238:	00725f0e 	rsbseq	r5, r2, lr, lsl #30
    323c:	2507bc04 	strcs	fp, [r7, #-3076]	; 0xfffff3fc
    3240:	04000000 	streq	r0, [r0], #-0
    3244:	00775f0e 	rsbseq	r5, r7, lr, lsl #30
    3248:	2507bd04 	strcs	fp, [r7, #-3332]	; 0xfffff2fc
    324c:	08000000 	stmdaeq	r0, {}	; <UNPREDICTABLE>
    3250:	0002e30b 	andeq	lr, r2, fp, lsl #6
    3254:	09be0400 	ldmibeq	lr!, {sl}
    3258:	0000005c 	andeq	r0, r0, ip, asr r0
    325c:	03980b0c 	orrseq	r0, r8, #12, 22	; 0x3000
    3260:	bf040000 	svclt	0x00040000
    3264:	00005c09 	andeq	r5, r0, r9, lsl #24
    3268:	5f0e0e00 	svcpl	0x000e0e00
    326c:	04006662 	streq	r6, [r0], #-1634	; 0xfffff99e
    3270:	02c711c0 	sbceq	r1, r7, #192, 2	; 0x30
    3274:	0b100000 	bleq	40327c <_bsl_base_address+0x20127c>
    3278:	00000270 	andeq	r0, r0, r0, ror r2
    327c:	2507c104 	strcs	ip, [r7, #-260]	; 0xfffffefc
    3280:	18000000 	stmdane	r0, {}	; <UNPREDICTABLE>
    3284:	0002d30b 	andeq	sp, r2, fp, lsl #6
    3288:	0ac80400 	beq	ff204290 <__stack+0xdf2039b8>
    328c:	000000f9 	strdeq	r0, [r0], -r9
    3290:	036c0b1c 	cmneq	ip, #28, 22	; 0x7000
    3294:	ca040000 	bgt	10329c <__data_load__+0x10243c>
    3298:	0005b71d 	andeq	fp, r5, sp, lsl r7
    329c:	e40b2000 	str	r2, [fp], #-0
    32a0:	04000003 	streq	r0, [r0], #-3
    32a4:	05e11dcc 	strbeq	r1, [r1, #3532]!	; 0xdcc
    32a8:	0b240000 	bleq	9032b0 <_bsl_base_address+0x7012b0>
    32ac:	00000529 	andeq	r0, r0, r9, lsr #10
    32b0:	050dcf04 	streq	ip, [sp, #-3844]	; 0xfffff0fc
    32b4:	28000006 	stmdacs	r0, {r1, r2}
    32b8:	0005ef0b 	andeq	lr, r5, fp, lsl #30
    32bc:	09d00400 	ldmibeq	r0, {sl}^
    32c0:	0000061f 	andeq	r0, r0, pc, lsl r6
    32c4:	755f0e2c 	ldrbvc	r0, [pc, #-3628]	; 24a0 <__data_load__+0x1640>
    32c8:	d3040062 	movwle	r0, #16482	; 0x4062
    32cc:	0002c711 	andeq	ip, r2, r1, lsl r7
    32d0:	5f0e3000 	svcpl	0x000e3000
    32d4:	04007075 	streq	r7, [r0], #-117	; 0xffffff8b
    32d8:	02ef12d4 	rsceq	r1, pc, #212, 4	; 0x4000000d
    32dc:	0e380000 	cdpeq	0, 3, cr0, cr8, cr0, {0}
    32e0:	0072755f 	rsbseq	r7, r2, pc, asr r5
    32e4:	2507d504 	strcs	sp, [r7, #-1284]	; 0xfffffafc
    32e8:	3c000000 	stccc	0, cr0, [r0], {-0}
    32ec:	0002b00b 	andeq	fp, r2, fp
    32f0:	11d80400 	bicsne	r0, r8, r0, lsl #8
    32f4:	00000625 	andeq	r0, r0, r5, lsr #12
    32f8:	05c70b40 	strbeq	r0, [r7, #2880]	; 0xb40
    32fc:	d9040000 	stmdble	r4, {}	; <UNPREDICTABLE>
    3300:	00063511 	andeq	r3, r6, r1, lsl r5
    3304:	5f0e4300 	svcpl	0x000e4300
    3308:	0400626c 	streq	r6, [r0], #-620	; 0xfffffd94
    330c:	02c711dc 	sbceq	r1, r7, #220, 2	; 0x37
    3310:	0b440000 	bleq	1103318 <_bsl_base_address+0xf01318>
    3314:	000002f9 	strdeq	r0, [r0], -r9
    3318:	2507df04 	strcs	sp, [r7, #-3844]	; 0xfffff0fc
    331c:	4c000000 	stcmi	0, cr0, [r0], {-0}
    3320:	00030a0b 	andeq	r0, r3, fp, lsl #20
    3324:	0ae00400 	beq	ff80432c <__stack+0xdf803a54>
    3328:	0000007f 	andeq	r0, r0, pc, ror r0
    332c:	073a0b50 			; <UNDEFINED> instruction: 0x073a0b50
    3330:	e3040000 	movw	r0, #16384	; 0x4000
    3334:	00045612 	andeq	r5, r4, r2, lsl r6
    3338:	fd0b5400 	stc2	4, cr5, [fp, #-0]
    333c:	04000008 	streq	r0, [r0], #-8
    3340:	01130ce7 	tsteq	r3, r7, ror #25
    3344:	0b580000 	bleq	160334c <_bsl_base_address+0x140134c>
    3348:	000004bc 			; <UNDEFINED> instruction: 0x000004bc
    334c:	ed0ee904 	vstr.16	s28, [lr, #-8]
    3350:	5c000000 	stcpl	0, cr0, [r0], {-0}
    3354:	0003dc0b 	andeq	sp, r3, fp, lsl #24
    3358:	09ea0400 	stmibeq	sl!, {sl}^
    335c:	00000025 	andeq	r0, r0, r5, lsr #32
    3360:	25130064 	ldrcs	r0, [r3, #-100]	; 0xffffff9c
    3364:	56000000 	strpl	r0, [r0], -r0
    3368:	14000004 	strne	r0, [r0], #-4
    336c:	00000456 	andeq	r0, r0, r6, asr r4
    3370:	0000f914 	andeq	pc, r0, r4, lsl r9	; <UNPREDICTABLE>
    3374:	05a51400 	streq	r1, [r5, #1024]!	; 0x400
    3378:	25140000 	ldrcs	r0, [r4, #-0]
    337c:	00000000 	andeq	r0, r0, r0
    3380:	045c040f 	ldrbeq	r0, [ip], #-1039	; 0xfffffbf1
    3384:	ab150000 	blge	54338c <_bsl_base_address+0x34138c>
    3388:	2800000c 	stmdacs	r0, {r2, r3}
    338c:	02650404 	rsbeq	r0, r5, #4, 8	; 0x4000000
    3390:	0005a508 	andeq	sl, r5, r8, lsl #10
    3394:	04581600 	ldrbeq	r1, [r8], #-1536	; 0xfffffa00
    3398:	67040000 	strvs	r0, [r4, -r0]
    339c:	00250702 	eoreq	r0, r5, r2, lsl #14
    33a0:	16000000 	strne	r0, [r0], -r0
    33a4:	000002f2 	strdeq	r0, [r0], -r2
    33a8:	0b026c04 	bleq	9e3c0 <__data_load__+0x9d560>
    33ac:	00000691 	muleq	r0, r1, r6
    33b0:	03881604 	orreq	r1, r8, #4, 12	; 0x400000
    33b4:	6c040000 	stcvs	0, cr0, [r4], {-0}
    33b8:	06911402 	ldreq	r1, [r1], r2, lsl #8
    33bc:	16080000 	strne	r0, [r8], -r0
    33c0:	0000034d 	andeq	r0, r0, sp, asr #6
    33c4:	1e026c04 	cdpne	12, 0, cr6, cr2, cr4, {0}
    33c8:	00000691 	muleq	r0, r1, r6
    33cc:	04d6160c 	ldrbeq	r1, [r6], #1548	; 0x60c
    33d0:	6e040000 	cdpvs	0, 0, cr0, cr4, cr0, {0}
    33d4:	00250802 	eoreq	r0, r5, r2, lsl #16
    33d8:	16100000 	ldrne	r0, [r0], -r0
    33dc:	00000245 	andeq	r0, r0, r5, asr #4
    33e0:	08026f04 	stmdaeq	r2, {r2, r8, r9, sl, fp, sp, lr}
    33e4:	00000891 	muleq	r0, r1, r8
    33e8:	04f21614 	ldrbteq	r1, [r2], #1556	; 0x614
    33ec:	72040000 	andvc	r0, r4, #0
    33f0:	00250702 	eoreq	r0, r5, r2, lsl #14
    33f4:	16300000 	ldrtne	r0, [r0], -r0
    33f8:	000004e0 	andeq	r0, r0, r0, ror #9
    33fc:	16027304 	strne	r7, [r2], -r4, lsl #6
    3400:	000008a6 	andeq	r0, r0, r6, lsr #17
    3404:	04051634 	streq	r1, [r5], #-1588	; 0xfffff9cc
    3408:	75040000 	strvc	r0, [r4, #-0]
    340c:	00250702 	eoreq	r0, r5, r2, lsl #14
    3410:	16380000 	ldrtne	r0, [r8], -r0
    3414:	000004e8 	andeq	r0, r0, r8, ror #9
    3418:	0a027704 	beq	a1030 <__data_load__+0xa01d0>
    341c:	000008b7 			; <UNDEFINED> instruction: 0x000008b7
    3420:	03c7163c 	biceq	r1, r7, #60, 12	; 0x3c00000
    3424:	7a040000 	bvc	10342c <__data_load__+0x1025cc>
    3428:	01791302 	cmneq	r9, r2, lsl #6
    342c:	16400000 	strbne	r0, [r0], -r0
    3430:	00000372 	andeq	r0, r0, r2, ror r3
    3434:	07027b04 	streq	r7, [r2, -r4, lsl #22]
    3438:	00000025 	andeq	r0, r0, r5, lsr #32
    343c:	06091644 	streq	r1, [r9], -r4, asr #12
    3440:	7c040000 	stcvc	0, cr0, [r4], {-0}
    3444:	01791302 	cmneq	r9, r2, lsl #6
    3448:	16480000 	strbne	r0, [r8], -r0
    344c:	00000428 	andeq	r0, r0, r8, lsr #8
    3450:	14027d04 	strne	r7, [r2], #-3332	; 0xfffff2fc
    3454:	000008bd 			; <UNDEFINED> instruction: 0x000008bd
    3458:	0390164c 	orrseq	r1, r0, #76, 12	; 0x4c00000
    345c:	80040000 	andhi	r0, r4, r0
    3460:	00250702 	eoreq	r0, r5, r2, lsl #14
    3464:	16500000 	ldrbne	r0, [r0], -r0
    3468:	00000302 	andeq	r0, r0, r2, lsl #6
    346c:	09028104 	stmdbeq	r2, {r2, r8, pc}
    3470:	000005a5 	andeq	r0, r0, r5, lsr #11
    3474:	04511654 	ldrbeq	r1, [r1], #-1620	; 0xfffff9ac
    3478:	a4040000 	strge	r0, [r4], #-0
    347c:	086c0702 	stmdaeq	ip!, {r1, r8, r9, sl}^
    3480:	17580000 	ldrbne	r0, [r8, -r0]
    3484:	0000021d 	andeq	r0, r0, sp, lsl r2
    3488:	1302a804 	movwne	sl, #10244	; 0x2804
    348c:	000002aa 	andeq	r0, r0, sl, lsr #5
    3490:	a5170148 	ldrge	r0, [r7, #-328]	; 0xfffffeb8
    3494:	04000003 	streq	r0, [r0], #-3
    3498:	671202a9 	ldrvs	r0, [r2, -r9, lsr #5]
    349c:	4c000002 	stcmi	0, cr0, [r0], {2}
    34a0:	05bd1701 	ldreq	r1, [sp, #1793]!	; 0x701
    34a4:	ad040000 	stcge	0, cr0, [r4, #-0]
    34a8:	08ce0c02 	stmiaeq	lr, {r1, sl, fp}^
    34ac:	02dc0000 	sbcseq	r0, ip, #0
    34b0:	0002db17 	andeq	sp, r2, r7, lsl fp
    34b4:	02b20400 	adcseq	r0, r2, #0, 8
    34b8:	00065210 	andeq	r5, r6, r0, lsl r2
    34bc:	1702e000 	strne	lr, [r2, -r0]
    34c0:	000002c0 	andeq	r0, r0, r0, asr #5
    34c4:	0a02b404 	beq	b04dc <__data_load__+0xaf67c>
    34c8:	000008da 	ldrdeq	r0, [r0], -sl
    34cc:	0f0002ec 	svceq	0x000002ec
    34d0:	0005ab04 	andeq	sl, r5, r4, lsl #22
    34d4:	08010300 	stmdaeq	r1, {r8, r9}
    34d8:	000000ba 	strheq	r0, [r0], -sl
    34dc:	0005ab18 	andeq	sl, r5, r8, lsl fp
    34e0:	38040f00 	stmdacc	r4, {r8, r9, sl, fp}
    34e4:	13000004 	movwne	r0, #4
    34e8:	00000025 	andeq	r0, r0, r5, lsr #32
    34ec:	000005db 	ldrdeq	r0, [r0], -fp
    34f0:	00045614 	andeq	r5, r4, r4, lsl r6
    34f4:	00f91400 	rscseq	r1, r9, r0, lsl #8
    34f8:	db140000 	blle	503500 <_bsl_base_address+0x301500>
    34fc:	14000005 	strne	r0, [r0], #-5
    3500:	00000025 	andeq	r0, r0, r5, lsr #32
    3504:	b2040f00 	andlt	r0, r4, #0, 30
    3508:	0f000005 	svceq	0x00000005
    350c:	0005bd04 	andeq	fp, r5, r4, lsl #26
    3510:	008b1300 	addeq	r1, fp, r0, lsl #6
    3514:	06050000 	streq	r0, [r5], -r0
    3518:	56140000 	ldrpl	r0, [r4], -r0
    351c:	14000004 	strne	r0, [r0], #-4
    3520:	000000f9 	strdeq	r0, [r0], -r9
    3524:	00008b14 	andeq	r8, r0, r4, lsl fp
    3528:	00251400 	eoreq	r1, r5, r0, lsl #8
    352c:	0f000000 	svceq	0x00000000
    3530:	0005e704 	andeq	lr, r5, r4, lsl #14
    3534:	00251300 	eoreq	r1, r5, r0, lsl #6
    3538:	061f0000 	ldreq	r0, [pc], -r0
    353c:	56140000 	ldrpl	r0, [r4], -r0
    3540:	14000004 	strne	r0, [r0], #-4
    3544:	000000f9 	strdeq	r0, [r0], -r9
    3548:	0b040f00 	bleq	107150 <__data_load__+0x1062f0>
    354c:	08000006 	stmdaeq	r0, {r1, r2}
    3550:	00000055 	andeq	r0, r0, r5, asr r0
    3554:	00000635 	andeq	r0, r0, r5, lsr r6
    3558:	00002c09 	andeq	r2, r0, r9, lsl #24
    355c:	08000200 	stmdaeq	r0, {r9}
    3560:	00000055 	andeq	r0, r0, r5, asr r0
    3564:	00000645 	andeq	r0, r0, r5, asr #12
    3568:	00002c09 	andeq	r2, r0, r9, lsl #24
    356c:	04000000 	streq	r0, [r0], #-0
    3570:	000004a2 	andeq	r0, r0, r2, lsr #9
    3574:	1a012404 	bne	4c58c <__data_load__+0x4b72c>
    3578:	000002f5 	strdeq	r0, [r0], -r5
    357c:	000cc119 	andeq	ip, ip, r9, lsl r1
    3580:	28040c00 	stmdacs	r4, {sl, fp}
    3584:	068b0801 	streq	r0, [fp], r1, lsl #16
    3588:	ca160000 	bgt	583590 <_bsl_base_address+0x381590>
    358c:	04000004 	streq	r0, [r0], #-4
    3590:	8b11012a 	blhi	443a40 <_bsl_base_address+0x241a40>
    3594:	00000006 	andeq	r0, r0, r6
    3598:	00039e16 	andeq	r9, r3, r6, lsl lr
    359c:	012b0400 			; <UNDEFINED> instruction: 0x012b0400
    35a0:	00002507 	andeq	r2, r0, r7, lsl #10
    35a4:	d0160400 	andsle	r0, r6, r0, lsl #8
    35a8:	04000004 	streq	r0, [r0], #-4
    35ac:	910b012c 	tstls	fp, ip, lsr #2
    35b0:	08000006 	stmdaeq	r0, {r1, r2}
    35b4:	52040f00 	andpl	r0, r4, #0, 30
    35b8:	0f000006 	svceq	0x00000006
    35bc:	00064504 	andeq	r4, r6, r4, lsl #10
    35c0:	023d1900 	eorseq	r1, sp, #0, 18
    35c4:	040e0000 	streq	r0, [lr], #-0
    35c8:	d0080144 	andle	r0, r8, r4, asr #2
    35cc:	16000006 	strne	r0, [r0], -r6
    35d0:	00000513 	andeq	r0, r0, r3, lsl r5
    35d4:	12014504 	andne	r4, r1, #4, 10	; 0x1000000
    35d8:	000006d0 	ldrdeq	r0, [r0], -r0	; <UNPREDICTABLE>
    35dc:	05401600 	strbeq	r1, [r0, #-1536]	; 0xfffffa00
    35e0:	46040000 	strmi	r0, [r4], -r0
    35e4:	06d01201 	ldrbeq	r1, [r0], r1, lsl #4
    35e8:	16060000 	strne	r0, [r6], -r0
    35ec:	0000055c 	andeq	r0, r0, ip, asr r5
    35f0:	12014704 	andne	r4, r1, #4, 14	; 0x100000
    35f4:	00000063 	andeq	r0, r0, r3, rrx
    35f8:	6308000c 	movwvs	r0, #32780	; 0x800c
    35fc:	e0000000 	and	r0, r0, r0
    3600:	09000006 	stmdbeq	r0, {r1, r2}
    3604:	0000002c 	andeq	r0, r0, ip, lsr #32
    3608:	d01a0002 	andsle	r0, sl, r2
    360c:	07028504 	streq	r8, [r2, -r4, lsl #10]
    3610:	000007f5 	strdeq	r0, [r0], -r5
    3614:	00058e16 	andeq	r8, r5, r6, lsl lr
    3618:	02870400 	addeq	r0, r7, #0, 8
    361c:	00002c18 	andeq	r2, r0, r8, lsl ip
    3620:	46160000 	ldrmi	r0, [r6], -r0
    3624:	04000005 	streq	r0, [r0], #-5
    3628:	a5120288 	ldrge	r0, [r2, #-648]	; 0xfffffd78
    362c:	04000005 	streq	r0, [r0], #-5
    3630:	0003ba16 	andeq	fp, r3, r6, lsl sl
    3634:	02890400 	addeq	r0, r9, #0, 8
    3638:	0007f510 	andeq	pc, r7, r0, lsl r5	; <UNPREDICTABLE>
    363c:	e0160800 	ands	r0, r6, r0, lsl #16
    3640:	04000005 	streq	r0, [r0], #-5
    3644:	8f17028a 	svchi	0x0017028a
    3648:	24000001 	strcs	r0, [r0], #-1
    364c:	00035d16 	andeq	r5, r3, r6, lsl sp
    3650:	028b0400 	addeq	r0, fp, #0, 8
    3654:	0000250f 	andeq	r2, r0, pc, lsl #10
    3658:	c5164800 	ldrgt	r4, [r6, #-2048]	; 0xfffff800
    365c:	04000004 	streq	r0, [r0], #-4
    3660:	782c028c 	stmdavc	ip!, {r2, r3, r7, r9}
    3664:	50000000 	andpl	r0, r0, r0
    3668:	0005f616 	andeq	pc, r5, r6, lsl r6	; <UNPREDICTABLE>
    366c:	028d0400 	addeq	r0, sp, #0, 8
    3670:	0006971a 	andeq	r9, r6, sl, lsl r7
    3674:	44165800 	ldrmi	r5, [r6], #-2048	; 0xfffff800
    3678:	04000004 	streq	r0, [r0], #-4
    367c:	ed16028e 	lfm	f0, 4, [r6, #-568]	; 0xfffffdc8
    3680:	68000000 	stmdavs	r0, {}	; <UNPREDICTABLE>
    3684:	0005fb16 	andeq	pc, r5, r6, lsl fp	; <UNPREDICTABLE>
    3688:	028f0400 	addeq	r0, pc, #0, 8
    368c:	0000ed16 	andeq	lr, r0, r6, lsl sp
    3690:	93167000 	tstls	r6, #0
    3694:	04000002 	streq	r0, [r0], #-2
    3698:	ed160290 	lfm	f0, 4, [r6, #-576]	; 0xfffffdc0
    369c:	78000000 	stmdavc	r0, {}	; <UNPREDICTABLE>
    36a0:	0005b316 	andeq	fp, r5, r6, lsl r3
    36a4:	02910400 	addseq	r0, r1, #0, 8
    36a8:	00080510 	andeq	r0, r8, r0, lsl r5
    36ac:	ae168000 	cdpge	0, 1, cr8, cr6, cr0, {0}
    36b0:	04000003 	streq	r0, [r0], #-3
    36b4:	15100292 	ldrne	r0, [r0, #-658]	; 0xfffffd6e
    36b8:	88000008 	stmdahi	r0, {r3}
    36bc:	00056916 	andeq	r6, r5, r6, lsl r9
    36c0:	02930400 	addseq	r0, r3, #0, 8
    36c4:	0000250f 	andeq	r2, r0, pc, lsl #10
    36c8:	2316a000 	tstcs	r6, #0
    36cc:	04000003 	streq	r0, [r0], #-3
    36d0:	ed160294 	lfm	f0, 4, [r6, #-592]	; 0xfffffdb0
    36d4:	a4000000 	strge	r0, [r0], #-0
    36d8:	00028416 	andeq	r8, r2, r6, lsl r4
    36dc:	02950400 	addseq	r0, r5, #0, 8
    36e0:	0000ed16 	andeq	lr, r0, r6, lsl sp
    36e4:	1216ac00 	andsne	sl, r6, #0, 24
    36e8:	04000003 	streq	r0, [r0], #-3
    36ec:	ed160296 	lfm	f0, 4, [r6, #-600]	; 0xfffffda8
    36f0:	b4000000 	strlt	r0, [r0], #-0
    36f4:	00025016 	andeq	r5, r2, r6, lsl r0
    36f8:	02970400 	addseq	r0, r7, #0, 8
    36fc:	0000ed16 	andeq	lr, r0, r6, lsl sp
    3700:	5f16bc00 	svcpl	0x0016bc00
    3704:	04000002 	streq	r0, [r0], #-2
    3708:	ed160298 	lfm	f0, 4, [r6, #-608]	; 0xfffffda0
    370c:	c4000000 	strgt	r0, [r0], #-0
    3710:	00045616 	andeq	r5, r4, r6, lsl r6
    3714:	02990400 	addseq	r0, r9, #0, 8
    3718:	00002508 	andeq	r2, r0, r8, lsl #10
    371c:	0800cc00 	stmdaeq	r0, {sl, fp, lr, pc}
    3720:	000005ab 	andeq	r0, r0, fp, lsr #11
    3724:	00000805 	andeq	r0, r0, r5, lsl #16
    3728:	00002c09 	andeq	r2, r0, r9, lsl #24
    372c:	08001900 	stmdaeq	r0, {r8, fp, ip}
    3730:	000005ab 	andeq	r0, r0, fp, lsr #11
    3734:	00000815 	andeq	r0, r0, r5, lsl r8
    3738:	00002c09 	andeq	r2, r0, r9, lsl #24
    373c:	08000700 	stmdaeq	r0, {r8, r9, sl}
    3740:	000005ab 	andeq	r0, r0, fp, lsr #11
    3744:	00000825 	andeq	r0, r0, r5, lsr #16
    3748:	00002c09 	andeq	r2, r0, r9, lsl #24
    374c:	1a001700 	bne	9354 <__data_load__+0x84f4>
    3750:	029e04f0 	addseq	r0, lr, #240, 8	; 0xf0000000
    3754:	00084c07 	andeq	r4, r8, r7, lsl #24
    3758:	03f51600 	mvnseq	r1, #0, 12
    375c:	a1040000 	mrsge	r0, (UNDEF: 4)
    3760:	084c1b02 	stmdaeq	ip, {r1, r8, r9, fp, ip}^
    3764:	16000000 	strne	r0, [r0], -r0
    3768:	000005aa 	andeq	r0, r0, sl, lsr #11
    376c:	1802a204 	stmdane	r2, {r2, r9, sp, pc}
    3770:	0000085c 	andeq	r0, r0, ip, asr r8
    3774:	ef080078 	svc	0x00080078
    3778:	5c000002 	stcpl	0, cr0, [r0], {2}
    377c:	09000008 	stmdbeq	r0, {r3}
    3780:	0000002c 	andeq	r0, r0, ip, lsr #32
    3784:	2c08001d 	stccs	0, cr0, [r8], {29}
    3788:	6c000000 	stcvs	0, cr0, [r0], {-0}
    378c:	09000008 	stmdbeq	r0, {r3}
    3790:	0000002c 	andeq	r0, r0, ip, lsr #32
    3794:	f01b001d 			; <UNDEFINED> instruction: 0xf01b001d
    3798:	03028304 	movweq	r8, #8964	; 0x2304
    379c:	00000891 	muleq	r0, r1, r8
    37a0:	000cab1c 	andeq	sl, ip, ip, lsl fp
    37a4:	029a0400 	addseq	r0, sl, #0, 8
    37a8:	0006e00b 	andeq	lr, r6, fp
    37ac:	05cd1c00 	strbeq	r1, [sp, #3072]	; 0xc00
    37b0:	a3040000 	movwge	r0, #16384	; 0x4000
    37b4:	08250b02 	stmdaeq	r5!, {r1, r8, r9, fp}
    37b8:	08000000 	stmdaeq	r0, {}	; <UNPREDICTABLE>
    37bc:	000005ab 	andeq	r0, r0, fp, lsr #11
    37c0:	000008a1 	andeq	r0, r0, r1, lsr #17
    37c4:	00002c09 	andeq	r2, r0, r9, lsl #24
    37c8:	1d001800 	stcne	8, cr1, [r0, #-0]
    37cc:	00000279 	andeq	r0, r0, r9, ror r2
    37d0:	08a1040f 	stmiaeq	r1!, {r0, r1, r2, r3, sl}
    37d4:	b71e0000 	ldrlt	r0, [lr, -r0]
    37d8:	14000008 	strne	r0, [r0], #-8
    37dc:	00000456 	andeq	r0, r0, r6, asr r4
    37e0:	ac040f00 	stcge	15, cr0, [r4], {-0}
    37e4:	0f000008 	svceq	0x00000008
    37e8:	00017904 	andeq	r7, r1, r4, lsl #18
    37ec:	08ce1e00 	stmiaeq	lr, {r9, sl, fp, ip}^
    37f0:	25140000 	ldrcs	r0, [r4, #-0]
    37f4:	00000000 	andeq	r0, r0, r0
    37f8:	08d4040f 	ldmeq	r4, {r0, r1, r2, r3, sl}^
    37fc:	040f0000 	streq	r0, [pc], #-0	; 3804 <__data_load__+0x29a4>
    3800:	000008c3 	andeq	r0, r0, r3, asr #17
    3804:	00064508 	andeq	r4, r6, r8, lsl #10
    3808:	0008ea00 	andeq	lr, r8, r0, lsl #20
    380c:	002c0900 	eoreq	r0, ip, r0, lsl #18
    3810:	00020000 	andeq	r0, r2, r0
    3814:	000b251f 	andeq	r2, fp, pc, lsl r5
    3818:	01240100 			; <UNDEFINED> instruction: 0x01240100
    381c:	00000025 	andeq	r0, r0, r5, lsr #32
    3820:	08ab2000 	stmiaeq	fp!, {sp}
    3824:	8a060000 	bhi	18382c <__data_load__+0x1829cc>
    3828:	0009100d 	andeq	r1, r9, sp
    382c:	74702100 	ldrbtvc	r2, [r0], #-256	; 0xffffff00
    3830:	32010072 	andcc	r0, r1, #114	; 0x72
    3834:	00045615 	andeq	r5, r4, r5, lsl r6
    3838:	f5220000 			; <UNDEFINED> instruction: 0xf5220000
    383c:	06000008 	streq	r0, [r0], -r8
    3840:	2a010d88 	bcs	46e68 <__data_load__+0x46008>
    3844:	21000009 	tstcs	r0, r9
    3848:	00727470 	rsbseq	r7, r2, r0, ror r4
    384c:	56152901 	ldrpl	r2, [r5], -r1, lsl #18
    3850:	00000004 	andeq	r0, r0, r4
    3854:	00091023 	andeq	r1, r9, r3, lsr #32
    3858:	0008b400 	andeq	fp, r8, r0, lsl #8
    385c:	00000200 	andeq	r0, r0, r0, lsl #4
    3860:	249c0100 	ldrcs	r0, [ip], #256	; 0x100
    3864:	0000091d 	andeq	r0, r0, sp, lsl r9
    3868:	00005001 	andeq	r5, r0, r1
    386c:	0000098a 	andeq	r0, r0, sl, lsl #19
    3870:	0dd80004 	ldcleq	0, cr0, [r8, #16]
    3874:	01040000 	mrseq	r0, (UNDEF: 4)
    3878:	0000016c 	andeq	r0, r0, ip, ror #2
    387c:	000b800c 	andeq	r8, fp, ip
    3880:	0006dc00 	andeq	sp, r6, r0, lsl #24
    3884:	0008bc00 	andeq	fp, r8, r0, lsl #24
    3888:	00002400 	andeq	r2, r0, r0, lsl #8
    388c:	00131500 	andseq	r1, r3, r0, lsl #10
    3890:	0b760200 	bleq	1d84098 <_bsl_base_address+0x1b82098>
    3894:	8f020000 	svchi	0x00020000
    3898:	0000311a 	andeq	r3, r0, sl, lsl r1
    389c:	05040300 	streq	r0, [r4, #-768]	; 0xfffffd00
    38a0:	00746e69 	rsbseq	r6, r4, r9, ror #28
    38a4:	56070404 	strpl	r0, [r7], -r4, lsl #8
    38a8:	04000001 	streq	r0, [r0], #-1
    38ac:	00940508 	addseq	r0, r4, r8, lsl #10
    38b0:	08040000 	stmdaeq	r4, {}	; <UNPREDICTABLE>
    38b4:	00020304 	andeq	r0, r2, r4, lsl #6
    38b8:	03d50500 	bicseq	r0, r5, #0, 10
    38bc:	5e020000 	cdppl	0, 0, cr0, cr2, cr0, {0}
    38c0:	00381701 	eorseq	r1, r8, r1, lsl #14
    38c4:	01040000 	mrseq	r0, (UNDEF: 4)
    38c8:	0000b306 	andeq	fp, r0, r6, lsl #6
    38cc:	08010400 	stmdaeq	r1, {sl}
    38d0:	000000b1 	strheq	r0, [r0], -r1
    38d4:	0f050204 	svceq	0x00050204
    38d8:	04000002 	streq	r0, [r0], #-2
    38dc:	01f00702 	mvnseq	r0, r2, lsl #14
    38e0:	04040000 	streq	r0, [r4], #-0
    38e4:	00009905 	andeq	r9, r0, r5, lsl #18
    38e8:	07040400 	streq	r0, [r4, -r0, lsl #8]
    38ec:	00000151 	andeq	r0, r0, r1, asr r1
    38f0:	4c070804 	stcmi	8, cr0, [r7], {4}
    38f4:	02000001 	andeq	r0, r0, #1
    38f8:	00000410 	andeq	r0, r0, r0, lsl r4
    38fc:	760e2e03 	strvc	r2, [lr], -r3, lsl #28
    3900:	02000000 	andeq	r0, r0, #0
    3904:	0000052f 	andeq	r0, r0, pc, lsr #10
    3908:	760e7403 	strvc	r7, [lr], -r3, lsl #8
    390c:	06000000 	streq	r0, [r0], -r0
    3910:	03a50304 			; <UNDEFINED> instruction: 0x03a50304
    3914:	000000c5 	andeq	r0, r0, r5, asr #1
    3918:	0003cf07 	andeq	ip, r3, r7, lsl #30
    391c:	0ca70300 	stceq	3, cr0, [r7]
    3920:	0000004d 	andeq	r0, r0, sp, asr #32
    3924:	00038107 	andeq	r8, r3, r7, lsl #2
    3928:	13a80300 			; <UNDEFINED> instruction: 0x13a80300
    392c:	000000c5 	andeq	r0, r0, r5, asr #1
    3930:	00610800 	rsbeq	r0, r1, r0, lsl #16
    3934:	00d50000 	sbcseq	r0, r5, r0
    3938:	38090000 	stmdacc	r9, {}	; <UNPREDICTABLE>
    393c:	03000000 	movweq	r0, #0
    3940:	03080a00 	movweq	r0, #35328	; 0x8a00
    3944:	00f909a2 	rscseq	r0, r9, r2, lsr #19
    3948:	190b0000 	stmdbne	fp, {}	; <UNPREDICTABLE>
    394c:	03000005 	movweq	r0, #5
    3950:	003107a4 	eorseq	r0, r1, r4, lsr #15
    3954:	0b000000 	bleq	395c <__data_load__+0x2afc>
    3958:	00000521 	andeq	r0, r0, r1, lsr #10
    395c:	a305a903 	movwge	sl, #22787	; 0x5903
    3960:	04000000 	streq	r0, [r0], #-0
    3964:	04a90200 	strteq	r0, [r9], #512	; 0x200
    3968:	aa030000 	bge	c3970 <__data_load__+0xc2b10>
    396c:	0000d503 	andeq	sp, r0, r3, lsl #10
    3970:	02040c00 	andeq	r0, r4, #0, 24
    3974:	00000561 	andeq	r0, r0, r1, ror #10
    3978:	7d191604 	ldcvc	6, cr1, [r9, #-16]
    397c:	02000000 	andeq	r0, r0, #0
    3980:	00000432 	andeq	r0, r0, r2, lsr r4
    3984:	310d0c05 	tstcc	sp, r5, lsl #24
    3988:	02000000 	andeq	r0, r0, #0
    398c:	00000344 	andeq	r0, r0, r4, asr #6
    3990:	131b2304 	tstne	fp, #4, 6	; 0x10000000
    3994:	0d000001 	stceq	0, cr0, [r0, #-4]
    3998:	00000355 	andeq	r0, r0, r5, asr r3
    399c:	08340418 	ldmdaeq	r4!, {r3, r4, sl}
    39a0:	00000185 	andeq	r0, r0, r5, lsl #3
    39a4:	0004ca0b 	andeq	ip, r4, fp, lsl #20
    39a8:	13360400 	teqne	r6, #0, 8
    39ac:	00000185 	andeq	r0, r0, r5, lsl #3
    39b0:	6b5f0e00 	blvs	17c71b8 <_bsl_base_address+0x15c51b8>
    39b4:	07370400 	ldreq	r0, [r7, -r0, lsl #8]!
    39b8:	00000031 	andeq	r0, r0, r1, lsr r0
    39bc:	050b0b04 	streq	r0, [fp, #-2820]	; 0xfffff4fc
    39c0:	37040000 	strcc	r0, [r4, -r0]
    39c4:	0000310b 	andeq	r3, r0, fp, lsl #2
    39c8:	3e0b0800 	cdpcc	8, 0, cr0, cr11, cr0, {0}
    39cc:	04000003 	streq	r0, [r0], #-3
    39d0:	00311437 	eorseq	r1, r1, r7, lsr r4
    39d4:	0b0c0000 	bleq	3039dc <_bsl_base_address+0x1019dc>
    39d8:	0000059b 	muleq	r0, fp, r5
    39dc:	311b3704 	tstcc	fp, r4, lsl #14
    39e0:	10000000 	andne	r0, r0, r0
    39e4:	00785f0e 	rsbseq	r5, r8, lr, lsl #30
    39e8:	8b0b3804 	blhi	2d1a00 <_bsl_base_address+0xcfa00>
    39ec:	14000001 	strne	r0, [r0], #-1
    39f0:	2b040f00 	blcs	1075f8 <__data_load__+0x106798>
    39f4:	08000001 	stmdaeq	r0, {r0}
    39f8:	00000107 	andeq	r0, r0, r7, lsl #2
    39fc:	0000019b 	muleq	r0, fp, r1
    3a00:	00003809 	andeq	r3, r0, r9, lsl #16
    3a04:	0d000000 	stceq	0, cr0, [r0, #-0]
    3a08:	0000037c 	andeq	r0, r0, ip, ror r3
    3a0c:	083c0424 	ldmdaeq	ip!, {r2, r5, sl}
    3a10:	0000021e 	andeq	r0, r0, lr, lsl r2
    3a14:	0002a10b 	andeq	sl, r2, fp, lsl #2
    3a18:	093e0400 	ldmdbeq	lr!, {sl}
    3a1c:	00000031 	andeq	r0, r0, r1, lsr r0
    3a20:	05370b00 	ldreq	r0, [r7, #-2816]!	; 0xfffff500
    3a24:	3f040000 	svccc	0x00040000
    3a28:	00003109 	andeq	r3, r0, r9, lsl #2
    3a2c:	b60b0400 	strlt	r0, [fp], -r0, lsl #8
    3a30:	04000002 	streq	r0, [r0], #-2
    3a34:	00310940 	eorseq	r0, r1, r0, asr #18
    3a38:	0b080000 	bleq	203a40 <_bsl_base_address+0x1a40>
    3a3c:	0000060e 	andeq	r0, r0, lr, lsl #12
    3a40:	31094104 	tstcc	r9, r4, lsl #2
    3a44:	0c000000 	stceq	0, cr0, [r0], {-0}
    3a48:	0003fc0b 	andeq	pc, r3, fp, lsl #24
    3a4c:	09420400 	stmdbeq	r2, {sl}^
    3a50:	00000031 	andeq	r0, r0, r1, lsr r0
    3a54:	03eb0b10 	mvneq	r0, #16, 22	; 0x4000
    3a58:	43040000 	movwmi	r0, #16384	; 0x4000
    3a5c:	00003109 	andeq	r3, r0, r9, lsl #2
    3a60:	a00b1400 	andge	r1, fp, r0, lsl #8
    3a64:	04000005 	streq	r0, [r0], #-5
    3a68:	00310944 	eorseq	r0, r1, r4, asr #18
    3a6c:	0b180000 	bleq	603a74 <_bsl_base_address+0x401a74>
    3a70:	0000045f 	andeq	r0, r0, pc, asr r4
    3a74:	31094504 	tstcc	r9, r4, lsl #10
    3a78:	1c000000 	stcne	0, cr0, [r0], {-0}
    3a7c:	0005d50b 	andeq	sp, r5, fp, lsl #10
    3a80:	09460400 	stmdbeq	r6, {sl}^
    3a84:	00000031 	andeq	r0, r0, r1, lsr r0
    3a88:	c5100020 	ldrgt	r0, [r0, #-32]	; 0xffffffe0
    3a8c:	08000002 	stmdaeq	r0, {r1}
    3a90:	084f0401 	stmdaeq	pc, {r0, sl}^	; <UNPREDICTABLE>
    3a94:	00000263 	andeq	r0, r0, r3, ror #4
    3a98:	0003310b 	andeq	r3, r3, fp, lsl #2
    3a9c:	0a500400 	beq	1404aa4 <_bsl_base_address+0x1202aa4>
    3aa0:	00000263 	andeq	r0, r0, r3, ror #4
    3aa4:	02310b00 	eorseq	r0, r1, #0, 22
    3aa8:	51040000 	mrspl	r0, (UNDEF: 4)
    3aac:	00026309 	andeq	r6, r2, r9, lsl #6
    3ab0:	53118000 	tstpl	r1, #0
    3ab4:	04000005 	streq	r0, [r0], #-5
    3ab8:	01070a53 	tsteq	r7, r3, asr sl
    3abc:	01000000 	mrseq	r0, (UNDEF: 0)
    3ac0:	0002ea11 	andeq	lr, r2, r1, lsl sl
    3ac4:	0a560400 	beq	1584acc <_bsl_base_address+0x1382acc>
    3ac8:	00000107 	andeq	r0, r0, r7, lsl #2
    3acc:	08000104 	stmdaeq	r0, {r2, r8}
    3ad0:	00000105 	andeq	r0, r0, r5, lsl #2
    3ad4:	00000273 	andeq	r0, r0, r3, ror r2
    3ad8:	00003809 	andeq	r3, r0, r9, lsl #16
    3adc:	10001f00 	andne	r1, r0, r0, lsl #30
    3ae0:	0000021d 	andeq	r0, r0, sp, lsl r2
    3ae4:	62040190 	andvs	r0, r4, #144, 2	; 0x24
    3ae8:	0002b608 	andeq	fp, r2, r8, lsl #12
    3aec:	04ca0b00 	strbeq	r0, [sl], #2816	; 0xb00
    3af0:	63040000 	movwvs	r0, #16384	; 0x4000
    3af4:	0002b612 	andeq	fp, r2, r2, lsl r6
    3af8:	db0b0000 	blle	2c3b00 <_bsl_base_address+0xc1b00>
    3afc:	04000004 	streq	r0, [r0], #-4
    3b00:	00310664 	eorseq	r0, r1, r4, ror #12
    3b04:	0b040000 	bleq	103b0c <__data_load__+0x102cac>
    3b08:	00000339 	andeq	r0, r0, r9, lsr r3
    3b0c:	bc096604 	stclt	6, cr6, [r9], {4}
    3b10:	08000002 	stmdaeq	r0, {r1}
    3b14:	0002c50b 	andeq	ip, r2, fp, lsl #10
    3b18:	1e670400 	cdpne	4, 6, cr0, cr7, cr0, {0}
    3b1c:	0000021e 	andeq	r0, r0, lr, lsl r2
    3b20:	040f0088 	streq	r0, [pc], #-136	; 3b28 <__data_load__+0x2cc8>
    3b24:	00000273 	andeq	r0, r0, r3, ror r2
    3b28:	0002cc08 	andeq	ip, r2, r8, lsl #24
    3b2c:	0002cc00 	andeq	ip, r2, r0, lsl #24
    3b30:	00380900 	eorseq	r0, r8, r0, lsl #18
    3b34:	001f0000 	andseq	r0, pc, r0
    3b38:	02d2040f 	sbcseq	r0, r2, #251658240	; 0xf000000
    3b3c:	0d120000 	ldceq	0, cr0, [r2, #-0]
    3b40:	00000469 	andeq	r0, r0, r9, ror #8
    3b44:	087a0408 	ldmdaeq	sl!, {r3, sl}^
    3b48:	000002fb 	strdeq	r0, [r0], -fp
    3b4c:	000a650b 	andeq	r6, sl, fp, lsl #10
    3b50:	117b0400 	cmnne	fp, r0, lsl #8
    3b54:	000002fb 	strdeq	r0, [r0], -fp
    3b58:	09280b00 	stmdbeq	r8!, {r8, r9, fp}
    3b5c:	7c040000 	stcvc	0, cr0, [r4], {-0}
    3b60:	00003106 	andeq	r3, r0, r6, lsl #2
    3b64:	0f000400 	svceq	0x00000400
    3b68:	00006104 	andeq	r6, r0, r4, lsl #2
    3b6c:	04b40d00 	ldrteq	r0, [r4], #3328	; 0xd00
    3b70:	04680000 	strbteq	r0, [r8], #-0
    3b74:	044408ba 	strbeq	r0, [r4], #-2234	; 0xfffff746
    3b78:	5f0e0000 	svcpl	0x000e0000
    3b7c:	bb040070 	bllt	103d44 <__data_load__+0x102ee4>
    3b80:	0002fb12 	andeq	pc, r2, r2, lsl fp	; <UNPREDICTABLE>
    3b84:	5f0e0000 	svcpl	0x000e0000
    3b88:	bc040072 	stclt	0, cr0, [r4], {114}	; 0x72
    3b8c:	00003107 	andeq	r3, r0, r7, lsl #2
    3b90:	5f0e0400 	svcpl	0x000e0400
    3b94:	bd040077 	stclt	0, cr0, [r4, #-476]	; 0xfffffe24
    3b98:	00003107 	andeq	r3, r0, r7, lsl #2
    3b9c:	e30b0800 	movw	r0, #47104	; 0xb800
    3ba0:	04000002 	streq	r0, [r0], #-2
    3ba4:	006809be 	strhteq	r0, [r8], #-158	; 0xffffff62
    3ba8:	0b0c0000 	bleq	303bb0 <_bsl_base_address+0x101bb0>
    3bac:	00000398 	muleq	r0, r8, r3
    3bb0:	6809bf04 	stmdavs	r9, {r2, r8, r9, sl, fp, ip, sp, pc}
    3bb4:	0e000000 	cdpeq	0, 0, cr0, cr0, cr0, {0}
    3bb8:	66625f0e 	strbtvs	r5, [r2], -lr, lsl #30
    3bbc:	11c00400 	bicne	r0, r0, r0, lsl #8
    3bc0:	000002d3 	ldrdeq	r0, [r0], -r3
    3bc4:	02700b10 	rsbseq	r0, r0, #16, 22	; 0x4000
    3bc8:	c1040000 	mrsgt	r0, (UNDEF: 4)
    3bcc:	00003107 	andeq	r3, r0, r7, lsl #2
    3bd0:	d30b1800 	movwle	r1, #47104	; 0xb800
    3bd4:	04000002 	streq	r0, [r0], #-2
    3bd8:	01050ac8 	smlabteq	r5, r8, sl, r0
    3bdc:	0b1c0000 	bleq	703be4 <_bsl_base_address+0x501be4>
    3be0:	0000036c 	andeq	r0, r0, ip, ror #6
    3be4:	c31dca04 	tstgt	sp, #4, 20	; 0x4000
    3be8:	20000005 	andcs	r0, r0, r5
    3bec:	0003e40b 	andeq	lr, r3, fp, lsl #8
    3bf0:	1dcc0400 	cfstrdne	mvd0, [ip]
    3bf4:	000005ed 	andeq	r0, r0, sp, ror #11
    3bf8:	05290b24 	streq	r0, [r9, #-2852]!	; 0xfffff4dc
    3bfc:	cf040000 	svcgt	0x00040000
    3c00:	0006110d 	andeq	r1, r6, sp, lsl #2
    3c04:	ef0b2800 	svc	0x000b2800
    3c08:	04000005 	streq	r0, [r0], #-5
    3c0c:	062b09d0 			; <UNDEFINED> instruction: 0x062b09d0
    3c10:	0e2c0000 	cdpeq	0, 2, cr0, cr12, cr0, {0}
    3c14:	0062755f 	rsbeq	r7, r2, pc, asr r5
    3c18:	d311d304 	tstle	r1, #4, 6	; 0x10000000
    3c1c:	30000002 	andcc	r0, r0, r2
    3c20:	70755f0e 	rsbsvc	r5, r5, lr, lsl #30
    3c24:	12d40400 	sbcsne	r0, r4, #0, 8
    3c28:	000002fb 	strdeq	r0, [r0], -fp
    3c2c:	755f0e38 	ldrbvc	r0, [pc, #-3640]	; 2dfc <__data_load__+0x1f9c>
    3c30:	d5040072 	strle	r0, [r4, #-114]	; 0xffffff8e
    3c34:	00003107 	andeq	r3, r0, r7, lsl #2
    3c38:	b00b3c00 	andlt	r3, fp, r0, lsl #24
    3c3c:	04000002 	streq	r0, [r0], #-2
    3c40:	063111d8 			; <UNDEFINED> instruction: 0x063111d8
    3c44:	0b400000 	bleq	1003c4c <_bsl_base_address+0xe01c4c>
    3c48:	000005c7 	andeq	r0, r0, r7, asr #11
    3c4c:	4111d904 	tstmi	r1, r4, lsl #18
    3c50:	43000006 	movwmi	r0, #6
    3c54:	626c5f0e 	rsbvs	r5, ip, #14, 30	; 0x38
    3c58:	11dc0400 	bicsne	r0, ip, r0, lsl #8
    3c5c:	000002d3 	ldrdeq	r0, [r0], -r3
    3c60:	02f90b44 	rscseq	r0, r9, #68, 22	; 0x11000
    3c64:	df040000 	svcle	0x00040000
    3c68:	00003107 	andeq	r3, r0, r7, lsl #2
    3c6c:	0a0b4c00 	beq	2d6c74 <_bsl_base_address+0xd4c74>
    3c70:	04000003 	streq	r0, [r0], #-3
    3c74:	008b0ae0 	addeq	r0, fp, r0, ror #21
    3c78:	0b500000 	bleq	1403c80 <_bsl_base_address+0x1201c80>
    3c7c:	0000073a 	andeq	r0, r0, sl, lsr r7
    3c80:	6212e304 	andsvs	lr, r2, #4, 6	; 0x10000000
    3c84:	54000004 	strpl	r0, [r0], #-4
    3c88:	0008fd0b 	andeq	pc, r8, fp, lsl #26
    3c8c:	0ce70400 	cfstrdeq	mvd0, [r7]
    3c90:	0000011f 	andeq	r0, r0, pc, lsl r1
    3c94:	04bc0b58 	ldrteq	r0, [ip], #2904	; 0xb58
    3c98:	e9040000 	stmdb	r4, {}	; <UNPREDICTABLE>
    3c9c:	0000f90e 	andeq	pc, r0, lr, lsl #18
    3ca0:	dc0b5c00 	stcle	12, cr5, [fp], {-0}
    3ca4:	04000003 	streq	r0, [r0], #-3
    3ca8:	003109ea 	eorseq	r0, r1, sl, ror #19
    3cac:	00640000 	rsbeq	r0, r4, r0
    3cb0:	00003113 	andeq	r3, r0, r3, lsl r1
    3cb4:	00046200 	andeq	r6, r4, r0, lsl #4
    3cb8:	04621400 	strbteq	r1, [r2], #-1024	; 0xfffffc00
    3cbc:	05140000 	ldreq	r0, [r4, #-0]
    3cc0:	14000001 	strne	r0, [r0], #-1
    3cc4:	000005b1 			; <UNDEFINED> instruction: 0x000005b1
    3cc8:	00003114 	andeq	r3, r0, r4, lsl r1
    3ccc:	040f0000 	streq	r0, [pc], #-0	; 3cd4 <__data_load__+0x2e74>
    3cd0:	00000468 	andeq	r0, r0, r8, ror #8
    3cd4:	000cab15 	andeq	sl, ip, r5, lsl fp
    3cd8:	04042800 	streq	r2, [r4], #-2048	; 0xfffff800
    3cdc:	b1080265 	tstlt	r8, r5, ror #4
    3ce0:	16000005 	strne	r0, [r0], -r5
    3ce4:	00000458 	andeq	r0, r0, r8, asr r4
    3ce8:	07026704 	streq	r6, [r2, -r4, lsl #14]
    3cec:	00000031 	andeq	r0, r0, r1, lsr r0
    3cf0:	02f21600 	rscseq	r1, r2, #0, 12
    3cf4:	6c040000 	stcvs	0, cr0, [r4], {-0}
    3cf8:	069d0b02 	ldreq	r0, [sp], r2, lsl #22
    3cfc:	16040000 	strne	r0, [r4], -r0
    3d00:	00000388 	andeq	r0, r0, r8, lsl #7
    3d04:	14026c04 	strne	r6, [r2], #-3076	; 0xfffff3fc
    3d08:	0000069d 	muleq	r0, sp, r6
    3d0c:	034d1608 	movteq	r1, #54792	; 0xd608
    3d10:	6c040000 	stcvs	0, cr0, [r4], {-0}
    3d14:	069d1e02 	ldreq	r1, [sp], r2, lsl #28
    3d18:	160c0000 	strne	r0, [ip], -r0
    3d1c:	000004d6 	ldrdeq	r0, [r0], -r6
    3d20:	08026e04 	stmdaeq	r2, {r2, r9, sl, fp, sp, lr}
    3d24:	00000031 	andeq	r0, r0, r1, lsr r0
    3d28:	02451610 	subeq	r1, r5, #16, 12	; 0x1000000
    3d2c:	6f040000 	svcvs	0x00040000
    3d30:	089d0802 	ldmeq	sp, {r1, fp}
    3d34:	16140000 	ldrne	r0, [r4], -r0
    3d38:	000004f2 	strdeq	r0, [r0], -r2
    3d3c:	07027204 	streq	r7, [r2, -r4, lsl #4]
    3d40:	00000031 	andeq	r0, r0, r1, lsr r0
    3d44:	04e01630 	strbteq	r1, [r0], #1584	; 0x630
    3d48:	73040000 	movwvc	r0, #16384	; 0x4000
    3d4c:	08b21602 	ldmeq	r2!, {r1, r9, sl, ip}
    3d50:	16340000 	ldrtne	r0, [r4], -r0
    3d54:	00000405 	andeq	r0, r0, r5, lsl #8
    3d58:	07027504 	streq	r7, [r2, -r4, lsl #10]
    3d5c:	00000031 	andeq	r0, r0, r1, lsr r0
    3d60:	04e81638 	strbteq	r1, [r8], #1592	; 0x638
    3d64:	77040000 	strvc	r0, [r4, -r0]
    3d68:	08c30a02 	stmiaeq	r3, {r1, r9, fp}^
    3d6c:	163c0000 	ldrtne	r0, [ip], -r0
    3d70:	000003c7 	andeq	r0, r0, r7, asr #7
    3d74:	13027a04 	movwne	r7, #10756	; 0x2a04
    3d78:	00000185 	andeq	r0, r0, r5, lsl #3
    3d7c:	03721640 	cmneq	r2, #64, 12	; 0x4000000
    3d80:	7b040000 	blvc	103d88 <__data_load__+0x102f28>
    3d84:	00310702 	eorseq	r0, r1, r2, lsl #14
    3d88:	16440000 	strbne	r0, [r4], -r0
    3d8c:	00000609 	andeq	r0, r0, r9, lsl #12
    3d90:	13027c04 	movwne	r7, #11268	; 0x2c04
    3d94:	00000185 	andeq	r0, r0, r5, lsl #3
    3d98:	04281648 	strteq	r1, [r8], #-1608	; 0xfffff9b8
    3d9c:	7d040000 	stcvc	0, cr0, [r4, #-0]
    3da0:	08c91402 	stmiaeq	r9, {r1, sl, ip}^
    3da4:	164c0000 	strbne	r0, [ip], -r0
    3da8:	00000390 	muleq	r0, r0, r3
    3dac:	07028004 	streq	r8, [r2, -r4]
    3db0:	00000031 	andeq	r0, r0, r1, lsr r0
    3db4:	03021650 	movweq	r1, #9808	; 0x2650
    3db8:	81040000 	mrshi	r0, (UNDEF: 4)
    3dbc:	05b10902 	ldreq	r0, [r1, #2306]!	; 0x902
    3dc0:	16540000 	ldrbne	r0, [r4], -r0
    3dc4:	00000451 	andeq	r0, r0, r1, asr r4
    3dc8:	0702a404 	streq	sl, [r2, -r4, lsl #8]
    3dcc:	00000878 	andeq	r0, r0, r8, ror r8
    3dd0:	021d1758 	andseq	r1, sp, #88, 14	; 0x1600000
    3dd4:	a8040000 	stmdage	r4, {}	; <UNPREDICTABLE>
    3dd8:	02b61302 	adcseq	r1, r6, #134217728	; 0x8000000
    3ddc:	01480000 	mrseq	r0, (UNDEF: 72)
    3de0:	0003a517 	andeq	sl, r3, r7, lsl r5
    3de4:	02a90400 	adceq	r0, r9, #0, 8
    3de8:	00027312 	andeq	r7, r2, r2, lsl r3
    3dec:	17014c00 	strne	r4, [r1, -r0, lsl #24]
    3df0:	000005bd 			; <UNDEFINED> instruction: 0x000005bd
    3df4:	0c02ad04 	stceq	13, cr10, [r2], {4}
    3df8:	000008da 	ldrdeq	r0, [r0], -sl
    3dfc:	db1702dc 	blle	5c4974 <_bsl_base_address+0x3c2974>
    3e00:	04000002 	streq	r0, [r0], #-2
    3e04:	5e1002b2 	mrcpl	2, 0, r0, cr0, cr2, {5}
    3e08:	e0000006 	and	r0, r0, r6
    3e0c:	02c01702 	sbceq	r1, r0, #524288	; 0x80000
    3e10:	b4040000 	strlt	r0, [r4], #-0
    3e14:	08e60a02 	stmiaeq	r6!, {r1, r9, fp}^
    3e18:	02ec0000 	rsceq	r0, ip, #0
    3e1c:	b7040f00 	strlt	r0, [r4, -r0, lsl #30]
    3e20:	04000005 	streq	r0, [r0], #-5
    3e24:	00ba0801 	adcseq	r0, sl, r1, lsl #16
    3e28:	b7180000 	ldrlt	r0, [r8, -r0]
    3e2c:	0f000005 	svceq	0x00000005
    3e30:	00044404 	andeq	r4, r4, r4, lsl #8
    3e34:	00311300 	eorseq	r1, r1, r0, lsl #6
    3e38:	05e70000 	strbeq	r0, [r7, #0]!
    3e3c:	62140000 	andsvs	r0, r4, #0
    3e40:	14000004 	strne	r0, [r0], #-4
    3e44:	00000105 	andeq	r0, r0, r5, lsl #2
    3e48:	0005e714 	andeq	lr, r5, r4, lsl r7
    3e4c:	00311400 	eorseq	r1, r1, r0, lsl #8
    3e50:	0f000000 	svceq	0x00000000
    3e54:	0005be04 	andeq	fp, r5, r4, lsl #28
    3e58:	c9040f00 	stmdbgt	r4, {r8, r9, sl, fp}
    3e5c:	13000005 	movwne	r0, #5
    3e60:	00000097 	muleq	r0, r7, r0
    3e64:	00000611 	andeq	r0, r0, r1, lsl r6
    3e68:	00046214 	andeq	r6, r4, r4, lsl r2
    3e6c:	01051400 	tsteq	r5, r0, lsl #8
    3e70:	97140000 	ldrls	r0, [r4, -r0]
    3e74:	14000000 	strne	r0, [r0], #-0
    3e78:	00000031 	andeq	r0, r0, r1, lsr r0
    3e7c:	f3040f00 	vpmax.f32	d0, d4, d0
    3e80:	13000005 	movwne	r0, #5
    3e84:	00000031 	andeq	r0, r0, r1, lsr r0
    3e88:	0000062b 	andeq	r0, r0, fp, lsr #12
    3e8c:	00046214 	andeq	r6, r4, r4, lsl r2
    3e90:	01051400 	tsteq	r5, r0, lsl #8
    3e94:	0f000000 	svceq	0x00000000
    3e98:	00061704 	andeq	r1, r6, r4, lsl #14
    3e9c:	00610800 	rsbeq	r0, r1, r0, lsl #16
    3ea0:	06410000 	strbeq	r0, [r1], -r0
    3ea4:	38090000 	stmdacc	r9, {}	; <UNPREDICTABLE>
    3ea8:	02000000 	andeq	r0, r0, #0
    3eac:	00610800 	rsbeq	r0, r1, r0, lsl #16
    3eb0:	06510000 	ldrbeq	r0, [r1], -r0
    3eb4:	38090000 	stmdacc	r9, {}	; <UNPREDICTABLE>
    3eb8:	00000000 	andeq	r0, r0, r0
    3ebc:	04a20500 	strteq	r0, [r2], #1280	; 0x500
    3ec0:	24040000 	strcs	r0, [r4], #-0
    3ec4:	03011a01 	movweq	r1, #6657	; 0x1a01
    3ec8:	c1190000 	tstgt	r9, r0
    3ecc:	0c00000c 	stceq	0, cr0, [r0], {12}
    3ed0:	08012804 	stmdaeq	r1, {r2, fp, sp}
    3ed4:	00000697 	muleq	r0, r7, r6
    3ed8:	0004ca16 	andeq	ip, r4, r6, lsl sl
    3edc:	012a0400 			; <UNDEFINED> instruction: 0x012a0400
    3ee0:	00069711 	andeq	r9, r6, r1, lsl r7
    3ee4:	9e160000 	cdpls	0, 1, cr0, cr6, cr0, {0}
    3ee8:	04000003 	streq	r0, [r0], #-3
    3eec:	3107012b 	tstcc	r7, fp, lsr #2
    3ef0:	04000000 	streq	r0, [r0], #-0
    3ef4:	0004d016 	andeq	sp, r4, r6, lsl r0
    3ef8:	012c0400 			; <UNDEFINED> instruction: 0x012c0400
    3efc:	00069d0b 	andeq	r9, r6, fp, lsl #26
    3f00:	0f000800 	svceq	0x00000800
    3f04:	00065e04 	andeq	r5, r6, r4, lsl #28
    3f08:	51040f00 	tstpl	r4, r0, lsl #30
    3f0c:	19000006 	stmdbne	r0, {r1, r2}
    3f10:	0000023d 	andeq	r0, r0, sp, lsr r2
    3f14:	0144040e 	cmpeq	r4, lr, lsl #8
    3f18:	0006dc08 	andeq	sp, r6, r8, lsl #24
    3f1c:	05131600 	ldreq	r1, [r3, #-1536]	; 0xfffffa00
    3f20:	45040000 	strmi	r0, [r4, #-0]
    3f24:	06dc1201 	ldrbeq	r1, [ip], r1, lsl #4
    3f28:	16000000 	strne	r0, [r0], -r0
    3f2c:	00000540 	andeq	r0, r0, r0, asr #10
    3f30:	12014604 	andne	r4, r1, #4, 12	; 0x400000
    3f34:	000006dc 	ldrdeq	r0, [r0], -ip
    3f38:	055c1606 	ldrbeq	r1, [ip, #-1542]	; 0xfffff9fa
    3f3c:	47040000 	strmi	r0, [r4, -r0]
    3f40:	006f1201 	rsbeq	r1, pc, r1, lsl #4
    3f44:	000c0000 	andeq	r0, ip, r0
    3f48:	00006f08 	andeq	r6, r0, r8, lsl #30
    3f4c:	0006ec00 	andeq	lr, r6, r0, lsl #24
    3f50:	00380900 	eorseq	r0, r8, r0, lsl #18
    3f54:	00020000 	andeq	r0, r2, r0
    3f58:	8504d01a 	strhi	sp, [r4, #-26]	; 0xffffffe6
    3f5c:	08010702 	stmdaeq	r1, {r1, r8, r9, sl}
    3f60:	8e160000 	cdphi	0, 1, cr0, cr6, cr0, {0}
    3f64:	04000005 	streq	r0, [r0], #-5
    3f68:	38180287 	ldmdacc	r8, {r0, r1, r2, r7, r9}
    3f6c:	00000000 	andeq	r0, r0, r0
    3f70:	00054616 	andeq	r4, r5, r6, lsl r6
    3f74:	02880400 	addeq	r0, r8, #0, 8
    3f78:	0005b112 	andeq	fp, r5, r2, lsl r1
    3f7c:	ba160400 	blt	584f84 <_bsl_base_address+0x382f84>
    3f80:	04000003 	streq	r0, [r0], #-3
    3f84:	01100289 	tsteq	r0, r9, lsl #5
    3f88:	08000008 	stmdaeq	r0, {r3}
    3f8c:	0005e016 	andeq	lr, r5, r6, lsl r0
    3f90:	028a0400 	addeq	r0, sl, #0, 8
    3f94:	00019b17 	andeq	r9, r1, r7, lsl fp
    3f98:	5d162400 	cfldrspl	mvf2, [r6, #-0]
    3f9c:	04000003 	streq	r0, [r0], #-3
    3fa0:	310f028b 	smlabbcc	pc, fp, r2, r0	; <UNPREDICTABLE>
    3fa4:	48000000 	stmdami	r0, {}	; <UNPREDICTABLE>
    3fa8:	0004c516 	andeq	ip, r4, r6, lsl r5
    3fac:	028c0400 	addeq	r0, ip, #0, 8
    3fb0:	0000842c 	andeq	r8, r0, ip, lsr #8
    3fb4:	f6165000 			; <UNDEFINED> instruction: 0xf6165000
    3fb8:	04000005 	streq	r0, [r0], #-5
    3fbc:	a31a028d 	tstge	sl, #-805306360	; 0xd0000008
    3fc0:	58000006 	stmdapl	r0, {r1, r2}
    3fc4:	00044416 	andeq	r4, r4, r6, lsl r4
    3fc8:	028e0400 	addeq	r0, lr, #0, 8
    3fcc:	0000f916 	andeq	pc, r0, r6, lsl r9	; <UNPREDICTABLE>
    3fd0:	fb166800 	blx	59dfda <_bsl_base_address+0x39bfda>
    3fd4:	04000005 	streq	r0, [r0], #-5
    3fd8:	f916028f 			; <UNDEFINED> instruction: 0xf916028f
    3fdc:	70000000 	andvc	r0, r0, r0
    3fe0:	00029316 	andeq	r9, r2, r6, lsl r3
    3fe4:	02900400 	addseq	r0, r0, #0, 8
    3fe8:	0000f916 	andeq	pc, r0, r6, lsl r9	; <UNPREDICTABLE>
    3fec:	b3167800 	tstlt	r6, #0, 16
    3ff0:	04000005 	streq	r0, [r0], #-5
    3ff4:	11100291 			; <UNDEFINED> instruction: 0x11100291
    3ff8:	80000008 	andhi	r0, r0, r8
    3ffc:	0003ae16 	andeq	sl, r3, r6, lsl lr
    4000:	02920400 	addseq	r0, r2, #0, 8
    4004:	00082110 	andeq	r2, r8, r0, lsl r1
    4008:	69168800 	ldmdbvs	r6, {fp, pc}
    400c:	04000005 	streq	r0, [r0], #-5
    4010:	310f0293 			; <UNDEFINED> instruction: 0x310f0293
    4014:	a0000000 	andge	r0, r0, r0
    4018:	00032316 	andeq	r2, r3, r6, lsl r3
    401c:	02940400 	addseq	r0, r4, #0, 8
    4020:	0000f916 	andeq	pc, r0, r6, lsl r9	; <UNPREDICTABLE>
    4024:	8416a400 	ldrhi	sl, [r6], #-1024	; 0xfffffc00
    4028:	04000002 	streq	r0, [r0], #-2
    402c:	f9160295 			; <UNDEFINED> instruction: 0xf9160295
    4030:	ac000000 	stcge	0, cr0, [r0], {-0}
    4034:	00031216 	andeq	r1, r3, r6, lsl r2
    4038:	02960400 	addseq	r0, r6, #0, 8
    403c:	0000f916 	andeq	pc, r0, r6, lsl r9	; <UNPREDICTABLE>
    4040:	5016b400 	andspl	fp, r6, r0, lsl #8
    4044:	04000002 	streq	r0, [r0], #-2
    4048:	f9160297 			; <UNDEFINED> instruction: 0xf9160297
    404c:	bc000000 	stclt	0, cr0, [r0], {-0}
    4050:	00025f16 	andeq	r5, r2, r6, lsl pc
    4054:	02980400 	addseq	r0, r8, #0, 8
    4058:	0000f916 	andeq	pc, r0, r6, lsl r9	; <UNPREDICTABLE>
    405c:	5616c400 	ldrpl	ip, [r6], -r0, lsl #8
    4060:	04000004 	streq	r0, [r0], #-4
    4064:	31080299 			; <UNDEFINED> instruction: 0x31080299
    4068:	cc000000 	stcgt	0, cr0, [r0], {-0}
    406c:	05b70800 	ldreq	r0, [r7, #2048]!	; 0x800
    4070:	08110000 	ldmdaeq	r1, {}	; <UNPREDICTABLE>
    4074:	38090000 	stmdacc	r9, {}	; <UNPREDICTABLE>
    4078:	19000000 	stmdbne	r0, {}	; <UNPREDICTABLE>
    407c:	05b70800 	ldreq	r0, [r7, #2048]!	; 0x800
    4080:	08210000 	stmdaeq	r1!, {}	; <UNPREDICTABLE>
    4084:	38090000 	stmdacc	r9, {}	; <UNPREDICTABLE>
    4088:	07000000 	streq	r0, [r0, -r0]
    408c:	05b70800 	ldreq	r0, [r7, #2048]!	; 0x800
    4090:	08310000 	ldmdaeq	r1!, {}	; <UNPREDICTABLE>
    4094:	38090000 	stmdacc	r9, {}	; <UNPREDICTABLE>
    4098:	17000000 	strne	r0, [r0, -r0]
    409c:	04f01a00 	ldrbteq	r1, [r0], #2560	; 0xa00
    40a0:	5807029e 	stmdapl	r7, {r1, r2, r3, r4, r7, r9}
    40a4:	16000008 	strne	r0, [r0], -r8
    40a8:	000003f5 	strdeq	r0, [r0], -r5
    40ac:	1b02a104 	blne	ac4c4 <__data_load__+0xab664>
    40b0:	00000858 	andeq	r0, r0, r8, asr r8
    40b4:	05aa1600 	streq	r1, [sl, #1536]!	; 0x600
    40b8:	a2040000 	andge	r0, r4, #0
    40bc:	08681802 	stmdaeq	r8!, {r1, fp, ip}^
    40c0:	00780000 	rsbseq	r0, r8, r0
    40c4:	0002fb08 	andeq	pc, r2, r8, lsl #22
    40c8:	00086800 	andeq	r6, r8, r0, lsl #16
    40cc:	00380900 	eorseq	r0, r8, r0, lsl #18
    40d0:	001d0000 	andseq	r0, sp, r0
    40d4:	00003808 	andeq	r3, r0, r8, lsl #16
    40d8:	00087800 	andeq	r7, r8, r0, lsl #16
    40dc:	00380900 	eorseq	r0, r8, r0, lsl #18
    40e0:	001d0000 	andseq	r0, sp, r0
    40e4:	8304f01b 	movwhi	pc, #16411	; 0x401b	; <UNPREDICTABLE>
    40e8:	089d0302 	ldmeq	sp, {r1, r8, r9}
    40ec:	ab1c0000 	blge	7040f4 <_bsl_base_address+0x5020f4>
    40f0:	0400000c 	streq	r0, [r0], #-12
    40f4:	ec0b029a 	sfm	f0, 4, [fp], {154}	; 0x9a
    40f8:	1c000006 	stcne	0, cr0, [r0], {6}
    40fc:	000005cd 	andeq	r0, r0, sp, asr #11
    4100:	0b02a304 	bleq	acd18 <__data_load__+0xabeb8>
    4104:	00000831 	andeq	r0, r0, r1, lsr r8
    4108:	05b70800 	ldreq	r0, [r7, #2048]!	; 0x800
    410c:	08ad0000 	stmiaeq	sp!, {}	; <UNPREDICTABLE>
    4110:	38090000 	stmdacc	r9, {}	; <UNPREDICTABLE>
    4114:	18000000 	stmdane	r0, {}	; <UNPREDICTABLE>
    4118:	02791d00 	rsbseq	r1, r9, #0, 26
    411c:	040f0000 	streq	r0, [pc], #-0	; 4124 <__data_load__+0x32c4>
    4120:	000008ad 	andeq	r0, r0, sp, lsr #17
    4124:	0008c31e 	andeq	ip, r8, lr, lsl r3
    4128:	04621400 	strbteq	r1, [r2], #-1024	; 0xfffffc00
    412c:	0f000000 	svceq	0x00000000
    4130:	0008b804 	andeq	fp, r8, r4, lsl #16
    4134:	85040f00 	strhi	r0, [r4, #-3840]	; 0xfffff100
    4138:	1e000001 	cdpne	0, 0, cr0, cr0, cr1, {0}
    413c:	000008da 	ldrdeq	r0, [r0], -sl
    4140:	00003114 	andeq	r3, r0, r4, lsl r1
    4144:	040f0000 	streq	r0, [pc], #-0	; 414c <__data_load__+0x32ec>
    4148:	000008e0 	andeq	r0, r0, r0, ror #17
    414c:	08cf040f 	stmiaeq	pc, {r0, r1, r2, r3, sl}^	; <UNPREDICTABLE>
    4150:	51080000 	mrspl	r0, (UNDEF: 8)
    4154:	f6000006 			; <UNDEFINED> instruction: 0xf6000006
    4158:	09000008 	stmdbeq	r0, {r3}
    415c:	00000038 	andeq	r0, r0, r8, lsr r0
    4160:	591f0002 	ldmdbpl	pc, {r1}	; <UNPREDICTABLE>
    4164:	01000004 	tsteq	r0, r4
    4168:	00310c18 	eorseq	r0, r1, r8, lsl ip
    416c:	1e200000 	cdpne	0, 2, cr0, cr0, cr0, {0}
    4170:	0600000a 	streq	r0, [r0], -sl
    4174:	01050e99 			; <UNDEFINED> instruction: 0x01050e99
    4178:	08bc0000 	ldmeq	ip!, {}	; <UNPREDICTABLE>
    417c:	00240000 	eoreq	r0, r4, r0
    4180:	9c010000 	stcls	0, cr0, [r1], {-0}
    4184:	00000980 	andeq	r0, r0, r0, lsl #19
    4188:	72747021 	rsbsvc	r7, r4, #33	; 0x21
    418c:	192c0100 	stmdbne	ip!, {r8}
    4190:	00000462 	andeq	r0, r0, r2, ror #8
    4194:	00001331 	andeq	r1, r0, r1, lsr r3
    4198:	00001329 	andeq	r1, r0, r9, lsr #6
    419c:	000b7122 	andeq	r7, fp, r2, lsr #2
    41a0:	102d0100 	eorne	r0, sp, r0, lsl #2
    41a4:	00000025 	andeq	r0, r0, r5, lsr #32
    41a8:	0000136c 	andeq	r1, r0, ip, ror #6
    41ac:	00001368 	andeq	r1, r0, r8, ror #6
    41b0:	74657223 	strbtvc	r7, [r5], #-547	; 0xfffffddd
    41b4:	092f0100 	stmdbeq	pc!, {r8}	; <UNPREDICTABLE>
    41b8:	000005b1 			; <UNDEFINED> instruction: 0x000005b1
    41bc:	0000138f 	andeq	r1, r0, pc, lsl #7
    41c0:	0000138d 	andeq	r1, r0, sp, lsl #7
    41c4:	000bb224 	andeq	fp, fp, r4, lsr #4
    41c8:	09300100 	ldmdbeq	r0!, {r8}
    41cc:	00000105 	andeq	r0, r0, r5, lsl #2
    41d0:	0000096e 	andeq	r0, r0, lr, ror #18
    41d4:	00002514 	andeq	r2, r0, r4, lsl r5
    41d8:	cc250000 	stcgt	0, cr0, [r5], #-0
    41dc:	80000008 	andhi	r0, r0, r8
    41e0:	26000009 	strcs	r0, [r0], -r9
    41e4:	f3035001 	vhadd.u8	d5, d3, d1
    41e8:	00005101 	andeq	r5, r0, r1, lsl #2
    41ec:	000bb227 	andeq	fp, fp, r7, lsr #4
    41f0:	000bb200 	andeq	fp, fp, r0, lsl #4
    41f4:	01130700 	tsteq	r3, r0, lsl #14
    41f8:	09ac0009 	stmibeq	ip!, {r0, r3}
    41fc:	00040000 	andeq	r0, r4, r0
    4200:	00001015 	andeq	r1, r0, r5, lsl r0
    4204:	016c0104 	cmneq	ip, r4, lsl #2
    4208:	bd0c0000 	stclt	0, cr0, [ip, #-0]
    420c:	f300000b 	vhadd.u8	d0, d0, d11
    4210:	e0000000 	and	r0, r0, r0
    4214:	88000008 	stmdahi	r0, {r3}
    4218:	98000000 	stmdals	r0, {}	; <UNPREDICTABLE>
    421c:	02000014 	andeq	r0, r0, #20
    4220:	6e690504 	cdpvs	5, 6, cr0, cr9, cr4, {0}
    4224:	04030074 	streq	r0, [r3], #-116	; 0xffffff8c
    4228:	00015607 	andeq	r5, r1, r7, lsl #12
    422c:	05080300 	streq	r0, [r8, #-768]	; 0xfffffd00
    4230:	00000094 	muleq	r0, r4, r0
    4234:	03040803 	movweq	r0, #18435	; 0x4803
    4238:	04000002 	streq	r0, [r0], #-2
    423c:	000003d5 	ldrdeq	r0, [r0], -r5
    4240:	17015e02 	strne	r5, [r1, -r2, lsl #28]
    4244:	0000002c 	andeq	r0, r0, ip, lsr #32
    4248:	b3060103 	movwlt	r0, #24835	; 0x6103
    424c:	03000000 	movweq	r0, #0
    4250:	00b10801 	adcseq	r0, r1, r1, lsl #16
    4254:	02030000 	andeq	r0, r3, #0
    4258:	00020f05 	andeq	r0, r2, r5, lsl #30
    425c:	07020300 	streq	r0, [r2, -r0, lsl #6]
    4260:	000001f0 	strdeq	r0, [r0], -r0	; <UNPREDICTABLE>
    4264:	99050403 	stmdbls	r5, {r0, r1, sl}
    4268:	03000000 	movweq	r0, #0
    426c:	01510704 	cmpeq	r1, r4, lsl #14
    4270:	08030000 	stmdaeq	r3, {}	; <UNPREDICTABLE>
    4274:	00014c07 	andeq	r4, r1, r7, lsl #24
    4278:	04100500 	ldreq	r0, [r0], #-1280	; 0xfffffb00
    427c:	2e030000 	cdpcs	0, 0, cr0, cr3, cr0, {0}
    4280:	00006a0e 	andeq	r6, r0, lr, lsl #20
    4284:	052f0500 	streq	r0, [pc, #-1280]!	; 3d8c <__data_load__+0x2f2c>
    4288:	74030000 	strvc	r0, [r3], #-0
    428c:	00006a0e 	andeq	r6, r0, lr, lsl #20
    4290:	03040600 	movweq	r0, #17920	; 0x4600
    4294:	00b903a5 	adcseq	r0, r9, r5, lsr #7
    4298:	cf070000 	svcgt	0x00070000
    429c:	03000003 	movweq	r0, #3
    42a0:	00410ca7 	subeq	r0, r1, r7, lsr #25
    42a4:	81070000 	mrshi	r0, (UNDEF: 7)
    42a8:	03000003 	movweq	r0, #3
    42ac:	00b913a8 	adcseq	r1, r9, r8, lsr #7
    42b0:	08000000 	stmdaeq	r0, {}	; <UNPREDICTABLE>
    42b4:	00000055 	andeq	r0, r0, r5, asr r0
    42b8:	000000c9 	andeq	r0, r0, r9, asr #1
    42bc:	00002c09 	andeq	r2, r0, r9, lsl #24
    42c0:	0a000300 	beq	4ec8 <__data_load__+0x4068>
    42c4:	09a20308 	stmibeq	r2!, {r3, r8, r9}
    42c8:	000000ed 	andeq	r0, r0, sp, ror #1
    42cc:	0005190b 	andeq	r1, r5, fp, lsl #18
    42d0:	07a40300 	streq	r0, [r4, r0, lsl #6]!
    42d4:	00000025 	andeq	r0, r0, r5, lsr #32
    42d8:	05210b00 	streq	r0, [r1, #-2816]!	; 0xfffff500
    42dc:	a9030000 	stmdbge	r3, {}	; <UNPREDICTABLE>
    42e0:	00009705 	andeq	r9, r0, r5, lsl #14
    42e4:	05000400 	streq	r0, [r0, #-1024]	; 0xfffffc00
    42e8:	000004a9 	andeq	r0, r0, r9, lsr #9
    42ec:	c903aa03 	stmdbgt	r3, {r0, r1, r9, fp, sp, pc}
    42f0:	0c000000 	stceq	0, cr0, [r0], {-0}
    42f4:	05610504 	strbeq	r0, [r1, #-1284]!	; 0xfffffafc
    42f8:	16040000 	strne	r0, [r4], -r0
    42fc:	00007119 	andeq	r7, r0, r9, lsl r1
    4300:	04320500 	ldrteq	r0, [r2], #-1280	; 0xfffffb00
    4304:	0c050000 	stceq	0, cr0, [r5], {-0}
    4308:	0000250d 	andeq	r2, r0, sp, lsl #10
    430c:	03440500 	movteq	r0, #17664	; 0x4500
    4310:	23040000 	movwcs	r0, #16384	; 0x4000
    4314:	0001071b 	andeq	r0, r1, fp, lsl r7
    4318:	03550d00 	cmpeq	r5, #0, 26
    431c:	04180000 	ldreq	r0, [r8], #-0
    4320:	01790834 	cmneq	r9, r4, lsr r8
    4324:	ca0b0000 	bgt	2c432c <_bsl_base_address+0xc232c>
    4328:	04000004 	streq	r0, [r0], #-4
    432c:	01791336 	cmneq	r9, r6, lsr r3
    4330:	0e000000 	cdpeq	0, 0, cr0, cr0, cr0, {0}
    4334:	04006b5f 	streq	r6, [r0], #-2911	; 0xfffff4a1
    4338:	00250737 	eoreq	r0, r5, r7, lsr r7
    433c:	0b040000 	bleq	104344 <__data_load__+0x1034e4>
    4340:	0000050b 	andeq	r0, r0, fp, lsl #10
    4344:	250b3704 	strcs	r3, [fp, #-1796]	; 0xfffff8fc
    4348:	08000000 	stmdaeq	r0, {}	; <UNPREDICTABLE>
    434c:	00033e0b 	andeq	r3, r3, fp, lsl #28
    4350:	14370400 	ldrtne	r0, [r7], #-1024	; 0xfffffc00
    4354:	00000025 	andeq	r0, r0, r5, lsr #32
    4358:	059b0b0c 	ldreq	r0, [fp, #2828]	; 0xb0c
    435c:	37040000 	strcc	r0, [r4, -r0]
    4360:	0000251b 	andeq	r2, r0, fp, lsl r5
    4364:	5f0e1000 	svcpl	0x000e1000
    4368:	38040078 	stmdacc	r4, {r3, r4, r5, r6}
    436c:	00017f0b 	andeq	r7, r1, fp, lsl #30
    4370:	0f001400 	svceq	0x00001400
    4374:	00011f04 	andeq	r1, r1, r4, lsl #30
    4378:	00fb0800 	rscseq	r0, fp, r0, lsl #16
    437c:	018f0000 	orreq	r0, pc, r0
    4380:	2c090000 	stccs	0, cr0, [r9], {-0}
    4384:	00000000 	andeq	r0, r0, r0
    4388:	037c0d00 	cmneq	ip, #0, 26
    438c:	04240000 	strteq	r0, [r4], #-0
    4390:	0212083c 	andseq	r0, r2, #60, 16	; 0x3c0000
    4394:	a10b0000 	mrsge	r0, (UNDEF: 11)
    4398:	04000002 	streq	r0, [r0], #-2
    439c:	0025093e 	eoreq	r0, r5, lr, lsr r9
    43a0:	0b000000 	bleq	43a8 <__data_load__+0x3548>
    43a4:	00000537 	andeq	r0, r0, r7, lsr r5
    43a8:	25093f04 	strcs	r3, [r9, #-3844]	; 0xfffff0fc
    43ac:	04000000 	streq	r0, [r0], #-0
    43b0:	0002b60b 	andeq	fp, r2, fp, lsl #12
    43b4:	09400400 	stmdbeq	r0, {sl}^
    43b8:	00000025 	andeq	r0, r0, r5, lsr #32
    43bc:	060e0b08 	streq	r0, [lr], -r8, lsl #22
    43c0:	41040000 	mrsmi	r0, (UNDEF: 4)
    43c4:	00002509 	andeq	r2, r0, r9, lsl #10
    43c8:	fc0b0c00 	stc2	12, cr0, [fp], {-0}
    43cc:	04000003 	streq	r0, [r0], #-3
    43d0:	00250942 	eoreq	r0, r5, r2, asr #18
    43d4:	0b100000 	bleq	4043dc <_bsl_base_address+0x2023dc>
    43d8:	000003eb 	andeq	r0, r0, fp, ror #7
    43dc:	25094304 	strcs	r4, [r9, #-772]	; 0xfffffcfc
    43e0:	14000000 	strne	r0, [r0], #-0
    43e4:	0005a00b 	andeq	sl, r5, fp
    43e8:	09440400 	stmdbeq	r4, {sl}^
    43ec:	00000025 	andeq	r0, r0, r5, lsr #32
    43f0:	045f0b18 	ldrbeq	r0, [pc], #-2840	; 43f8 <__data_load__+0x3598>
    43f4:	45040000 	strmi	r0, [r4, #-0]
    43f8:	00002509 	andeq	r2, r0, r9, lsl #10
    43fc:	d50b1c00 	strle	r1, [fp, #-3072]	; 0xfffff400
    4400:	04000005 	streq	r0, [r0], #-5
    4404:	00250946 	eoreq	r0, r5, r6, asr #18
    4408:	00200000 	eoreq	r0, r0, r0
    440c:	0002c510 	andeq	ip, r2, r0, lsl r5
    4410:	04010800 	streq	r0, [r1], #-2048	; 0xfffff800
    4414:	0257084f 	subseq	r0, r7, #5177344	; 0x4f0000
    4418:	310b0000 	mrscc	r0, (UNDEF: 11)
    441c:	04000003 	streq	r0, [r0], #-3
    4420:	02570a50 	subseq	r0, r7, #80, 20	; 0x50000
    4424:	0b000000 	bleq	442c <__data_load__+0x35cc>
    4428:	00000231 	andeq	r0, r0, r1, lsr r2
    442c:	57095104 	strpl	r5, [r9, -r4, lsl #2]
    4430:	80000002 	andhi	r0, r0, r2
    4434:	00055311 	andeq	r5, r5, r1, lsl r3
    4438:	0a530400 	beq	14c5440 <_bsl_base_address+0x12c3440>
    443c:	000000fb 	strdeq	r0, [r0], -fp
    4440:	ea110100 	b	444848 <_bsl_base_address+0x242848>
    4444:	04000002 	streq	r0, [r0], #-2
    4448:	00fb0a56 	rscseq	r0, fp, r6, asr sl
    444c:	01040000 	mrseq	r0, (UNDEF: 4)
    4450:	00f90800 	rscseq	r0, r9, r0, lsl #16
    4454:	02670000 	rsbeq	r0, r7, #0
    4458:	2c090000 	stccs	0, cr0, [r9], {-0}
    445c:	1f000000 	svcne	0x00000000
    4460:	021d1000 	andseq	r1, sp, #0
    4464:	01900000 	orrseq	r0, r0, r0
    4468:	aa086204 	bge	21cc80 <_bsl_base_address+0x1ac80>
    446c:	0b000002 	bleq	447c <__data_load__+0x361c>
    4470:	000004ca 	andeq	r0, r0, sl, asr #9
    4474:	aa126304 	bge	49d08c <_bsl_base_address+0x29b08c>
    4478:	00000002 	andeq	r0, r0, r2
    447c:	0004db0b 	andeq	sp, r4, fp, lsl #22
    4480:	06640400 	strbteq	r0, [r4], -r0, lsl #8
    4484:	00000025 	andeq	r0, r0, r5, lsr #32
    4488:	03390b04 	teqeq	r9, #4, 22	; 0x1000
    448c:	66040000 	strvs	r0, [r4], -r0
    4490:	0002b009 	andeq	fp, r2, r9
    4494:	c50b0800 	strgt	r0, [fp, #-2048]	; 0xfffff800
    4498:	04000002 	streq	r0, [r0], #-2
    449c:	02121e67 	andseq	r1, r2, #1648	; 0x670
    44a0:	00880000 	addeq	r0, r8, r0
    44a4:	0267040f 	rsbeq	r0, r7, #251658240	; 0xf000000
    44a8:	c0080000 	andgt	r0, r8, r0
    44ac:	c0000002 	andgt	r0, r0, r2
    44b0:	09000002 	stmdbeq	r0, {r1}
    44b4:	0000002c 	andeq	r0, r0, ip, lsr #32
    44b8:	040f001f 	streq	r0, [pc], #-31	; 44c0 <__data_load__+0x3660>
    44bc:	000002c6 	andeq	r0, r0, r6, asr #5
    44c0:	04690d12 	strbteq	r0, [r9], #-3346	; 0xfffff2ee
    44c4:	04080000 	streq	r0, [r8], #-0
    44c8:	02ef087a 	rsceq	r0, pc, #7995392	; 0x7a0000
    44cc:	650b0000 	strvs	r0, [fp, #-0]
    44d0:	0400000a 	streq	r0, [r0], #-10
    44d4:	02ef117b 	rsceq	r1, pc, #-1073741794	; 0xc000001e
    44d8:	0b000000 	bleq	44e0 <__data_load__+0x3680>
    44dc:	00000928 	andeq	r0, r0, r8, lsr #18
    44e0:	25067c04 	strcs	r7, [r6, #-3076]	; 0xfffff3fc
    44e4:	04000000 	streq	r0, [r0], #-0
    44e8:	55040f00 	strpl	r0, [r4, #-3840]	; 0xfffff100
    44ec:	0d000000 	stceq	0, cr0, [r0, #-0]
    44f0:	000004b4 			; <UNDEFINED> instruction: 0x000004b4
    44f4:	08ba0468 	ldmeq	sl!, {r3, r5, r6, sl}
    44f8:	00000438 	andeq	r0, r0, r8, lsr r4
    44fc:	00705f0e 	rsbseq	r5, r0, lr, lsl #30
    4500:	ef12bb04 	svc	0x0012bb04
    4504:	00000002 	andeq	r0, r0, r2
    4508:	00725f0e 	rsbseq	r5, r2, lr, lsl #30
    450c:	2507bc04 	strcs	fp, [r7, #-3076]	; 0xfffff3fc
    4510:	04000000 	streq	r0, [r0], #-0
    4514:	00775f0e 	rsbseq	r5, r7, lr, lsl #30
    4518:	2507bd04 	strcs	fp, [r7, #-3332]	; 0xfffff2fc
    451c:	08000000 	stmdaeq	r0, {}	; <UNPREDICTABLE>
    4520:	0002e30b 	andeq	lr, r2, fp, lsl #6
    4524:	09be0400 	ldmibeq	lr!, {sl}
    4528:	0000005c 	andeq	r0, r0, ip, asr r0
    452c:	03980b0c 	orrseq	r0, r8, #12, 22	; 0x3000
    4530:	bf040000 	svclt	0x00040000
    4534:	00005c09 	andeq	r5, r0, r9, lsl #24
    4538:	5f0e0e00 	svcpl	0x000e0e00
    453c:	04006662 	streq	r6, [r0], #-1634	; 0xfffff99e
    4540:	02c711c0 	sbceq	r1, r7, #192, 2	; 0x30
    4544:	0b100000 	bleq	40454c <_bsl_base_address+0x20254c>
    4548:	00000270 	andeq	r0, r0, r0, ror r2
    454c:	2507c104 	strcs	ip, [r7, #-260]	; 0xfffffefc
    4550:	18000000 	stmdane	r0, {}	; <UNPREDICTABLE>
    4554:	0002d30b 	andeq	sp, r2, fp, lsl #6
    4558:	0ac80400 	beq	ff205560 <__stack+0xdf204c88>
    455c:	000000f9 	strdeq	r0, [r0], -r9
    4560:	036c0b1c 	cmneq	ip, #28, 22	; 0x7000
    4564:	ca040000 	bgt	10456c <__data_load__+0x10370c>
    4568:	0005bc1d 	andeq	fp, r5, sp, lsl ip
    456c:	e40b2000 	str	r2, [fp], #-0
    4570:	04000003 	streq	r0, [r0], #-3
    4574:	05e61dcc 	strbeq	r1, [r6, #3532]!	; 0xdcc
    4578:	0b240000 	bleq	904580 <_bsl_base_address+0x702580>
    457c:	00000529 	andeq	r0, r0, r9, lsr #10
    4580:	0a0dcf04 	beq	378198 <_bsl_base_address+0x176198>
    4584:	28000006 	stmdacs	r0, {r1, r2}
    4588:	0005ef0b 	andeq	lr, r5, fp, lsl #30
    458c:	09d00400 	ldmibeq	r0, {sl}^
    4590:	00000624 	andeq	r0, r0, r4, lsr #12
    4594:	755f0e2c 	ldrbvc	r0, [pc, #-3628]	; 3770 <__data_load__+0x2910>
    4598:	d3040062 	movwle	r0, #16482	; 0x4062
    459c:	0002c711 	andeq	ip, r2, r1, lsl r7
    45a0:	5f0e3000 	svcpl	0x000e3000
    45a4:	04007075 	streq	r7, [r0], #-117	; 0xffffff8b
    45a8:	02ef12d4 	rsceq	r1, pc, #212, 4	; 0x4000000d
    45ac:	0e380000 	cdpeq	0, 3, cr0, cr8, cr0, {0}
    45b0:	0072755f 	rsbseq	r7, r2, pc, asr r5
    45b4:	2507d504 	strcs	sp, [r7, #-1284]	; 0xfffffafc
    45b8:	3c000000 	stccc	0, cr0, [r0], {-0}
    45bc:	0002b00b 	andeq	fp, r2, fp
    45c0:	11d80400 	bicsne	r0, r8, r0, lsl #8
    45c4:	0000062a 	andeq	r0, r0, sl, lsr #12
    45c8:	05c70b40 	strbeq	r0, [r7, #2880]	; 0xb40
    45cc:	d9040000 	stmdble	r4, {}	; <UNPREDICTABLE>
    45d0:	00063a11 	andeq	r3, r6, r1, lsl sl
    45d4:	5f0e4300 	svcpl	0x000e4300
    45d8:	0400626c 	streq	r6, [r0], #-620	; 0xfffffd94
    45dc:	02c711dc 	sbceq	r1, r7, #220, 2	; 0x37
    45e0:	0b440000 	bleq	11045e8 <_bsl_base_address+0xf025e8>
    45e4:	000002f9 	strdeq	r0, [r0], -r9
    45e8:	2507df04 	strcs	sp, [r7, #-3844]	; 0xfffff0fc
    45ec:	4c000000 	stcmi	0, cr0, [r0], {-0}
    45f0:	00030a0b 	andeq	r0, r3, fp, lsl #20
    45f4:	0ae00400 	beq	ff8055fc <__stack+0xdf804d24>
    45f8:	0000007f 	andeq	r0, r0, pc, ror r0
    45fc:	073a0b50 			; <UNDEFINED> instruction: 0x073a0b50
    4600:	e3040000 	movw	r0, #16384	; 0x4000
    4604:	00045612 	andeq	r5, r4, r2, lsl r6
    4608:	fd0b5400 	stc2	4, cr5, [fp, #-0]
    460c:	04000008 	streq	r0, [r0], #-8
    4610:	01130ce7 	tsteq	r3, r7, ror #25
    4614:	0b580000 	bleq	160461c <_bsl_base_address+0x140261c>
    4618:	000004bc 			; <UNDEFINED> instruction: 0x000004bc
    461c:	ed0ee904 	vstr.16	s28, [lr, #-8]
    4620:	5c000000 	stcpl	0, cr0, [r0], {-0}
    4624:	0003dc0b 	andeq	sp, r3, fp, lsl #24
    4628:	09ea0400 	stmibeq	sl!, {sl}^
    462c:	00000025 	andeq	r0, r0, r5, lsr #32
    4630:	25130064 	ldrcs	r0, [r3, #-100]	; 0xffffff9c
    4634:	56000000 	strpl	r0, [r0], -r0
    4638:	14000004 	strne	r0, [r0], #-4
    463c:	00000456 	andeq	r0, r0, r6, asr r4
    4640:	0000f914 	andeq	pc, r0, r4, lsl r9	; <UNPREDICTABLE>
    4644:	05aa1400 	streq	r1, [sl, #1024]!	; 0x400
    4648:	25140000 	ldrcs	r0, [r4, #-0]
    464c:	00000000 	andeq	r0, r0, r0
    4650:	0461040f 	strbteq	r0, [r1], #-1039	; 0xfffffbf1
    4654:	56150000 	ldrpl	r0, [r5], -r0
    4658:	16000004 	strne	r0, [r0], -r4
    465c:	00000cab 	andeq	r0, r0, fp, lsr #25
    4660:	65040428 	strvs	r0, [r4, #-1064]	; 0xfffffbd8
    4664:	05aa0802 	streq	r0, [sl, #2050]!	; 0x802
    4668:	58170000 	ldmdapl	r7, {}	; <UNPREDICTABLE>
    466c:	04000004 	streq	r0, [r0], #-4
    4670:	25070267 	strcs	r0, [r7, #-615]	; 0xfffffd99
    4674:	00000000 	andeq	r0, r0, r0
    4678:	0002f217 	andeq	pc, r2, r7, lsl r2	; <UNPREDICTABLE>
    467c:	026c0400 	rsbeq	r0, ip, #0, 8
    4680:	0006960b 	andeq	r9, r6, fp, lsl #12
    4684:	88170400 	ldmdahi	r7, {sl}
    4688:	04000003 	streq	r0, [r0], #-3
    468c:	9614026c 	ldrls	r0, [r4], -ip, ror #4
    4690:	08000006 	stmdaeq	r0, {r1, r2}
    4694:	00034d17 	andeq	r4, r3, r7, lsl sp
    4698:	026c0400 	rsbeq	r0, ip, #0, 8
    469c:	0006961e 	andeq	r9, r6, lr, lsl r6
    46a0:	d6170c00 	ldrle	r0, [r7], -r0, lsl #24
    46a4:	04000004 	streq	r0, [r0], #-4
    46a8:	2508026e 	strcs	r0, [r8, #-622]	; 0xfffffd92
    46ac:	10000000 	andne	r0, r0, r0
    46b0:	00024517 	andeq	r4, r2, r7, lsl r5
    46b4:	026f0400 	rsbeq	r0, pc, #0, 8
    46b8:	00089608 	andeq	r9, r8, r8, lsl #12
    46bc:	f2171400 	vshl.s16	d1, d0, d7
    46c0:	04000004 	streq	r0, [r0], #-4
    46c4:	25070272 	strcs	r0, [r7, #-626]	; 0xfffffd8e
    46c8:	30000000 	andcc	r0, r0, r0
    46cc:	0004e017 	andeq	lr, r4, r7, lsl r0
    46d0:	02730400 	rsbseq	r0, r3, #0, 8
    46d4:	0008ab16 	andeq	sl, r8, r6, lsl fp
    46d8:	05173400 	ldreq	r3, [r7, #-1024]	; 0xfffffc00
    46dc:	04000004 	streq	r0, [r0], #-4
    46e0:	25070275 	strcs	r0, [r7, #-629]	; 0xfffffd8b
    46e4:	38000000 	stmdacc	r0, {}	; <UNPREDICTABLE>
    46e8:	0004e817 	andeq	lr, r4, r7, lsl r8
    46ec:	02770400 	rsbseq	r0, r7, #0, 8
    46f0:	0008bc0a 	andeq	fp, r8, sl, lsl #24
    46f4:	c7173c00 	ldrgt	r3, [r7, -r0, lsl #24]
    46f8:	04000003 	streq	r0, [r0], #-3
    46fc:	7913027a 	ldmdbvc	r3, {r1, r3, r4, r5, r6, r9}
    4700:	40000001 	andmi	r0, r0, r1
    4704:	00037217 	andeq	r7, r3, r7, lsl r2
    4708:	027b0400 	rsbseq	r0, fp, #0, 8
    470c:	00002507 	andeq	r2, r0, r7, lsl #10
    4710:	09174400 	ldmdbeq	r7, {sl, lr}
    4714:	04000006 	streq	r0, [r0], #-6
    4718:	7913027c 	ldmdbvc	r3, {r2, r3, r4, r5, r6, r9}
    471c:	48000001 	stmdami	r0, {r0}
    4720:	00042817 	andeq	r2, r4, r7, lsl r8
    4724:	027d0400 	rsbseq	r0, sp, #0, 8
    4728:	0008c214 	andeq	ip, r8, r4, lsl r2
    472c:	90174c00 	andsls	r4, r7, r0, lsl #24
    4730:	04000003 	streq	r0, [r0], #-3
    4734:	25070280 	strcs	r0, [r7, #-640]	; 0xfffffd80
    4738:	50000000 	andpl	r0, r0, r0
    473c:	00030217 	andeq	r0, r3, r7, lsl r2
    4740:	02810400 	addeq	r0, r1, #0, 8
    4744:	0005aa09 	andeq	sl, r5, r9, lsl #20
    4748:	51175400 	tstpl	r7, r0, lsl #8
    474c:	04000004 	streq	r0, [r0], #-4
    4750:	710702a4 	smlatbvc	r7, r4, r2, r0
    4754:	58000008 	stmdapl	r0, {r3}
    4758:	00021d18 	andeq	r1, r2, r8, lsl sp
    475c:	02a80400 	adceq	r0, r8, #0, 8
    4760:	0002aa13 	andeq	sl, r2, r3, lsl sl
    4764:	18014800 	stmdane	r1, {fp, lr}
    4768:	000003a5 	andeq	r0, r0, r5, lsr #7
    476c:	1202a904 	andne	sl, r2, #4, 18	; 0x10000
    4770:	00000267 	andeq	r0, r0, r7, ror #4
    4774:	bd18014c 	ldflts	f0, [r8, #-304]	; 0xfffffed0
    4778:	04000005 	streq	r0, [r0], #-5
    477c:	d30c02ad 	movwle	r0, #49837	; 0xc2ad
    4780:	dc000008 	stcle	0, cr0, [r0], {8}
    4784:	02db1802 	sbcseq	r1, fp, #131072	; 0x20000
    4788:	b2040000 	andlt	r0, r4, #0
    478c:	06571002 	ldrbeq	r1, [r7], -r2
    4790:	02e00000 	rsceq	r0, r0, #0
    4794:	0002c018 	andeq	ip, r2, r8, lsl r0
    4798:	02b40400 	adcseq	r0, r4, #0, 8
    479c:	0008df0a 	andeq	sp, r8, sl, lsl #30
    47a0:	0002ec00 	andeq	lr, r2, r0, lsl #24
    47a4:	05b0040f 	ldreq	r0, [r0, #1039]!	; 0x40f
    47a8:	01030000 	mrseq	r0, (UNDEF: 3)
    47ac:	0000ba08 	andeq	fp, r0, r8, lsl #20
    47b0:	05b01500 	ldreq	r1, [r0, #1280]!	; 0x500
    47b4:	040f0000 	streq	r0, [pc], #-0	; 47bc <__data_load__+0x395c>
    47b8:	00000438 	andeq	r0, r0, r8, lsr r4
    47bc:	00002513 	andeq	r2, r0, r3, lsl r5
    47c0:	0005e000 	andeq	lr, r5, r0
    47c4:	04561400 	ldrbeq	r1, [r6], #-1024	; 0xfffffc00
    47c8:	f9140000 			; <UNDEFINED> instruction: 0xf9140000
    47cc:	14000000 	strne	r0, [r0], #-0
    47d0:	000005e0 	andeq	r0, r0, r0, ror #11
    47d4:	00002514 	andeq	r2, r0, r4, lsl r5
    47d8:	040f0000 	streq	r0, [pc], #-0	; 47e0 <__data_load__+0x3980>
    47dc:	000005b7 			; <UNDEFINED> instruction: 0x000005b7
    47e0:	05c2040f 	strbeq	r0, [r2, #1039]	; 0x40f
    47e4:	8b130000 	blhi	4c47ec <_bsl_base_address+0x2c27ec>
    47e8:	0a000000 	beq	47f0 <__data_load__+0x3990>
    47ec:	14000006 	strne	r0, [r0], #-6
    47f0:	00000456 	andeq	r0, r0, r6, asr r4
    47f4:	0000f914 	andeq	pc, r0, r4, lsl r9	; <UNPREDICTABLE>
    47f8:	008b1400 	addeq	r1, fp, r0, lsl #8
    47fc:	25140000 	ldrcs	r0, [r4, #-0]
    4800:	00000000 	andeq	r0, r0, r0
    4804:	05ec040f 	strbeq	r0, [ip, #1039]!	; 0x40f
    4808:	25130000 	ldrcs	r0, [r3, #-0]
    480c:	24000000 	strcs	r0, [r0], #-0
    4810:	14000006 	strne	r0, [r0], #-6
    4814:	00000456 	andeq	r0, r0, r6, asr r4
    4818:	0000f914 	andeq	pc, r0, r4, lsl r9	; <UNPREDICTABLE>
    481c:	040f0000 	streq	r0, [pc], #-0	; 4824 <__data_load__+0x39c4>
    4820:	00000610 	andeq	r0, r0, r0, lsl r6
    4824:	00005508 	andeq	r5, r0, r8, lsl #10
    4828:	00063a00 	andeq	r3, r6, r0, lsl #20
    482c:	002c0900 	eoreq	r0, ip, r0, lsl #18
    4830:	00020000 	andeq	r0, r2, r0
    4834:	00005508 	andeq	r5, r0, r8, lsl #10
    4838:	00064a00 	andeq	r4, r6, r0, lsl #20
    483c:	002c0900 	eoreq	r0, ip, r0, lsl #18
    4840:	00000000 	andeq	r0, r0, r0
    4844:	0004a204 	andeq	sl, r4, r4, lsl #4
    4848:	01240400 			; <UNDEFINED> instruction: 0x01240400
    484c:	0002f51a 	andeq	pc, r2, sl, lsl r5	; <UNPREDICTABLE>
    4850:	0cc11900 			; <UNDEFINED> instruction: 0x0cc11900
    4854:	040c0000 	streq	r0, [ip], #-0
    4858:	90080128 	andls	r0, r8, r8, lsr #2
    485c:	17000006 	strne	r0, [r0, -r6]
    4860:	000004ca 	andeq	r0, r0, sl, asr #9
    4864:	11012a04 	tstne	r1, r4, lsl #20
    4868:	00000690 	muleq	r0, r0, r6
    486c:	039e1700 	orrseq	r1, lr, #0, 14
    4870:	2b040000 	blcs	104878 <__data_load__+0x103a18>
    4874:	00250701 	eoreq	r0, r5, r1, lsl #14
    4878:	17040000 	strne	r0, [r4, -r0]
    487c:	000004d0 	ldrdeq	r0, [r0], -r0	; <UNPREDICTABLE>
    4880:	0b012c04 	bleq	4f898 <__data_load__+0x4ea38>
    4884:	00000696 	muleq	r0, r6, r6
    4888:	040f0008 	streq	r0, [pc], #-8	; 4890 <__data_load__+0x3a30>
    488c:	00000657 	andeq	r0, r0, r7, asr r6
    4890:	064a040f 	strbeq	r0, [sl], -pc, lsl #8
    4894:	3d190000 	ldccc	0, cr0, [r9, #-0]
    4898:	0e000002 	cdpeq	0, 0, cr0, cr0, cr2, {0}
    489c:	08014404 	stmdaeq	r1, {r2, sl, lr}
    48a0:	000006d5 	ldrdeq	r0, [r0], -r5
    48a4:	00051317 	andeq	r1, r5, r7, lsl r3
    48a8:	01450400 	cmpeq	r5, r0, lsl #8
    48ac:	0006d512 	andeq	sp, r6, r2, lsl r5
    48b0:	40170000 	andsmi	r0, r7, r0
    48b4:	04000005 	streq	r0, [r0], #-5
    48b8:	d5120146 	ldrle	r0, [r2, #-326]	; 0xfffffeba
    48bc:	06000006 	streq	r0, [r0], -r6
    48c0:	00055c17 	andeq	r5, r5, r7, lsl ip
    48c4:	01470400 	cmpeq	r7, r0, lsl #8
    48c8:	00006312 	andeq	r6, r0, r2, lsl r3
    48cc:	08000c00 	stmdaeq	r0, {sl, fp}
    48d0:	00000063 	andeq	r0, r0, r3, rrx
    48d4:	000006e5 	andeq	r0, r0, r5, ror #13
    48d8:	00002c09 	andeq	r2, r0, r9, lsl #24
    48dc:	1a000200 	bne	50e4 <__data_load__+0x4284>
    48e0:	028504d0 	addeq	r0, r5, #208, 8	; 0xd0000000
    48e4:	0007fa07 	andeq	pc, r7, r7, lsl #20
    48e8:	058e1700 	streq	r1, [lr, #1792]	; 0x700
    48ec:	87040000 	strhi	r0, [r4, -r0]
    48f0:	002c1802 	eoreq	r1, ip, r2, lsl #16
    48f4:	17000000 	strne	r0, [r0, -r0]
    48f8:	00000546 	andeq	r0, r0, r6, asr #10
    48fc:	12028804 	andne	r8, r2, #4, 16	; 0x40000
    4900:	000005aa 	andeq	r0, r0, sl, lsr #11
    4904:	03ba1704 			; <UNDEFINED> instruction: 0x03ba1704
    4908:	89040000 	stmdbhi	r4, {}	; <UNPREDICTABLE>
    490c:	07fa1002 	ldrbeq	r1, [sl, r2]!
    4910:	17080000 	strne	r0, [r8, -r0]
    4914:	000005e0 	andeq	r0, r0, r0, ror #11
    4918:	17028a04 	strne	r8, [r2, -r4, lsl #20]
    491c:	0000018f 	andeq	r0, r0, pc, lsl #3
    4920:	035d1724 	cmpeq	sp, #36, 14	; 0x900000
    4924:	8b040000 	blhi	10492c <__data_load__+0x103acc>
    4928:	00250f02 	eoreq	r0, r5, r2, lsl #30
    492c:	17480000 	strbne	r0, [r8, -r0]
    4930:	000004c5 	andeq	r0, r0, r5, asr #9
    4934:	2c028c04 	stccs	12, cr8, [r2], {4}
    4938:	00000078 	andeq	r0, r0, r8, ror r0
    493c:	05f61750 	ldrbeq	r1, [r6, #1872]!	; 0x750
    4940:	8d040000 	stchi	0, cr0, [r4, #-0]
    4944:	069c1a02 	ldreq	r1, [ip], r2, lsl #20
    4948:	17580000 	ldrbne	r0, [r8, -r0]
    494c:	00000444 	andeq	r0, r0, r4, asr #8
    4950:	16028e04 	strne	r8, [r2], -r4, lsl #28
    4954:	000000ed 	andeq	r0, r0, sp, ror #1
    4958:	05fb1768 	ldrbeq	r1, [fp, #1896]!	; 0x768
    495c:	8f040000 	svchi	0x00040000
    4960:	00ed1602 	rsceq	r1, sp, r2, lsl #12
    4964:	17700000 	ldrbne	r0, [r0, -r0]!
    4968:	00000293 	muleq	r0, r3, r2
    496c:	16029004 	strne	r9, [r2], -r4
    4970:	000000ed 	andeq	r0, r0, sp, ror #1
    4974:	05b31778 	ldreq	r1, [r3, #1912]!	; 0x778
    4978:	91040000 	mrsls	r0, (UNDEF: 4)
    497c:	080a1002 	stmdaeq	sl, {r1, ip}
    4980:	17800000 	strne	r0, [r0, r0]
    4984:	000003ae 	andeq	r0, r0, lr, lsr #7
    4988:	10029204 	andne	r9, r2, r4, lsl #4
    498c:	0000081a 	andeq	r0, r0, sl, lsl r8
    4990:	05691788 	strbeq	r1, [r9, #-1928]!	; 0xfffff878
    4994:	93040000 	movwls	r0, #16384	; 0x4000
    4998:	00250f02 	eoreq	r0, r5, r2, lsl #30
    499c:	17a00000 	strne	r0, [r0, r0]!
    49a0:	00000323 	andeq	r0, r0, r3, lsr #6
    49a4:	16029404 	strne	r9, [r2], -r4, lsl #8
    49a8:	000000ed 	andeq	r0, r0, sp, ror #1
    49ac:	028417a4 	addeq	r1, r4, #164, 14	; 0x2900000
    49b0:	95040000 	strls	r0, [r4, #-0]
    49b4:	00ed1602 	rsceq	r1, sp, r2, lsl #12
    49b8:	17ac0000 	strne	r0, [ip, r0]!
    49bc:	00000312 	andeq	r0, r0, r2, lsl r3
    49c0:	16029604 	strne	r9, [r2], -r4, lsl #12
    49c4:	000000ed 	andeq	r0, r0, sp, ror #1
    49c8:	025017b4 	subseq	r1, r0, #180, 14	; 0x2d00000
    49cc:	97040000 	strls	r0, [r4, -r0]
    49d0:	00ed1602 	rsceq	r1, sp, r2, lsl #12
    49d4:	17bc0000 	ldrne	r0, [ip, r0]!
    49d8:	0000025f 	andeq	r0, r0, pc, asr r2
    49dc:	16029804 	strne	r9, [r2], -r4, lsl #16
    49e0:	000000ed 	andeq	r0, r0, sp, ror #1
    49e4:	045617c4 	ldrbeq	r1, [r6], #-1988	; 0xfffff83c
    49e8:	99040000 	stmdbls	r4, {}	; <UNPREDICTABLE>
    49ec:	00250802 	eoreq	r0, r5, r2, lsl #16
    49f0:	00cc0000 	sbceq	r0, ip, r0
    49f4:	0005b008 	andeq	fp, r5, r8
    49f8:	00080a00 	andeq	r0, r8, r0, lsl #20
    49fc:	002c0900 	eoreq	r0, ip, r0, lsl #18
    4a00:	00190000 	andseq	r0, r9, r0
    4a04:	0005b008 	andeq	fp, r5, r8
    4a08:	00081a00 	andeq	r1, r8, r0, lsl #20
    4a0c:	002c0900 	eoreq	r0, ip, r0, lsl #18
    4a10:	00070000 	andeq	r0, r7, r0
    4a14:	0005b008 	andeq	fp, r5, r8
    4a18:	00082a00 	andeq	r2, r8, r0, lsl #20
    4a1c:	002c0900 	eoreq	r0, ip, r0, lsl #18
    4a20:	00170000 	andseq	r0, r7, r0
    4a24:	9e04f01a 	mcrls	0, 0, pc, cr4, cr10, {0}	; <UNPREDICTABLE>
    4a28:	08510702 	ldmdaeq	r1, {r1, r8, r9, sl}^
    4a2c:	f5170000 			; <UNDEFINED> instruction: 0xf5170000
    4a30:	04000003 	streq	r0, [r0], #-3
    4a34:	511b02a1 	tstpl	fp, r1, lsr #5
    4a38:	00000008 	andeq	r0, r0, r8
    4a3c:	0005aa17 	andeq	sl, r5, r7, lsl sl
    4a40:	02a20400 	adceq	r0, r2, #0, 8
    4a44:	00086118 	andeq	r6, r8, r8, lsl r1
    4a48:	08007800 	stmdaeq	r0, {fp, ip, sp, lr}
    4a4c:	000002ef 	andeq	r0, r0, pc, ror #5
    4a50:	00000861 	andeq	r0, r0, r1, ror #16
    4a54:	00002c09 	andeq	r2, r0, r9, lsl #24
    4a58:	08001d00 	stmdaeq	r0, {r8, sl, fp, ip}
    4a5c:	0000002c 	andeq	r0, r0, ip, lsr #32
    4a60:	00000871 	andeq	r0, r0, r1, ror r8
    4a64:	00002c09 	andeq	r2, r0, r9, lsl #24
    4a68:	1b001d00 	blne	be70 <__data_load__+0xb010>
    4a6c:	028304f0 	addeq	r0, r3, #240, 8	; 0xf0000000
    4a70:	00089603 	andeq	r9, r8, r3, lsl #12
    4a74:	0cab1c00 	stceq	12, cr1, [fp]
    4a78:	9a040000 	bls	104a80 <__data_load__+0x103c20>
    4a7c:	06e50b02 	strbteq	r0, [r5], r2, lsl #22
    4a80:	cd1c0000 	ldcgt	0, cr0, [ip, #-0]
    4a84:	04000005 	streq	r0, [r0], #-5
    4a88:	2a0b02a3 	bcs	2c551c <_bsl_base_address+0xc351c>
    4a8c:	00000008 	andeq	r0, r0, r8
    4a90:	0005b008 	andeq	fp, r5, r8
    4a94:	0008a600 	andeq	sl, r8, r0, lsl #12
    4a98:	002c0900 	eoreq	r0, ip, r0, lsl #18
    4a9c:	00180000 	andseq	r0, r8, r0
    4aa0:	0002791d 	andeq	r7, r2, sp, lsl r9
    4aa4:	a6040f00 	strge	r0, [r4], -r0, lsl #30
    4aa8:	1e000008 	cdpne	0, 0, cr0, cr0, cr8, {0}
    4aac:	000008bc 			; <UNDEFINED> instruction: 0x000008bc
    4ab0:	00045614 	andeq	r5, r4, r4, lsl r6
    4ab4:	040f0000 	streq	r0, [pc], #-0	; 4abc <__data_load__+0x3c5c>
    4ab8:	000008b1 			; <UNDEFINED> instruction: 0x000008b1
    4abc:	0179040f 	cmneq	r9, pc, lsl #8
    4ac0:	d31e0000 	tstle	lr, #0
    4ac4:	14000008 	strne	r0, [r0], #-8
    4ac8:	00000025 	andeq	r0, r0, r5, lsr #32
    4acc:	d9040f00 	stmdble	r4, {r8, r9, sl, fp}
    4ad0:	0f000008 	svceq	0x00000008
    4ad4:	0008c804 	andeq	ip, r8, r4, lsl #16
    4ad8:	064a0800 	strbeq	r0, [sl], -r0, lsl #16
    4adc:	08ef0000 	stmiaeq	pc!, {}^	; <UNPREDICTABLE>
    4ae0:	2c090000 	stccs	0, cr0, [r9], {-0}
    4ae4:	02000000 	andeq	r0, r0, #0
    4ae8:	05761f00 	ldrbeq	r1, [r6, #-3840]!	; 0xfffff100
    4aec:	34040000 	strcc	r0, [r4], #-0
    4af0:	045c1d03 	ldrbeq	r1, [ip], #-3331	; 0xfffff2fd
    4af4:	a2200000 	eorge	r0, r0, #0
    4af8:	07000000 	streq	r0, [r0, -r0]
    4afc:	00005501 	andeq	r5, r0, r1, lsl #10
    4b00:	06050600 	streq	r0, [r5], -r0, lsl #12
    4b04:	00000921 	andeq	r0, r0, r1, lsr #18
    4b08:	00021921 	andeq	r1, r2, r1, lsr #18
    4b0c:	25210000 	strcs	r0, [r1, #-0]!
    4b10:	01000002 	tsteq	r0, r2
    4b14:	00016321 	andeq	r6, r1, r1, lsr #6
    4b18:	22000200 	andcs	r0, r0, #0, 4
    4b1c:	000001dc 	ldrdeq	r0, [r0], -ip
    4b20:	25014401 	strcs	r4, [r1, #-1025]	; 0xfffffbff
    4b24:	e0000000 	and	r0, r0, r0
    4b28:	88000008 	stmdahi	r0, {r3}
    4b2c:	01000000 	mrseq	r0, (UNDEF: 0)
    4b30:	0009a99c 	muleq	r9, ip, r9
    4b34:	0bb82300 	bleq	fee0d73c <__stack+0xdee0ce64>
    4b38:	44010000 	strmi	r0, [r1], #-0
    4b3c:	0000251a 	andeq	r2, r0, sl, lsl r5
    4b40:	0013ae00 	andseq	sl, r3, r0, lsl #28
    4b44:	0013a200 	andseq	sl, r3, r0, lsl #4
    4b48:	6e662400 	cdpvs	4, 6, cr2, cr6, cr0, {0}
    4b4c:	09450100 	stmdbeq	r5, {r8}^
    4b50:	000002c0 	andeq	r0, r0, r0, asr #5
    4b54:	61255101 			; <UNDEFINED> instruction: 0x61255101
    4b58:	01006772 	tsteq	r0, r2, ror r7
    4b5c:	00f90846 	rscseq	r0, r9, r6, asr #16
    4b60:	140d0000 	strne	r0, [sp], #-0
    4b64:	14010000 	strne	r0, [r1], #-0
    4b68:	64250000 	strtvs	r0, [r5], #-0
    4b6c:	08470100 	stmdaeq	r7, {r8}^
    4b70:	000000f9 	strdeq	r0, [r0], -r9
    4b74:	0000146b 	andeq	r1, r0, fp, ror #8
    4b78:	0000145f 	andeq	r1, r0, pc, asr r4
    4b7c:	0002ce26 	andeq	ip, r2, r6, lsr #28
    4b80:	1a490100 	bne	1244f88 <_bsl_base_address+0x1042f88>
    4b84:	000009a9 	andeq	r0, r0, r9, lsr #19
    4b88:	000014c1 	andeq	r1, r0, r1, asr #9
    4b8c:	000014bf 			; <UNDEFINED> instruction: 0x000014bf
    4b90:	01007027 	tsteq	r0, r7, lsr #32
    4b94:	02aa1c4a 	adceq	r1, sl, #18944	; 0x4a00
    4b98:	14dd0000 	ldrbne	r0, [sp], #0
    4b9c:	14d70000 	ldrbne	r0, [r7], #0
    4ba0:	0f000000 	svceq	0x00000000
    4ba4:	00021204 	andeq	r1, r2, r4, lsl #4
    4ba8:	0a390000 	beq	e44bb0 <_bsl_base_address+0xc42bb0>
    4bac:	00040000 	andeq	r0, r4, r0
    4bb0:	00001254 	andeq	r1, r0, r4, asr r2
    4bb4:	016c0104 	cmneq	ip, r4, lsl #2
    4bb8:	1b0c0000 	blne	304bc0 <_bsl_base_address+0x102bc0>
    4bbc:	f300000c 	vhadd.u8	d0, d0, d12
    4bc0:	78000000 	stmdavc	r0, {}	; <UNPREDICTABLE>
    4bc4:	00000000 	andeq	r0, r0, r0
    4bc8:	50000000 	andpl	r0, r0, r0
    4bcc:	02000016 	andeq	r0, r0, #22
    4bd0:	01560704 	cmpeq	r6, r4, lsl #14
    4bd4:	04030000 	streq	r0, [r3], #-0
    4bd8:	746e6905 	strbtvc	r6, [lr], #-2309	; 0xfffff6fb
    4bdc:	05080200 	streq	r0, [r8, #-512]	; 0xfffffe00
    4be0:	00000094 	muleq	r0, r4, r0
    4be4:	03040802 	movweq	r0, #18434	; 0x4802
    4be8:	04000002 	streq	r0, [r0], #-2
    4bec:	000003d5 	ldrdeq	r0, [r0], -r5
    4bf0:	17015e02 	strne	r5, [r1, -r2, lsl #28]
    4bf4:	00000025 	andeq	r0, r0, r5, lsr #32
    4bf8:	b3060102 	movwlt	r0, #24834	; 0x6102
    4bfc:	02000000 	andeq	r0, r0, #0
    4c00:	00b10801 	adcseq	r0, r1, r1, lsl #16
    4c04:	02020000 	andeq	r0, r2, #0
    4c08:	00020f05 	andeq	r0, r2, r5, lsl #30
    4c0c:	07020200 	streq	r0, [r2, -r0, lsl #4]
    4c10:	000001f0 	strdeq	r0, [r0], -r0	; <UNPREDICTABLE>
    4c14:	99050402 	stmdbls	r5, {r1, sl}
    4c18:	02000000 	andeq	r0, r0, #0
    4c1c:	01510704 	cmpeq	r1, r4, lsl #14
    4c20:	08020000 	stmdaeq	r2, {}	; <UNPREDICTABLE>
    4c24:	00014c07 	andeq	r4, r1, r7, lsl #24
    4c28:	04100500 	ldreq	r0, [r0], #-1280	; 0xfffffb00
    4c2c:	2e030000 	cdpcs	0, 0, cr0, cr3, cr0, {0}
    4c30:	00006a0e 	andeq	r6, r0, lr, lsl #20
    4c34:	052f0500 	streq	r0, [pc, #-1280]!	; 473c <__data_load__+0x38dc>
    4c38:	74030000 	strvc	r0, [r3], #-0
    4c3c:	00006a0e 	andeq	r6, r0, lr, lsl #20
    4c40:	03040600 	movweq	r0, #17920	; 0x4600
    4c44:	00b903a5 	adcseq	r0, r9, r5, lsr #7
    4c48:	cf070000 	svcgt	0x00070000
    4c4c:	03000003 	movweq	r0, #3
    4c50:	00410ca7 	subeq	r0, r1, r7, lsr #25
    4c54:	81070000 	mrshi	r0, (UNDEF: 7)
    4c58:	03000003 	movweq	r0, #3
    4c5c:	00b913a8 	adcseq	r1, r9, r8, lsr #7
    4c60:	08000000 	stmdaeq	r0, {}	; <UNPREDICTABLE>
    4c64:	00000055 	andeq	r0, r0, r5, asr r0
    4c68:	000000c9 	andeq	r0, r0, r9, asr #1
    4c6c:	00002509 	andeq	r2, r0, r9, lsl #10
    4c70:	0a000300 	beq	5878 <__data_load__+0x4a18>
    4c74:	09a20308 	stmibeq	r2!, {r3, r8, r9}
    4c78:	000000ed 	andeq	r0, r0, sp, ror #1
    4c7c:	0005190b 	andeq	r1, r5, fp, lsl #18
    4c80:	07a40300 	streq	r0, [r4, r0, lsl #6]!
    4c84:	0000002c 	andeq	r0, r0, ip, lsr #32
    4c88:	05210b00 	streq	r0, [r1, #-2816]!	; 0xfffff500
    4c8c:	a9030000 	stmdbge	r3, {}	; <UNPREDICTABLE>
    4c90:	00009705 	andeq	r9, r0, r5, lsl #14
    4c94:	05000400 	streq	r0, [r0, #-1024]	; 0xfffffc00
    4c98:	000004a9 	andeq	r0, r0, r9, lsr #9
    4c9c:	c903aa03 	stmdbgt	r3, {r0, r1, r9, fp, sp, pc}
    4ca0:	0c000000 	stceq	0, cr0, [r0], {-0}
    4ca4:	05610504 	strbeq	r0, [r1, #-1284]!	; 0xfffffafc
    4ca8:	16040000 	strne	r0, [r4], -r0
    4cac:	00007119 	andeq	r7, r0, r9, lsl r1
    4cb0:	04320500 	ldrteq	r0, [r2], #-1280	; 0xfffffb00
    4cb4:	0c050000 	stceq	0, cr0, [r5], {-0}
    4cb8:	00002c0d 	andeq	r2, r0, sp, lsl #24
    4cbc:	03440500 	movteq	r0, #17664	; 0x4500
    4cc0:	23040000 	movwcs	r0, #16384	; 0x4000
    4cc4:	0001071b 	andeq	r0, r1, fp, lsl r7
    4cc8:	03550d00 	cmpeq	r5, #0, 26
    4ccc:	04180000 	ldreq	r0, [r8], #-0
    4cd0:	01790834 	cmneq	r9, r4, lsr r8
    4cd4:	ca0b0000 	bgt	2c4cdc <_bsl_base_address+0xc2cdc>
    4cd8:	04000004 	streq	r0, [r0], #-4
    4cdc:	01791336 	cmneq	r9, r6, lsr r3
    4ce0:	0e000000 	cdpeq	0, 0, cr0, cr0, cr0, {0}
    4ce4:	04006b5f 	streq	r6, [r0], #-2911	; 0xfffff4a1
    4ce8:	002c0737 	eoreq	r0, ip, r7, lsr r7
    4cec:	0b040000 	bleq	104cf4 <__data_load__+0x103e94>
    4cf0:	0000050b 	andeq	r0, r0, fp, lsl #10
    4cf4:	2c0b3704 	stccs	7, cr3, [fp], {4}
    4cf8:	08000000 	stmdaeq	r0, {}	; <UNPREDICTABLE>
    4cfc:	00033e0b 	andeq	r3, r3, fp, lsl #28
    4d00:	14370400 	ldrtne	r0, [r7], #-1024	; 0xfffffc00
    4d04:	0000002c 	andeq	r0, r0, ip, lsr #32
    4d08:	059b0b0c 	ldreq	r0, [fp, #2828]	; 0xb0c
    4d0c:	37040000 	strcc	r0, [r4, -r0]
    4d10:	00002c1b 	andeq	r2, r0, fp, lsl ip
    4d14:	5f0e1000 	svcpl	0x000e1000
    4d18:	38040078 	stmdacc	r4, {r3, r4, r5, r6}
    4d1c:	00017f0b 	andeq	r7, r1, fp, lsl #30
    4d20:	0f001400 	svceq	0x00001400
    4d24:	00011f04 	andeq	r1, r1, r4, lsl #30
    4d28:	00fb0800 	rscseq	r0, fp, r0, lsl #16
    4d2c:	018f0000 	orreq	r0, pc, r0
    4d30:	25090000 	strcs	r0, [r9, #-0]
    4d34:	00000000 	andeq	r0, r0, r0
    4d38:	037c0d00 	cmneq	ip, #0, 26
    4d3c:	04240000 	strteq	r0, [r4], #-0
    4d40:	0212083c 	andseq	r0, r2, #60, 16	; 0x3c0000
    4d44:	a10b0000 	mrsge	r0, (UNDEF: 11)
    4d48:	04000002 	streq	r0, [r0], #-2
    4d4c:	002c093e 	eoreq	r0, ip, lr, lsr r9
    4d50:	0b000000 	bleq	4d58 <__data_load__+0x3ef8>
    4d54:	00000537 	andeq	r0, r0, r7, lsr r5
    4d58:	2c093f04 	stccs	15, cr3, [r9], {4}
    4d5c:	04000000 	streq	r0, [r0], #-0
    4d60:	0002b60b 	andeq	fp, r2, fp, lsl #12
    4d64:	09400400 	stmdbeq	r0, {sl}^
    4d68:	0000002c 	andeq	r0, r0, ip, lsr #32
    4d6c:	060e0b08 	streq	r0, [lr], -r8, lsl #22
    4d70:	41040000 	mrsmi	r0, (UNDEF: 4)
    4d74:	00002c09 	andeq	r2, r0, r9, lsl #24
    4d78:	fc0b0c00 	stc2	12, cr0, [fp], {-0}
    4d7c:	04000003 	streq	r0, [r0], #-3
    4d80:	002c0942 	eoreq	r0, ip, r2, asr #18
    4d84:	0b100000 	bleq	404d8c <_bsl_base_address+0x202d8c>
    4d88:	000003eb 	andeq	r0, r0, fp, ror #7
    4d8c:	2c094304 	stccs	3, cr4, [r9], {4}
    4d90:	14000000 	strne	r0, [r0], #-0
    4d94:	0005a00b 	andeq	sl, r5, fp
    4d98:	09440400 	stmdbeq	r4, {sl}^
    4d9c:	0000002c 	andeq	r0, r0, ip, lsr #32
    4da0:	045f0b18 	ldrbeq	r0, [pc], #-2840	; 4da8 <__data_load__+0x3f48>
    4da4:	45040000 	strmi	r0, [r4, #-0]
    4da8:	00002c09 	andeq	r2, r0, r9, lsl #24
    4dac:	d50b1c00 	strle	r1, [fp, #-3072]	; 0xfffff400
    4db0:	04000005 	streq	r0, [r0], #-5
    4db4:	002c0946 	eoreq	r0, ip, r6, asr #18
    4db8:	00200000 	eoreq	r0, r0, r0
    4dbc:	0002c510 	andeq	ip, r2, r0, lsl r5
    4dc0:	04010800 	streq	r0, [r1], #-2048	; 0xfffff800
    4dc4:	0257084f 	subseq	r0, r7, #5177344	; 0x4f0000
    4dc8:	310b0000 	mrscc	r0, (UNDEF: 11)
    4dcc:	04000003 	streq	r0, [r0], #-3
    4dd0:	02570a50 	subseq	r0, r7, #80, 20	; 0x50000
    4dd4:	0b000000 	bleq	4ddc <__data_load__+0x3f7c>
    4dd8:	00000231 	andeq	r0, r0, r1, lsr r2
    4ddc:	57095104 	strpl	r5, [r9, -r4, lsl #2]
    4de0:	80000002 	andhi	r0, r0, r2
    4de4:	00055311 	andeq	r5, r5, r1, lsl r3
    4de8:	0a530400 	beq	14c5df0 <_bsl_base_address+0x12c3df0>
    4dec:	000000fb 	strdeq	r0, [r0], -fp
    4df0:	ea110100 	b	4451f8 <_bsl_base_address+0x2431f8>
    4df4:	04000002 	streq	r0, [r0], #-2
    4df8:	00fb0a56 	rscseq	r0, fp, r6, asr sl
    4dfc:	01040000 	mrseq	r0, (UNDEF: 4)
    4e00:	00f90800 	rscseq	r0, r9, r0, lsl #16
    4e04:	02670000 	rsbeq	r0, r7, #0
    4e08:	25090000 	strcs	r0, [r9, #-0]
    4e0c:	1f000000 	svcne	0x00000000
    4e10:	021d1000 	andseq	r1, sp, #0
    4e14:	01900000 	orrseq	r0, r0, r0
    4e18:	aa086204 	bge	21d630 <_bsl_base_address+0x1b630>
    4e1c:	0b000002 	bleq	4e2c <__data_load__+0x3fcc>
    4e20:	000004ca 	andeq	r0, r0, sl, asr #9
    4e24:	aa126304 	bge	49da3c <_bsl_base_address+0x29ba3c>
    4e28:	00000002 	andeq	r0, r0, r2
    4e2c:	0004db0b 	andeq	sp, r4, fp, lsl #22
    4e30:	06640400 	strbteq	r0, [r4], -r0, lsl #8
    4e34:	0000002c 	andeq	r0, r0, ip, lsr #32
    4e38:	03390b04 	teqeq	r9, #4, 22	; 0x1000
    4e3c:	66040000 	strvs	r0, [r4], -r0
    4e40:	0002b009 	andeq	fp, r2, r9
    4e44:	c50b0800 	strgt	r0, [fp, #-2048]	; 0xfffff800
    4e48:	04000002 	streq	r0, [r0], #-2
    4e4c:	02121e67 	andseq	r1, r2, #1648	; 0x670
    4e50:	00880000 	addeq	r0, r8, r0
    4e54:	0267040f 	rsbeq	r0, r7, #251658240	; 0xf000000
    4e58:	c0080000 	andgt	r0, r8, r0
    4e5c:	c0000002 	andgt	r0, r0, r2
    4e60:	09000002 	stmdbeq	r0, {r1}
    4e64:	00000025 	andeq	r0, r0, r5, lsr #32
    4e68:	040f001f 	streq	r0, [pc], #-31	; 4e70 <__data_load__+0x4010>
    4e6c:	000002c6 	andeq	r0, r0, r6, asr #5
    4e70:	04690d12 	strbteq	r0, [r9], #-3346	; 0xfffff2ee
    4e74:	04080000 	streq	r0, [r8], #-0
    4e78:	02ef087a 	rsceq	r0, pc, #7995392	; 0x7a0000
    4e7c:	650b0000 	strvs	r0, [fp, #-0]
    4e80:	0400000a 	streq	r0, [r0], #-10
    4e84:	02ef117b 	rsceq	r1, pc, #-1073741794	; 0xc000001e
    4e88:	0b000000 	bleq	4e90 <__data_load__+0x4030>
    4e8c:	00000928 	andeq	r0, r0, r8, lsr #18
    4e90:	2c067c04 	stccs	12, cr7, [r6], {4}
    4e94:	04000000 	streq	r0, [r0], #-0
    4e98:	55040f00 	strpl	r0, [r4, #-3840]	; 0xfffff100
    4e9c:	0d000000 	stceq	0, cr0, [r0, #-0]
    4ea0:	000004b4 			; <UNDEFINED> instruction: 0x000004b4
    4ea4:	08ba0468 	ldmeq	sl!, {r3, r5, r6, sl}
    4ea8:	00000438 	andeq	r0, r0, r8, lsr r4
    4eac:	00705f0e 	rsbseq	r5, r0, lr, lsl #30
    4eb0:	ef12bb04 	svc	0x0012bb04
    4eb4:	00000002 	andeq	r0, r0, r2
    4eb8:	00725f0e 	rsbseq	r5, r2, lr, lsl #30
    4ebc:	2c07bc04 	stccs	12, cr11, [r7], {4}
    4ec0:	04000000 	streq	r0, [r0], #-0
    4ec4:	00775f0e 	rsbseq	r5, r7, lr, lsl #30
    4ec8:	2c07bd04 	stccs	13, cr11, [r7], {4}
    4ecc:	08000000 	stmdaeq	r0, {}	; <UNPREDICTABLE>
    4ed0:	0002e30b 	andeq	lr, r2, fp, lsl #6
    4ed4:	09be0400 	ldmibeq	lr!, {sl}
    4ed8:	0000005c 	andeq	r0, r0, ip, asr r0
    4edc:	03980b0c 	orrseq	r0, r8, #12, 22	; 0x3000
    4ee0:	bf040000 	svclt	0x00040000
    4ee4:	00005c09 	andeq	r5, r0, r9, lsl #24
    4ee8:	5f0e0e00 	svcpl	0x000e0e00
    4eec:	04006662 	streq	r6, [r0], #-1634	; 0xfffff99e
    4ef0:	02c711c0 	sbceq	r1, r7, #192, 2	; 0x30
    4ef4:	0b100000 	bleq	404efc <_bsl_base_address+0x202efc>
    4ef8:	00000270 	andeq	r0, r0, r0, ror r2
    4efc:	2c07c104 	stfcsd	f4, [r7], {4}
    4f00:	18000000 	stmdane	r0, {}	; <UNPREDICTABLE>
    4f04:	0002d30b 	andeq	sp, r2, fp, lsl #6
    4f08:	0ac80400 	beq	ff205f10 <__stack+0xdf205638>
    4f0c:	000000f9 	strdeq	r0, [r0], -r9
    4f10:	036c0b1c 	cmneq	ip, #28, 22	; 0x7000
    4f14:	ca040000 	bgt	104f1c <__data_load__+0x1040bc>
    4f18:	0005bc1d 	andeq	fp, r5, sp, lsl ip
    4f1c:	e40b2000 	str	r2, [fp], #-0
    4f20:	04000003 	streq	r0, [r0], #-3
    4f24:	05e61dcc 	strbeq	r1, [r6, #3532]!	; 0xdcc
    4f28:	0b240000 	bleq	904f30 <_bsl_base_address+0x702f30>
    4f2c:	00000529 	andeq	r0, r0, r9, lsr #10
    4f30:	0a0dcf04 	beq	378b48 <_bsl_base_address+0x176b48>
    4f34:	28000006 	stmdacs	r0, {r1, r2}
    4f38:	0005ef0b 	andeq	lr, r5, fp, lsl #30
    4f3c:	09d00400 	ldmibeq	r0, {sl}^
    4f40:	00000624 	andeq	r0, r0, r4, lsr #12
    4f44:	755f0e2c 	ldrbvc	r0, [pc, #-3628]	; 4120 <__data_load__+0x32c0>
    4f48:	d3040062 	movwle	r0, #16482	; 0x4062
    4f4c:	0002c711 	andeq	ip, r2, r1, lsl r7
    4f50:	5f0e3000 	svcpl	0x000e3000
    4f54:	04007075 	streq	r7, [r0], #-117	; 0xffffff8b
    4f58:	02ef12d4 	rsceq	r1, pc, #212, 4	; 0x4000000d
    4f5c:	0e380000 	cdpeq	0, 3, cr0, cr8, cr0, {0}
    4f60:	0072755f 	rsbseq	r7, r2, pc, asr r5
    4f64:	2c07d504 	cfstr32cs	mvfx13, [r7], {4}
    4f68:	3c000000 	stccc	0, cr0, [r0], {-0}
    4f6c:	0002b00b 	andeq	fp, r2, fp
    4f70:	11d80400 	bicsne	r0, r8, r0, lsl #8
    4f74:	0000062a 	andeq	r0, r0, sl, lsr #12
    4f78:	05c70b40 	strbeq	r0, [r7, #2880]	; 0xb40
    4f7c:	d9040000 	stmdble	r4, {}	; <UNPREDICTABLE>
    4f80:	00063a11 	andeq	r3, r6, r1, lsl sl
    4f84:	5f0e4300 	svcpl	0x000e4300
    4f88:	0400626c 	streq	r6, [r0], #-620	; 0xfffffd94
    4f8c:	02c711dc 	sbceq	r1, r7, #220, 2	; 0x37
    4f90:	0b440000 	bleq	1104f98 <_bsl_base_address+0xf02f98>
    4f94:	000002f9 	strdeq	r0, [r0], -r9
    4f98:	2c07df04 	stccs	15, cr13, [r7], {4}
    4f9c:	4c000000 	stcmi	0, cr0, [r0], {-0}
    4fa0:	00030a0b 	andeq	r0, r3, fp, lsl #20
    4fa4:	0ae00400 	beq	ff805fac <__stack+0xdf8056d4>
    4fa8:	0000007f 	andeq	r0, r0, pc, ror r0
    4fac:	073a0b50 			; <UNDEFINED> instruction: 0x073a0b50
    4fb0:	e3040000 	movw	r0, #16384	; 0x4000
    4fb4:	00045612 	andeq	r5, r4, r2, lsl r6
    4fb8:	fd0b5400 	stc2	4, cr5, [fp, #-0]
    4fbc:	04000008 	streq	r0, [r0], #-8
    4fc0:	01130ce7 	tsteq	r3, r7, ror #25
    4fc4:	0b580000 	bleq	1604fcc <_bsl_base_address+0x1402fcc>
    4fc8:	000004bc 			; <UNDEFINED> instruction: 0x000004bc
    4fcc:	ed0ee904 	vstr.16	s28, [lr, #-8]
    4fd0:	5c000000 	stcpl	0, cr0, [r0], {-0}
    4fd4:	0003dc0b 	andeq	sp, r3, fp, lsl #24
    4fd8:	09ea0400 	stmibeq	sl!, {sl}^
    4fdc:	0000002c 	andeq	r0, r0, ip, lsr #32
    4fe0:	2c130064 	ldccs	0, cr0, [r3], {100}	; 0x64
    4fe4:	56000000 	strpl	r0, [r0], -r0
    4fe8:	14000004 	strne	r0, [r0], #-4
    4fec:	00000456 	andeq	r0, r0, r6, asr r4
    4ff0:	0000f914 	andeq	pc, r0, r4, lsl r9	; <UNPREDICTABLE>
    4ff4:	05aa1400 	streq	r1, [sl, #1024]!	; 0x400
    4ff8:	2c140000 	ldccs	0, cr0, [r4], {-0}
    4ffc:	00000000 	andeq	r0, r0, r0
    5000:	0461040f 	strbteq	r0, [r1], #-1039	; 0xfffffbf1
    5004:	56150000 	ldrpl	r0, [r5], -r0
    5008:	16000004 	strne	r0, [r0], -r4
    500c:	00000cab 	andeq	r0, r0, fp, lsr #25
    5010:	65040428 	strvs	r0, [r4, #-1064]	; 0xfffffbd8
    5014:	05aa0802 	streq	r0, [sl, #2050]!	; 0x802
    5018:	58170000 	ldmdapl	r7, {}	; <UNPREDICTABLE>
    501c:	04000004 	streq	r0, [r0], #-4
    5020:	2c070267 	sfmcs	f0, 4, [r7], {103}	; 0x67
    5024:	00000000 	andeq	r0, r0, r0
    5028:	0002f217 	andeq	pc, r2, r7, lsl r2	; <UNPREDICTABLE>
    502c:	026c0400 	rsbeq	r0, ip, #0, 8
    5030:	0006960b 	andeq	r9, r6, fp, lsl #12
    5034:	88170400 	ldmdahi	r7, {sl}
    5038:	04000003 	streq	r0, [r0], #-3
    503c:	9614026c 	ldrls	r0, [r4], -ip, ror #4
    5040:	08000006 	stmdaeq	r0, {r1, r2}
    5044:	00034d17 	andeq	r4, r3, r7, lsl sp
    5048:	026c0400 	rsbeq	r0, ip, #0, 8
    504c:	0006961e 	andeq	r9, r6, lr, lsl r6
    5050:	d6170c00 	ldrle	r0, [r7], -r0, lsl #24
    5054:	04000004 	streq	r0, [r0], #-4
    5058:	2c08026e 	sfmcs	f0, 4, [r8], {110}	; 0x6e
    505c:	10000000 	andne	r0, r0, r0
    5060:	00024517 	andeq	r4, r2, r7, lsl r5
    5064:	026f0400 	rsbeq	r0, pc, #0, 8
    5068:	00089608 	andeq	r9, r8, r8, lsl #12
    506c:	f2171400 	vshl.s16	d1, d0, d7
    5070:	04000004 	streq	r0, [r0], #-4
    5074:	2c070272 	sfmcs	f0, 4, [r7], {114}	; 0x72
    5078:	30000000 	andcc	r0, r0, r0
    507c:	0004e017 	andeq	lr, r4, r7, lsl r0
    5080:	02730400 	rsbseq	r0, r3, #0, 8
    5084:	0008ab16 	andeq	sl, r8, r6, lsl fp
    5088:	05173400 	ldreq	r3, [r7, #-1024]	; 0xfffffc00
    508c:	04000004 	streq	r0, [r0], #-4
    5090:	2c070275 	sfmcs	f0, 4, [r7], {117}	; 0x75
    5094:	38000000 	stmdacc	r0, {}	; <UNPREDICTABLE>
    5098:	0004e817 	andeq	lr, r4, r7, lsl r8
    509c:	02770400 	rsbseq	r0, r7, #0, 8
    50a0:	0008bc0a 	andeq	fp, r8, sl, lsl #24
    50a4:	c7173c00 	ldrgt	r3, [r7, -r0, lsl #24]
    50a8:	04000003 	streq	r0, [r0], #-3
    50ac:	7913027a 	ldmdbvc	r3, {r1, r3, r4, r5, r6, r9}
    50b0:	40000001 	andmi	r0, r0, r1
    50b4:	00037217 	andeq	r7, r3, r7, lsl r2
    50b8:	027b0400 	rsbseq	r0, fp, #0, 8
    50bc:	00002c07 	andeq	r2, r0, r7, lsl #24
    50c0:	09174400 	ldmdbeq	r7, {sl, lr}
    50c4:	04000006 	streq	r0, [r0], #-6
    50c8:	7913027c 	ldmdbvc	r3, {r2, r3, r4, r5, r6, r9}
    50cc:	48000001 	stmdami	r0, {r0}
    50d0:	00042817 	andeq	r2, r4, r7, lsl r8
    50d4:	027d0400 	rsbseq	r0, sp, #0, 8
    50d8:	0008c214 	andeq	ip, r8, r4, lsl r2
    50dc:	90174c00 	andsls	r4, r7, r0, lsl #24
    50e0:	04000003 	streq	r0, [r0], #-3
    50e4:	2c070280 	sfmcs	f0, 4, [r7], {128}	; 0x80
    50e8:	50000000 	andpl	r0, r0, r0
    50ec:	00030217 	andeq	r0, r3, r7, lsl r2
    50f0:	02810400 	addeq	r0, r1, #0, 8
    50f4:	0005aa09 	andeq	sl, r5, r9, lsl #20
    50f8:	51175400 	tstpl	r7, r0, lsl #8
    50fc:	04000004 	streq	r0, [r0], #-4
    5100:	710702a4 	smlatbvc	r7, r4, r2, r0
    5104:	58000008 	stmdapl	r0, {r3}
    5108:	00021d18 	andeq	r1, r2, r8, lsl sp
    510c:	02a80400 	adceq	r0, r8, #0, 8
    5110:	0002aa13 	andeq	sl, r2, r3, lsl sl
    5114:	18014800 	stmdane	r1, {fp, lr}
    5118:	000003a5 	andeq	r0, r0, r5, lsr #7
    511c:	1202a904 	andne	sl, r2, #4, 18	; 0x10000
    5120:	00000267 	andeq	r0, r0, r7, ror #4
    5124:	bd18014c 	ldflts	f0, [r8, #-304]	; 0xfffffed0
    5128:	04000005 	streq	r0, [r0], #-5
    512c:	d30c02ad 	movwle	r0, #49837	; 0xc2ad
    5130:	dc000008 	stcle	0, cr0, [r0], {8}
    5134:	02db1802 	sbcseq	r1, fp, #131072	; 0x20000
    5138:	b2040000 	andlt	r0, r4, #0
    513c:	06571002 	ldrbeq	r1, [r7], -r2
    5140:	02e00000 	rsceq	r0, r0, #0
    5144:	0002c018 	andeq	ip, r2, r8, lsl r0
    5148:	02b40400 	adcseq	r0, r4, #0, 8
    514c:	0008df0a 	andeq	sp, r8, sl, lsl #30
    5150:	0002ec00 	andeq	lr, r2, r0, lsl #24
    5154:	05b0040f 	ldreq	r0, [r0, #1039]!	; 0x40f
    5158:	01020000 	mrseq	r0, (UNDEF: 2)
    515c:	0000ba08 	andeq	fp, r0, r8, lsl #20
    5160:	05b01500 	ldreq	r1, [r0, #1280]!	; 0x500
    5164:	040f0000 	streq	r0, [pc], #-0	; 516c <__data_load__+0x430c>
    5168:	00000438 	andeq	r0, r0, r8, lsr r4
    516c:	00002c13 	andeq	r2, r0, r3, lsl ip
    5170:	0005e000 	andeq	lr, r5, r0
    5174:	04561400 	ldrbeq	r1, [r6], #-1024	; 0xfffffc00
    5178:	f9140000 			; <UNDEFINED> instruction: 0xf9140000
    517c:	14000000 	strne	r0, [r0], #-0
    5180:	000005e0 	andeq	r0, r0, r0, ror #11
    5184:	00002c14 	andeq	r2, r0, r4, lsl ip
    5188:	040f0000 	streq	r0, [pc], #-0	; 5190 <__data_load__+0x4330>
    518c:	000005b7 			; <UNDEFINED> instruction: 0x000005b7
    5190:	05c2040f 	strbeq	r0, [r2, #1039]	; 0x40f
    5194:	8b130000 	blhi	4c519c <_bsl_base_address+0x2c319c>
    5198:	0a000000 	beq	51a0 <__data_load__+0x4340>
    519c:	14000006 	strne	r0, [r0], #-6
    51a0:	00000456 	andeq	r0, r0, r6, asr r4
    51a4:	0000f914 	andeq	pc, r0, r4, lsl r9	; <UNPREDICTABLE>
    51a8:	008b1400 	addeq	r1, fp, r0, lsl #8
    51ac:	2c140000 	ldccs	0, cr0, [r4], {-0}
    51b0:	00000000 	andeq	r0, r0, r0
    51b4:	05ec040f 	strbeq	r0, [ip, #1039]!	; 0x40f
    51b8:	2c130000 	ldccs	0, cr0, [r3], {-0}
    51bc:	24000000 	strcs	r0, [r0], #-0
    51c0:	14000006 	strne	r0, [r0], #-6
    51c4:	00000456 	andeq	r0, r0, r6, asr r4
    51c8:	0000f914 	andeq	pc, r0, r4, lsl r9	; <UNPREDICTABLE>
    51cc:	040f0000 	streq	r0, [pc], #-0	; 51d4 <__data_load__+0x4374>
    51d0:	00000610 	andeq	r0, r0, r0, lsl r6
    51d4:	00005508 	andeq	r5, r0, r8, lsl #10
    51d8:	00063a00 	andeq	r3, r6, r0, lsl #20
    51dc:	00250900 	eoreq	r0, r5, r0, lsl #18
    51e0:	00020000 	andeq	r0, r2, r0
    51e4:	00005508 	andeq	r5, r0, r8, lsl #10
    51e8:	00064a00 	andeq	r4, r6, r0, lsl #20
    51ec:	00250900 	eoreq	r0, r5, r0, lsl #18
    51f0:	00000000 	andeq	r0, r0, r0
    51f4:	0004a204 	andeq	sl, r4, r4, lsl #4
    51f8:	01240400 			; <UNDEFINED> instruction: 0x01240400
    51fc:	0002f51a 	andeq	pc, r2, sl, lsl r5	; <UNPREDICTABLE>
    5200:	0cc11900 			; <UNDEFINED> instruction: 0x0cc11900
    5204:	040c0000 	streq	r0, [ip], #-0
    5208:	90080128 	andls	r0, r8, r8, lsr #2
    520c:	17000006 	strne	r0, [r0, -r6]
    5210:	000004ca 	andeq	r0, r0, sl, asr #9
    5214:	11012a04 	tstne	r1, r4, lsl #20
    5218:	00000690 	muleq	r0, r0, r6
    521c:	039e1700 	orrseq	r1, lr, #0, 14
    5220:	2b040000 	blcs	105228 <__data_load__+0x1043c8>
    5224:	002c0701 	eoreq	r0, ip, r1, lsl #14
    5228:	17040000 	strne	r0, [r4, -r0]
    522c:	000004d0 	ldrdeq	r0, [r0], -r0	; <UNPREDICTABLE>
    5230:	0b012c04 	bleq	50248 <__data_load__+0x4f3e8>
    5234:	00000696 	muleq	r0, r6, r6
    5238:	040f0008 	streq	r0, [pc], #-8	; 5240 <__data_load__+0x43e0>
    523c:	00000657 	andeq	r0, r0, r7, asr r6
    5240:	064a040f 	strbeq	r0, [sl], -pc, lsl #8
    5244:	3d190000 	ldccc	0, cr0, [r9, #-0]
    5248:	0e000002 	cdpeq	0, 0, cr0, cr0, cr2, {0}
    524c:	08014404 	stmdaeq	r1, {r2, sl, lr}
    5250:	000006d5 	ldrdeq	r0, [r0], -r5
    5254:	00051317 	andeq	r1, r5, r7, lsl r3
    5258:	01450400 	cmpeq	r5, r0, lsl #8
    525c:	0006d512 	andeq	sp, r6, r2, lsl r5
    5260:	40170000 	andsmi	r0, r7, r0
    5264:	04000005 	streq	r0, [r0], #-5
    5268:	d5120146 	ldrle	r0, [r2, #-326]	; 0xfffffeba
    526c:	06000006 	streq	r0, [r0], -r6
    5270:	00055c17 	andeq	r5, r5, r7, lsl ip
    5274:	01470400 	cmpeq	r7, r0, lsl #8
    5278:	00006312 	andeq	r6, r0, r2, lsl r3
    527c:	08000c00 	stmdaeq	r0, {sl, fp}
    5280:	00000063 	andeq	r0, r0, r3, rrx
    5284:	000006e5 	andeq	r0, r0, r5, ror #13
    5288:	00002509 	andeq	r2, r0, r9, lsl #10
    528c:	1a000200 	bne	5a94 <__data_load__+0x4c34>
    5290:	028504d0 	addeq	r0, r5, #208, 8	; 0xd0000000
    5294:	0007fa07 	andeq	pc, r7, r7, lsl #20
    5298:	058e1700 	streq	r1, [lr, #1792]	; 0x700
    529c:	87040000 	strhi	r0, [r4, -r0]
    52a0:	00251802 	eoreq	r1, r5, r2, lsl #16
    52a4:	17000000 	strne	r0, [r0, -r0]
    52a8:	00000546 	andeq	r0, r0, r6, asr #10
    52ac:	12028804 	andne	r8, r2, #4, 16	; 0x40000
    52b0:	000005aa 	andeq	r0, r0, sl, lsr #11
    52b4:	03ba1704 			; <UNDEFINED> instruction: 0x03ba1704
    52b8:	89040000 	stmdbhi	r4, {}	; <UNPREDICTABLE>
    52bc:	07fa1002 	ldrbeq	r1, [sl, r2]!
    52c0:	17080000 	strne	r0, [r8, -r0]
    52c4:	000005e0 	andeq	r0, r0, r0, ror #11
    52c8:	17028a04 	strne	r8, [r2, -r4, lsl #20]
    52cc:	0000018f 	andeq	r0, r0, pc, lsl #3
    52d0:	035d1724 	cmpeq	sp, #36, 14	; 0x900000
    52d4:	8b040000 	blhi	1052dc <__data_load__+0x10447c>
    52d8:	002c0f02 	eoreq	r0, ip, r2, lsl #30
    52dc:	17480000 	strbne	r0, [r8, -r0]
    52e0:	000004c5 	andeq	r0, r0, r5, asr #9
    52e4:	2c028c04 	stccs	12, cr8, [r2], {4}
    52e8:	00000078 	andeq	r0, r0, r8, ror r0
    52ec:	05f61750 	ldrbeq	r1, [r6, #1872]!	; 0x750
    52f0:	8d040000 	stchi	0, cr0, [r4, #-0]
    52f4:	069c1a02 	ldreq	r1, [ip], r2, lsl #20
    52f8:	17580000 	ldrbne	r0, [r8, -r0]
    52fc:	00000444 	andeq	r0, r0, r4, asr #8
    5300:	16028e04 	strne	r8, [r2], -r4, lsl #28
    5304:	000000ed 	andeq	r0, r0, sp, ror #1
    5308:	05fb1768 	ldrbeq	r1, [fp, #1896]!	; 0x768
    530c:	8f040000 	svchi	0x00040000
    5310:	00ed1602 	rsceq	r1, sp, r2, lsl #12
    5314:	17700000 	ldrbne	r0, [r0, -r0]!
    5318:	00000293 	muleq	r0, r3, r2
    531c:	16029004 	strne	r9, [r2], -r4
    5320:	000000ed 	andeq	r0, r0, sp, ror #1
    5324:	05b31778 	ldreq	r1, [r3, #1912]!	; 0x778
    5328:	91040000 	mrsls	r0, (UNDEF: 4)
    532c:	080a1002 	stmdaeq	sl, {r1, ip}
    5330:	17800000 	strne	r0, [r0, r0]
    5334:	000003ae 	andeq	r0, r0, lr, lsr #7
    5338:	10029204 	andne	r9, r2, r4, lsl #4
    533c:	0000081a 	andeq	r0, r0, sl, lsl r8
    5340:	05691788 	strbeq	r1, [r9, #-1928]!	; 0xfffff878
    5344:	93040000 	movwls	r0, #16384	; 0x4000
    5348:	002c0f02 	eoreq	r0, ip, r2, lsl #30
    534c:	17a00000 	strne	r0, [r0, r0]!
    5350:	00000323 	andeq	r0, r0, r3, lsr #6
    5354:	16029404 	strne	r9, [r2], -r4, lsl #8
    5358:	000000ed 	andeq	r0, r0, sp, ror #1
    535c:	028417a4 	addeq	r1, r4, #164, 14	; 0x2900000
    5360:	95040000 	strls	r0, [r4, #-0]
    5364:	00ed1602 	rsceq	r1, sp, r2, lsl #12
    5368:	17ac0000 	strne	r0, [ip, r0]!
    536c:	00000312 	andeq	r0, r0, r2, lsl r3
    5370:	16029604 	strne	r9, [r2], -r4, lsl #12
    5374:	000000ed 	andeq	r0, r0, sp, ror #1
    5378:	025017b4 	subseq	r1, r0, #180, 14	; 0x2d00000
    537c:	97040000 	strls	r0, [r4, -r0]
    5380:	00ed1602 	rsceq	r1, sp, r2, lsl #12
    5384:	17bc0000 	ldrne	r0, [ip, r0]!
    5388:	0000025f 	andeq	r0, r0, pc, asr r2
    538c:	16029804 	strne	r9, [r2], -r4, lsl #16
    5390:	000000ed 	andeq	r0, r0, sp, ror #1
    5394:	045617c4 	ldrbeq	r1, [r6], #-1988	; 0xfffff83c
    5398:	99040000 	stmdbls	r4, {}	; <UNPREDICTABLE>
    539c:	002c0802 	eoreq	r0, ip, r2, lsl #16
    53a0:	00cc0000 	sbceq	r0, ip, r0
    53a4:	0005b008 	andeq	fp, r5, r8
    53a8:	00080a00 	andeq	r0, r8, r0, lsl #20
    53ac:	00250900 	eoreq	r0, r5, r0, lsl #18
    53b0:	00190000 	andseq	r0, r9, r0
    53b4:	0005b008 	andeq	fp, r5, r8
    53b8:	00081a00 	andeq	r1, r8, r0, lsl #20
    53bc:	00250900 	eoreq	r0, r5, r0, lsl #18
    53c0:	00070000 	andeq	r0, r7, r0
    53c4:	0005b008 	andeq	fp, r5, r8
    53c8:	00082a00 	andeq	r2, r8, r0, lsl #20
    53cc:	00250900 	eoreq	r0, r5, r0, lsl #18
    53d0:	00170000 	andseq	r0, r7, r0
    53d4:	9e04f01a 	mcrls	0, 0, pc, cr4, cr10, {0}	; <UNPREDICTABLE>
    53d8:	08510702 	ldmdaeq	r1, {r1, r8, r9, sl}^
    53dc:	f5170000 			; <UNDEFINED> instruction: 0xf5170000
    53e0:	04000003 	streq	r0, [r0], #-3
    53e4:	511b02a1 	tstpl	fp, r1, lsr #5
    53e8:	00000008 	andeq	r0, r0, r8
    53ec:	0005aa17 	andeq	sl, r5, r7, lsl sl
    53f0:	02a20400 	adceq	r0, r2, #0, 8
    53f4:	00086118 	andeq	r6, r8, r8, lsl r1
    53f8:	08007800 	stmdaeq	r0, {fp, ip, sp, lr}
    53fc:	000002ef 	andeq	r0, r0, pc, ror #5
    5400:	00000861 	andeq	r0, r0, r1, ror #16
    5404:	00002509 	andeq	r2, r0, r9, lsl #10
    5408:	08001d00 	stmdaeq	r0, {r8, sl, fp, ip}
    540c:	00000025 	andeq	r0, r0, r5, lsr #32
    5410:	00000871 	andeq	r0, r0, r1, ror r8
    5414:	00002509 	andeq	r2, r0, r9, lsl #10
    5418:	1b001d00 	blne	c820 <__data_load__+0xb9c0>
    541c:	028304f0 	addeq	r0, r3, #240, 8	; 0xf0000000
    5420:	00089603 	andeq	r9, r8, r3, lsl #12
    5424:	0cab1c00 	stceq	12, cr1, [fp]
    5428:	9a040000 	bls	105430 <__data_load__+0x1045d0>
    542c:	06e50b02 	strbteq	r0, [r5], r2, lsl #22
    5430:	cd1c0000 	ldcgt	0, cr0, [ip, #-0]
    5434:	04000005 	streq	r0, [r0], #-5
    5438:	2a0b02a3 	bcs	2c5ecc <_bsl_base_address+0xc3ecc>
    543c:	00000008 	andeq	r0, r0, r8
    5440:	0005b008 	andeq	fp, r5, r8
    5444:	0008a600 	andeq	sl, r8, r0, lsl #12
    5448:	00250900 	eoreq	r0, r5, r0, lsl #18
    544c:	00180000 	andseq	r0, r8, r0
    5450:	0002791d 	andeq	r7, r2, sp, lsl r9
    5454:	a6040f00 	strge	r0, [r4], -r0, lsl #30
    5458:	1e000008 	cdpne	0, 0, cr0, cr0, cr8, {0}
    545c:	000008bc 			; <UNDEFINED> instruction: 0x000008bc
    5460:	00045614 	andeq	r5, r4, r4, lsl r6
    5464:	040f0000 	streq	r0, [pc], #-0	; 546c <__data_load__+0x460c>
    5468:	000008b1 			; <UNDEFINED> instruction: 0x000008b1
    546c:	0179040f 	cmneq	r9, pc, lsl #8
    5470:	d31e0000 	tstle	lr, #0
    5474:	14000008 	strne	r0, [r0], #-8
    5478:	0000002c 	andeq	r0, r0, ip, lsr #32
    547c:	d9040f00 	stmdble	r4, {r8, r9, sl, fp}
    5480:	0f000008 	svceq	0x00000008
    5484:	0008c804 	andeq	ip, r8, r4, lsl #16
    5488:	064a0800 	strbeq	r0, [sl], -r0, lsl #16
    548c:	08ef0000 	stmiaeq	pc!, {}^	; <UNPREDICTABLE>
    5490:	25090000 	strcs	r0, [r9, #-0]
    5494:	02000000 	andeq	r0, r0, #0
    5498:	05761f00 	ldrbeq	r1, [r6, #-3840]!	; 0xfffff100
    549c:	34040000 	strcc	r0, [r4], #-0
    54a0:	045c1d03 	ldrbeq	r1, [ip], #-3331	; 0xfffff2fd
    54a4:	56200000 	strtpl	r0, [r0], -r0
    54a8:	0100000c 	tsteq	r0, ip
    54ac:	002c0111 	eoreq	r0, ip, r1, lsl r1
    54b0:	21000000 	mrscs	r0, (UNDEF: 0)
    54b4:	00000bf3 	strdeq	r0, [r0], -r3
    54b8:	b00d2801 	andlt	r2, sp, r1, lsl #16
    54bc:	22000005 	andcs	r0, r0, #5
    54c0:	00000417 	andeq	r0, r0, r7, lsl r4
    54c4:	68014601 	stmdavs	r1, {r0, r9, sl, lr}
    54c8:	e0000009 	and	r0, r0, r9
    54cc:	01000000 	mrseq	r0, (UNDEF: 0)
    54d0:	0009f29c 	muleq	r9, ip, r2
    54d4:	05892300 	streq	r2, [r9, #768]	; 0x300
    54d8:	46010000 	strmi	r0, [r1], -r0
    54dc:	00002c17 	andeq	r2, r0, r7, lsl ip
    54e0:	00150a00 	andseq	r0, r5, r0, lsl #20
    54e4:	00150600 	andseq	r0, r5, r0, lsl #12
    54e8:	00642400 	rsbeq	r2, r4, r0, lsl #8
    54ec:	f9234601 			; <UNDEFINED> instruction: 0xf9234601
    54f0:	35000000 	strcc	r0, [r0, #-0]
    54f4:	29000015 	stmdbcs	r0, {r0, r2, r4}
    54f8:	25000015 	strcs	r0, [r0, #-21]	; 0xffffffeb
    54fc:	48010070 	stmdami	r1, {r4, r5, r6}
    5500:	0002aa1c 	andeq	sl, r2, ip, lsl sl
    5504:	00158a00 	andseq	r8, r5, r0, lsl #20
    5508:	00158200 	andseq	r8, r5, r0, lsl #4
    550c:	0bff2600 	bleq	fffced14 <__stack+0xdffce43c>
    5510:	49010000 	stmdbmi	r1, {}	; <UNPREDICTABLE>
    5514:	0009f214 	andeq	pc, r9, r4, lsl r2	; <UNPREDICTABLE>
    5518:	0015c900 	andseq	ip, r5, r0, lsl #18
    551c:	0015c300 	andseq	ip, r5, r0, lsl #6
    5520:	02ce2600 	sbceq	r2, lr, #0, 12
    5524:	4a010000 	bmi	4552c <__data_load__+0x446cc>
    5528:	0009f823 	andeq	pc, r9, r3, lsr #16
    552c:	00160a00 	andseq	r0, r6, r0, lsl #20
    5530:	00160400 	andseq	r0, r6, r0, lsl #8
    5534:	006e2500 	rsbeq	r2, lr, r0, lsl #10
    5538:	2c104b01 			; <UNDEFINED> instruction: 0x2c104b01
    553c:	46000000 	strmi	r0, [r0], -r0
    5540:	3c000016 	stccc	0, cr0, [r0], {22}
    5544:	25000016 	strcs	r0, [r0, #-22]	; 0xffffffea
    5548:	4c010069 	stcmi	0, cr0, [r1], {105}	; 0x69
    554c:	00002c07 	andeq	r2, r0, r7, lsl #24
    5550:	00168f00 	andseq	r8, r6, r0, lsl #30
    5554:	00168900 	andseq	r8, r6, r0, lsl #18
    5558:	6e662500 	cdpvs	5, 6, cr2, cr6, cr0, {0}
    555c:	0a4d0100 	beq	1345964 <_bsl_base_address+0x1143964>
    5560:	000002c0 	andeq	r0, r0, r0, asr #5
    5564:	000016ca 	andeq	r1, r0, sl, asr #13
    5568:	000016c4 	andeq	r1, r0, r4, asr #13
    556c:	000c0527 	andeq	r0, ip, r7, lsr #10
    5570:	02540100 	subseq	r0, r4, #0, 2
    5574:	00005028 	andeq	r5, r0, r8, lsr #32
    5578:	6e692500 	cdpvs	5, 6, cr2, cr9, cr0, {0}
    557c:	61010064 	tstvs	r1, r4, rrx
    5580:	00002c08 	andeq	r2, r0, r8, lsl #24
    5584:	0016fb00 	andseq	pc, r6, r0, lsl #22
    5588:	0016f300 	andseq	pc, r6, r0, lsl #6
    558c:	0a282900 	beq	a0f994 <_bsl_base_address+0x80d994>
    5590:	012a0000 			; <UNDEFINED> instruction: 0x012a0000
    5594:	54910350 	ldrpl	r0, [r1], #848	; 0x350
    5598:	00000006 	andeq	r0, r0, r6
    559c:	02aa040f 	adceq	r0, sl, #251658240	; 0xf000000
    55a0:	040f0000 	streq	r0, [pc], #-0	; 55a8 <__data_load__+0x4748>
    55a4:	00000212 	andeq	r0, r0, r2, lsl r2
    55a8:	000c0d2b 	andeq	r0, ip, fp, lsr #26
    55ac:	01310100 	teqeq	r1, r0, lsl #2
    55b0:	00000db8 			; <UNDEFINED> instruction: 0x00000db8
    55b4:	00000018 	andeq	r0, r0, r8, lsl r0
    55b8:	0a309c01 	beq	c2c5c4 <_bsl_base_address+0xa2a5c4>
    55bc:	c02c0000 	eorgt	r0, ip, r0
    55c0:	0600000d 	streq	r0, [r0], -sp
    55c4:	2d000000 	stccs	0, cr0, [r0, #-0]
    55c8:	00000673 	andeq	r0, r0, r3, ror r6
    55cc:	2e113501 	cfmul32cs	mvfx3, mvfx1, mvfx1
    55d0:	00000dc6 	andeq	r0, r0, r6, asr #27
    55d4:	00000a30 	andeq	r0, r0, r0, lsr sl
    55d8:	1e2f0000 	cdpne	0, 2, cr0, cr15, cr0, {0}
    55dc:	1e000002 	cdpne	0, 0, cr0, cr0, cr2, {0}
    55e0:	06000002 	streq	r0, [r0], -r2
    55e4:	e100054c 	tst	r0, ip, asr #10
    55e8:	0400000c 	streq	r0, [r0], #-12
    55ec:	00150300 	andseq	r0, r5, r0, lsl #6
    55f0:	6c010400 	cfstrsvs	mvf0, [r1], {-0}
    55f4:	0c000001 	stceq	0, cr0, [r0], {1}
    55f8:	000009e9 	andeq	r0, r0, r9, ror #19
    55fc:	000000f3 	strdeq	r0, [r0], -r3
    5600:	00000a48 	andeq	r0, r0, r8, asr #20
    5604:	00000260 	andeq	r0, r0, r0, ror #4
    5608:	000018f1 	strdeq	r1, [r0], -r1	; <UNPREDICTABLE>
    560c:	69050402 	stmdbvs	r5, {r1, sl}
    5610:	0300746e 	movweq	r7, #1134	; 0x46e
    5614:	00000618 	andeq	r0, r0, r8, lsl r6
    5618:	3817d102 	ldmdacc	r7, {r1, r8, ip, lr, pc}
    561c:	04000000 	streq	r0, [r0], #-0
    5620:	01560704 	cmpeq	r6, r4, lsl #14
    5624:	08040000 	stmdaeq	r4, {}	; <UNPREDICTABLE>
    5628:	00009405 	andeq	r9, r0, r5, lsl #8
    562c:	04080400 	streq	r0, [r8], #-1024	; 0xfffffc00
    5630:	00000203 	andeq	r0, r0, r3, lsl #4
    5634:	b3060104 	movwlt	r0, #24836	; 0x6104
    5638:	04000000 	streq	r0, [r0], #-0
    563c:	00b10801 	adcseq	r0, r1, r1, lsl #16
    5640:	02040000 	andeq	r0, r4, #0
    5644:	00020f05 	andeq	r0, r2, r5, lsl #30
    5648:	07020400 	streq	r0, [r2, -r0, lsl #8]
    564c:	000001f0 	strdeq	r0, [r0], -r0	; <UNPREDICTABLE>
    5650:	99050404 	stmdbls	r5, {r2, sl}
    5654:	04000000 	streq	r0, [r0], #-0
    5658:	01510704 	cmpeq	r1, r4, lsl #14
    565c:	08040000 	stmdaeq	r4, {}	; <UNPREDICTABLE>
    5660:	00014c07 	andeq	r4, r1, r7, lsl #24
    5664:	06040500 	streq	r0, [r4], -r0, lsl #10
    5668:	000003d5 	ldrdeq	r0, [r0], -r5
    566c:	17015e02 	strne	r5, [r1, -r2, lsl #28]
    5670:	00000038 	andeq	r0, r0, r8, lsr r0
    5674:	00041003 	andeq	r1, r4, r3
    5678:	0e2e0300 	cdpeq	3, 2, cr0, cr14, cr0, {0}
    567c:	00000069 	andeq	r0, r0, r9, rrx
    5680:	00052f03 	andeq	r2, r5, r3, lsl #30
    5684:	0e740300 	cdpeq	3, 7, cr0, cr4, cr0, {0}
    5688:	00000069 	andeq	r0, r0, r9, rrx
    568c:	a5030407 	strge	r0, [r3, #-1031]	; 0xfffffbf9
    5690:	0000c703 	andeq	ip, r0, r3, lsl #14
    5694:	03cf0800 	biceq	r0, pc, #0, 16
    5698:	a7030000 	strge	r0, [r3, -r0]
    569c:	0000800c 	andeq	r8, r0, ip
    56a0:	03810800 	orreq	r0, r1, #0, 16
    56a4:	a8030000 	stmdage	r3, {}	; <UNPREDICTABLE>
    56a8:	0000c713 	andeq	ip, r0, r3, lsl r7
    56ac:	54090000 	strpl	r0, [r9], #-0
    56b0:	d7000000 	strle	r0, [r0, -r0]
    56b4:	0a000000 	beq	56bc <__data_load__+0x485c>
    56b8:	00000038 	andeq	r0, r0, r8, lsr r0
    56bc:	080b0003 	stmdaeq	fp, {r0, r1}
    56c0:	fb09a203 	blx	26ded6 <_bsl_base_address+0x6bed6>
    56c4:	0c000000 	stceq	0, cr0, [r0], {-0}
    56c8:	00000519 	andeq	r0, r0, r9, lsl r5
    56cc:	2507a403 	strcs	sl, [r7, #-1027]	; 0xfffffbfd
    56d0:	00000000 	andeq	r0, r0, r0
    56d4:	0005210c 	andeq	r2, r5, ip, lsl #2
    56d8:	05a90300 	streq	r0, [r9, #768]!	; 0x300
    56dc:	000000a5 	andeq	r0, r0, r5, lsr #1
    56e0:	a9030004 	stmdbge	r3, {r2}
    56e4:	03000004 	movweq	r0, #4
    56e8:	00d703aa 	sbcseq	r0, r7, sl, lsr #7
    56ec:	61030000 	mrsvs	r0, (UNDEF: 3)
    56f0:	04000005 	streq	r0, [r0], #-5
    56f4:	00701916 	rsbseq	r1, r0, r6, lsl r9
    56f8:	32030000 	andcc	r0, r3, #0
    56fc:	05000004 	streq	r0, [r0, #-4]
    5700:	00250d0c 	eoreq	r0, r5, ip, lsl #26
    5704:	44030000 	strmi	r0, [r3], #-0
    5708:	04000003 	streq	r0, [r0], #-3
    570c:	01131b23 	tsteq	r3, r3, lsr #22
    5710:	550d0000 	strpl	r0, [sp, #-0]
    5714:	18000003 	stmdane	r0, {r0, r1}
    5718:	85083404 	strhi	r3, [r8, #-1028]	; 0xfffffbfc
    571c:	0c000001 	stceq	0, cr0, [r0], {1}
    5720:	000004ca 	andeq	r0, r0, sl, asr #9
    5724:	85133604 	ldrhi	r3, [r3, #-1540]	; 0xfffff9fc
    5728:	00000001 	andeq	r0, r0, r1
    572c:	006b5f0e 	rsbeq	r5, fp, lr, lsl #30
    5730:	25073704 	strcs	r3, [r7, #-1796]	; 0xfffff8fc
    5734:	04000000 	streq	r0, [r0], #-0
    5738:	00050b0c 	andeq	r0, r5, ip, lsl #22
    573c:	0b370400 	bleq	dc6744 <_bsl_base_address+0xbc4744>
    5740:	00000025 	andeq	r0, r0, r5, lsr #32
    5744:	033e0c08 	teqeq	lr, #8, 24	; 0x800
    5748:	37040000 	strcc	r0, [r4, -r0]
    574c:	00002514 	andeq	r2, r0, r4, lsl r5
    5750:	9b0c0c00 	blls	308758 <_bsl_base_address+0x106758>
    5754:	04000005 	streq	r0, [r0], #-5
    5758:	00251b37 	eoreq	r1, r5, r7, lsr fp
    575c:	0e100000 	cdpeq	0, 1, cr0, cr0, cr0, {0}
    5760:	0400785f 	streq	r7, [r0], #-2143	; 0xfffff7a1
    5764:	018b0b38 	orreq	r0, fp, r8, lsr fp
    5768:	00140000 	andseq	r0, r4, r0
    576c:	012b040f 			; <UNDEFINED> instruction: 0x012b040f
    5770:	07090000 	streq	r0, [r9, -r0]
    5774:	9b000001 	blls	5780 <__data_load__+0x4920>
    5778:	0a000001 	beq	5784 <__data_load__+0x4924>
    577c:	00000038 	andeq	r0, r0, r8, lsr r0
    5780:	7c0d0000 	stcvc	0, cr0, [sp], {-0}
    5784:	24000003 	strcs	r0, [r0], #-3
    5788:	1e083c04 	cdpne	12, 0, cr3, cr8, cr4, {0}
    578c:	0c000002 	stceq	0, cr0, [r0], {2}
    5790:	000002a1 	andeq	r0, r0, r1, lsr #5
    5794:	25093e04 	strcs	r3, [r9, #-3588]	; 0xfffff1fc
    5798:	00000000 	andeq	r0, r0, r0
    579c:	0005370c 	andeq	r3, r5, ip, lsl #14
    57a0:	093f0400 	ldmdbeq	pc!, {sl}	; <UNPREDICTABLE>
    57a4:	00000025 	andeq	r0, r0, r5, lsr #32
    57a8:	02b60c04 	adcseq	r0, r6, #4, 24	; 0x400
    57ac:	40040000 	andmi	r0, r4, r0
    57b0:	00002509 	andeq	r2, r0, r9, lsl #10
    57b4:	0e0c0800 	cdpeq	8, 0, cr0, cr12, cr0, {0}
    57b8:	04000006 	streq	r0, [r0], #-6
    57bc:	00250941 	eoreq	r0, r5, r1, asr #18
    57c0:	0c0c0000 	stceq	0, cr0, [ip], {-0}
    57c4:	000003fc 	strdeq	r0, [r0], -ip
    57c8:	25094204 	strcs	r4, [r9, #-516]	; 0xfffffdfc
    57cc:	10000000 	andne	r0, r0, r0
    57d0:	0003eb0c 	andeq	lr, r3, ip, lsl #22
    57d4:	09430400 	stmdbeq	r3, {sl}^
    57d8:	00000025 	andeq	r0, r0, r5, lsr #32
    57dc:	05a00c14 	streq	r0, [r0, #3092]!	; 0xc14
    57e0:	44040000 	strmi	r0, [r4], #-0
    57e4:	00002509 	andeq	r2, r0, r9, lsl #10
    57e8:	5f0c1800 	svcpl	0x000c1800
    57ec:	04000004 	streq	r0, [r0], #-4
    57f0:	00250945 	eoreq	r0, r5, r5, asr #18
    57f4:	0c1c0000 	ldceq	0, cr0, [ip], {-0}
    57f8:	000005d5 	ldrdeq	r0, [r0], -r5
    57fc:	25094604 	strcs	r4, [r9, #-1540]	; 0xfffff9fc
    5800:	20000000 	andcs	r0, r0, r0
    5804:	02c51000 	sbceq	r1, r5, #0
    5808:	01080000 	mrseq	r0, (UNDEF: 8)
    580c:	63084f04 	movwvs	r4, #36612	; 0x8f04
    5810:	0c000002 	stceq	0, cr0, [r0], {2}
    5814:	00000331 	andeq	r0, r0, r1, lsr r3
    5818:	630a5004 	movwvs	r5, #40964	; 0xa004
    581c:	00000002 	andeq	r0, r0, r2
    5820:	0002310c 	andeq	r3, r2, ip, lsl #2
    5824:	09510400 	ldmdbeq	r1, {sl}^
    5828:	00000263 	andeq	r0, r0, r3, ror #4
    582c:	05531180 	ldrbeq	r1, [r3, #-384]	; 0xfffffe80
    5830:	53040000 	movwpl	r0, #16384	; 0x4000
    5834:	0001070a 	andeq	r0, r1, sl, lsl #14
    5838:	11010000 	mrsne	r0, (UNDEF: 1)
    583c:	000002ea 	andeq	r0, r0, sl, ror #5
    5840:	070a5604 	streq	r5, [sl, -r4, lsl #12]
    5844:	04000001 	streq	r0, [r0], #-1
    5848:	7e090001 	cdpvc	0, 0, cr0, cr9, cr1, {0}
    584c:	73000000 	movwvc	r0, #0
    5850:	0a000002 	beq	5860 <__data_load__+0x4a00>
    5854:	00000038 	andeq	r0, r0, r8, lsr r0
    5858:	1d10001f 	ldcne	0, cr0, [r0, #-124]	; 0xffffff84
    585c:	90000002 	andls	r0, r0, r2
    5860:	08620401 	stmdaeq	r2!, {r0, sl}^
    5864:	000002b6 			; <UNDEFINED> instruction: 0x000002b6
    5868:	0004ca0c 	andeq	ip, r4, ip, lsl #20
    586c:	12630400 	rsbne	r0, r3, #0, 8
    5870:	000002b6 			; <UNDEFINED> instruction: 0x000002b6
    5874:	04db0c00 	ldrbeq	r0, [fp], #3072	; 0xc00
    5878:	64040000 	strvs	r0, [r4], #-0
    587c:	00002506 	andeq	r2, r0, r6, lsl #10
    5880:	390c0400 	stmdbcc	ip, {sl}
    5884:	04000003 	streq	r0, [r0], #-3
    5888:	02bc0966 	adcseq	r0, ip, #1671168	; 0x198000
    588c:	0c080000 	stceq	0, cr0, [r8], {-0}
    5890:	000002c5 	andeq	r0, r0, r5, asr #5
    5894:	1e1e6704 	cdpne	7, 1, cr6, cr14, cr4, {0}
    5898:	88000002 	stmdahi	r0, {r1}
    589c:	73040f00 	movwvc	r0, #20224	; 0x4f00
    58a0:	09000002 	stmdbeq	r0, {r1}
    58a4:	000002cc 	andeq	r0, r0, ip, asr #5
    58a8:	000002cc 	andeq	r0, r0, ip, asr #5
    58ac:	0000380a 	andeq	r3, r0, sl, lsl #16
    58b0:	0f001f00 	svceq	0x00001f00
    58b4:	0002d204 	andeq	sp, r2, r4, lsl #4
    58b8:	690d1200 	stmdbvs	sp, {r9, ip}
    58bc:	08000004 	stmdaeq	r0, {r2}
    58c0:	fb087a04 	blx	2240da <_bsl_base_address+0x220da>
    58c4:	0c000002 	stceq	0, cr0, [r0], {2}
    58c8:	00000a65 	andeq	r0, r0, r5, ror #20
    58cc:	fb117b04 	blx	4644e6 <_bsl_base_address+0x2624e6>
    58d0:	00000002 	andeq	r0, r0, r2
    58d4:	0009280c 	andeq	r2, r9, ip, lsl #16
    58d8:	067c0400 	ldrbteq	r0, [ip], -r0, lsl #8
    58dc:	00000025 	andeq	r0, r0, r5, lsr #32
    58e0:	040f0004 	streq	r0, [pc], #-4	; 58e8 <__data_load__+0x4a88>
    58e4:	00000054 	andeq	r0, r0, r4, asr r0
    58e8:	0004b40d 	andeq	fp, r4, sp, lsl #8
    58ec:	ba046800 	blt	11f8f4 <__data_load__+0x11ea94>
    58f0:	00044408 	andeq	r4, r4, r8, lsl #8
    58f4:	705f0e00 	subsvc	r0, pc, r0, lsl #28
    58f8:	12bb0400 	adcsne	r0, fp, #0, 8
    58fc:	000002fb 	strdeq	r0, [r0], -fp
    5900:	725f0e00 	subsvc	r0, pc, #0, 28
    5904:	07bc0400 	ldreq	r0, [ip, r0, lsl #8]!
    5908:	00000025 	andeq	r0, r0, r5, lsr #32
    590c:	775f0e04 	ldrbvc	r0, [pc, -r4, lsl #28]
    5910:	07bd0400 	ldreq	r0, [sp, r0, lsl #8]!
    5914:	00000025 	andeq	r0, r0, r5, lsr #32
    5918:	02e30c08 	rsceq	r0, r3, #8, 24	; 0x800
    591c:	be040000 	cdplt	0, 0, cr0, cr4, cr0, {0}
    5920:	00005b09 	andeq	r5, r0, r9, lsl #22
    5924:	980c0c00 	stmdals	ip, {sl, fp}
    5928:	04000003 	streq	r0, [r0], #-3
    592c:	005b09bf 	ldrheq	r0, [fp], #-159	; 0xffffff61
    5930:	0e0e0000 	cdpeq	0, 0, cr0, cr14, cr0, {0}
    5934:	0066625f 	rsbeq	r6, r6, pc, asr r2
    5938:	d311c004 	tstle	r1, #4
    593c:	10000002 	andne	r0, r0, r2
    5940:	0002700c 	andeq	r7, r2, ip
    5944:	07c10400 	strbeq	r0, [r1, r0, lsl #8]
    5948:	00000025 	andeq	r0, r0, r5, lsr #32
    594c:	02d30c18 	sbcseq	r0, r3, #24, 24	; 0x1800
    5950:	c8040000 	stmdagt	r4, {}	; <UNPREDICTABLE>
    5954:	00007e0a 	andeq	r7, r0, sl, lsl #28
    5958:	6c0c1c00 	stcvs	12, cr1, [ip], {-0}
    595c:	04000003 	streq	r0, [r0], #-3
    5960:	05c31dca 	strbeq	r1, [r3, #3530]	; 0xdca
    5964:	0c200000 	stceq	0, cr0, [r0], #-0
    5968:	000003e4 	andeq	r0, r0, r4, ror #7
    596c:	ed1dcc04 	ldc	12, cr12, [sp, #-16]
    5970:	24000005 	strcs	r0, [r0], #-5
    5974:	0005290c 	andeq	r2, r5, ip, lsl #18
    5978:	0dcf0400 	cfstrdeq	mvd0, [pc]	; 5980 <__data_load__+0x4b20>
    597c:	00000611 	andeq	r0, r0, r1, lsl r6
    5980:	05ef0c28 	strbeq	r0, [pc, #3112]!	; 65b0 <__data_load__+0x5750>
    5984:	d0040000 	andle	r0, r4, r0
    5988:	00062b09 	andeq	r2, r6, r9, lsl #22
    598c:	5f0e2c00 	svcpl	0x000e2c00
    5990:	04006275 	streq	r6, [r0], #-629	; 0xfffffd8b
    5994:	02d311d3 	sbcseq	r1, r3, #-1073741772	; 0xc0000034
    5998:	0e300000 	cdpeq	0, 3, cr0, cr0, cr0, {0}
    599c:	0070755f 	rsbseq	r7, r0, pc, asr r5
    59a0:	fb12d404 	blx	4ba9ba <_bsl_base_address+0x2b89ba>
    59a4:	38000002 	stmdacc	r0, {r1}
    59a8:	72755f0e 	rsbsvc	r5, r5, #14, 30	; 0x38
    59ac:	07d50400 	ldrbeq	r0, [r5, r0, lsl #8]
    59b0:	00000025 	andeq	r0, r0, r5, lsr #32
    59b4:	02b00c3c 	adcseq	r0, r0, #60, 24	; 0x3c00
    59b8:	d8040000 	stmdale	r4, {}	; <UNPREDICTABLE>
    59bc:	00063111 	andeq	r3, r6, r1, lsl r1
    59c0:	c70c4000 	strgt	r4, [ip, -r0]
    59c4:	04000005 	streq	r0, [r0], #-5
    59c8:	064111d9 			; <UNDEFINED> instruction: 0x064111d9
    59cc:	0e430000 	cdpeq	0, 4, cr0, cr3, cr0, {0}
    59d0:	00626c5f 	rsbeq	r6, r2, pc, asr ip
    59d4:	d311dc04 	tstle	r1, #4, 24	; 0x400
    59d8:	44000002 	strmi	r0, [r0], #-2
    59dc:	0002f90c 	andeq	pc, r2, ip, lsl #18
    59e0:	07df0400 	ldrbeq	r0, [pc, r0, lsl #8]
    59e4:	00000025 	andeq	r0, r0, r5, lsr #32
    59e8:	030a0c4c 	movweq	r0, #44108	; 0xac4c
    59ec:	e0040000 	and	r0, r4, r0
    59f0:	00008d0a 	andeq	r8, r0, sl, lsl #26
    59f4:	3a0c5000 	bcc	3199fc <_bsl_base_address+0x1179fc>
    59f8:	04000007 	streq	r0, [r0], #-7
    59fc:	046212e3 	strbteq	r1, [r2], #-739	; 0xfffffd1d
    5a00:	0c540000 	mraeq	r0, r4, acc0
    5a04:	000008fd 	strdeq	r0, [r0], -sp
    5a08:	1f0ce704 	svcne	0x000ce704
    5a0c:	58000001 	stmdapl	r0, {r0}
    5a10:	0004bc0c 	andeq	fp, r4, ip, lsl #24
    5a14:	0ee90400 	cdpeq	4, 14, cr0, cr9, cr0, {0}
    5a18:	000000fb 	strdeq	r0, [r0], -fp
    5a1c:	03dc0c5c 	bicseq	r0, ip, #92, 24	; 0x5c00
    5a20:	ea040000 	b	105a28 <__data_load__+0x104bc8>
    5a24:	00002509 	andeq	r2, r0, r9, lsl #10
    5a28:	13006400 	movwne	r6, #1024	; 0x400
    5a2c:	00000025 	andeq	r0, r0, r5, lsr #32
    5a30:	00000462 	andeq	r0, r0, r2, ror #8
    5a34:	00046214 	andeq	r6, r4, r4, lsl r2
    5a38:	007e1400 	rsbseq	r1, lr, r0, lsl #8
    5a3c:	b1140000 	tstlt	r4, r0
    5a40:	14000005 	strne	r0, [r0], #-5
    5a44:	00000025 	andeq	r0, r0, r5, lsr #32
    5a48:	68040f00 	stmdavs	r4, {r8, r9, sl, fp}
    5a4c:	15000004 	strne	r0, [r0, #-4]
    5a50:	00000cab 	andeq	r0, r0, fp, lsr #25
    5a54:	65040428 	strvs	r0, [r4, #-1064]	; 0xfffffbd8
    5a58:	05b10802 	ldreq	r0, [r1, #2050]!	; 0x802
    5a5c:	58160000 	ldmdapl	r6, {}	; <UNPREDICTABLE>
    5a60:	04000004 	streq	r0, [r0], #-4
    5a64:	25070267 	strcs	r0, [r7, #-615]	; 0xfffffd99
    5a68:	00000000 	andeq	r0, r0, r0
    5a6c:	0002f216 	andeq	pc, r2, r6, lsl r2	; <UNPREDICTABLE>
    5a70:	026c0400 	rsbeq	r0, ip, #0, 8
    5a74:	00069d0b 	andeq	r9, r6, fp, lsl #26
    5a78:	88160400 	ldmdahi	r6, {sl}
    5a7c:	04000003 	streq	r0, [r0], #-3
    5a80:	9d14026c 	lfmls	f0, 4, [r4, #-432]	; 0xfffffe50
    5a84:	08000006 	stmdaeq	r0, {r1, r2}
    5a88:	00034d16 	andeq	r4, r3, r6, lsl sp
    5a8c:	026c0400 	rsbeq	r0, ip, #0, 8
    5a90:	00069d1e 	andeq	r9, r6, lr, lsl sp
    5a94:	d6160c00 	ldrle	r0, [r6], -r0, lsl #24
    5a98:	04000004 	streq	r0, [r0], #-4
    5a9c:	2508026e 	strcs	r0, [r8, #-622]	; 0xfffffd92
    5aa0:	10000000 	andne	r0, r0, r0
    5aa4:	00024516 	andeq	r4, r2, r6, lsl r5
    5aa8:	026f0400 	rsbeq	r0, pc, #0, 8
    5aac:	00089d08 	andeq	r9, r8, r8, lsl #26
    5ab0:	f2161400 	vshl.s16	d1, d0, d6
    5ab4:	04000004 	streq	r0, [r0], #-4
    5ab8:	25070272 	strcs	r0, [r7, #-626]	; 0xfffffd8e
    5abc:	30000000 	andcc	r0, r0, r0
    5ac0:	0004e016 	andeq	lr, r4, r6, lsl r0
    5ac4:	02730400 	rsbseq	r0, r3, #0, 8
    5ac8:	0008b216 	andeq	fp, r8, r6, lsl r2
    5acc:	05163400 	ldreq	r3, [r6, #-1024]	; 0xfffffc00
    5ad0:	04000004 	streq	r0, [r0], #-4
    5ad4:	25070275 	strcs	r0, [r7, #-629]	; 0xfffffd8b
    5ad8:	38000000 	stmdacc	r0, {}	; <UNPREDICTABLE>
    5adc:	0004e816 	andeq	lr, r4, r6, lsl r8
    5ae0:	02770400 	rsbseq	r0, r7, #0, 8
    5ae4:	0008c30a 	andeq	ip, r8, sl, lsl #6
    5ae8:	c7163c00 	ldrgt	r3, [r6, -r0, lsl #24]
    5aec:	04000003 	streq	r0, [r0], #-3
    5af0:	8513027a 	ldrhi	r0, [r3, #-634]	; 0xfffffd86
    5af4:	40000001 	andmi	r0, r0, r1
    5af8:	00037216 	andeq	r7, r3, r6, lsl r2
    5afc:	027b0400 	rsbseq	r0, fp, #0, 8
    5b00:	00002507 	andeq	r2, r0, r7, lsl #10
    5b04:	09164400 	ldmdbeq	r6, {sl, lr}
    5b08:	04000006 	streq	r0, [r0], #-6
    5b0c:	8513027c 	ldrhi	r0, [r3, #-636]	; 0xfffffd84
    5b10:	48000001 	stmdami	r0, {r0}
    5b14:	00042816 	andeq	r2, r4, r6, lsl r8
    5b18:	027d0400 	rsbseq	r0, sp, #0, 8
    5b1c:	0008c914 	andeq	ip, r8, r4, lsl r9
    5b20:	90164c00 	andsls	r4, r6, r0, lsl #24
    5b24:	04000003 	streq	r0, [r0], #-3
    5b28:	25070280 	strcs	r0, [r7, #-640]	; 0xfffffd80
    5b2c:	50000000 	andpl	r0, r0, r0
    5b30:	00030216 	andeq	r0, r3, r6, lsl r2
    5b34:	02810400 	addeq	r0, r1, #0, 8
    5b38:	0005b109 	andeq	fp, r5, r9, lsl #2
    5b3c:	51165400 	tstpl	r6, r0, lsl #8
    5b40:	04000004 	streq	r0, [r0], #-4
    5b44:	780702a4 	stmdavc	r7, {r2, r5, r7, r9}
    5b48:	58000008 	stmdapl	r0, {r3}
    5b4c:	00021d17 	andeq	r1, r2, r7, lsl sp
    5b50:	02a80400 	adceq	r0, r8, #0, 8
    5b54:	0002b613 	andeq	fp, r2, r3, lsl r6
    5b58:	17014800 	strne	r4, [r1, -r0, lsl #16]
    5b5c:	000003a5 	andeq	r0, r0, r5, lsr #7
    5b60:	1202a904 	andne	sl, r2, #4, 18	; 0x10000
    5b64:	00000273 	andeq	r0, r0, r3, ror r2
    5b68:	bd17014c 	ldflts	f0, [r7, #-304]	; 0xfffffed0
    5b6c:	04000005 	streq	r0, [r0], #-5
    5b70:	da0c02ad 	ble	30662c <_bsl_base_address+0x10462c>
    5b74:	dc000008 	stcle	0, cr0, [r0], {8}
    5b78:	02db1702 	sbcseq	r1, fp, #524288	; 0x80000
    5b7c:	b2040000 	andlt	r0, r4, #0
    5b80:	065e1002 	ldrbeq	r1, [lr], -r2
    5b84:	02e00000 	rsceq	r0, r0, #0
    5b88:	0002c017 	andeq	ip, r2, r7, lsl r0
    5b8c:	02b40400 	adcseq	r0, r4, #0, 8
    5b90:	0008e60a 	andeq	lr, r8, sl, lsl #12
    5b94:	0002ec00 	andeq	lr, r2, r0, lsl #24
    5b98:	05b7040f 	ldreq	r0, [r7, #1039]!	; 0x40f
    5b9c:	01040000 	mrseq	r0, (UNDEF: 4)
    5ba0:	0000ba08 	andeq	fp, r0, r8, lsl #20
    5ba4:	05b71800 	ldreq	r1, [r7, #2048]!	; 0x800
    5ba8:	040f0000 	streq	r0, [pc], #-0	; 5bb0 <__data_load__+0x4d50>
    5bac:	00000444 	andeq	r0, r0, r4, asr #8
    5bb0:	00002513 	andeq	r2, r0, r3, lsl r5
    5bb4:	0005e700 	andeq	lr, r5, r0, lsl #14
    5bb8:	04621400 	strbteq	r1, [r2], #-1024	; 0xfffffc00
    5bbc:	7e140000 	cdpvc	0, 1, cr0, cr4, cr0, {0}
    5bc0:	14000000 	strne	r0, [r0], #-0
    5bc4:	000005e7 	andeq	r0, r0, r7, ror #11
    5bc8:	00002514 	andeq	r2, r0, r4, lsl r5
    5bcc:	040f0000 	streq	r0, [pc], #-0	; 5bd4 <__data_load__+0x4d74>
    5bd0:	000005be 			; <UNDEFINED> instruction: 0x000005be
    5bd4:	05c9040f 	strbeq	r0, [r9, #1039]	; 0x40f
    5bd8:	99130000 	ldmdbls	r3, {}	; <UNPREDICTABLE>
    5bdc:	11000000 	mrsne	r0, (UNDEF: 0)
    5be0:	14000006 	strne	r0, [r0], #-6
    5be4:	00000462 	andeq	r0, r0, r2, ror #8
    5be8:	00007e14 	andeq	r7, r0, r4, lsl lr
    5bec:	00991400 	addseq	r1, r9, r0, lsl #8
    5bf0:	25140000 	ldrcs	r0, [r4, #-0]
    5bf4:	00000000 	andeq	r0, r0, r0
    5bf8:	05f3040f 	ldrbeq	r0, [r3, #1039]!	; 0x40f
    5bfc:	25130000 	ldrcs	r0, [r3, #-0]
    5c00:	2b000000 	blcs	5c08 <__data_load__+0x4da8>
    5c04:	14000006 	strne	r0, [r0], #-6
    5c08:	00000462 	andeq	r0, r0, r2, ror #8
    5c0c:	00007e14 	andeq	r7, r0, r4, lsl lr
    5c10:	040f0000 	streq	r0, [pc], #-0	; 5c18 <__data_load__+0x4db8>
    5c14:	00000617 	andeq	r0, r0, r7, lsl r6
    5c18:	00005409 	andeq	r5, r0, r9, lsl #8
    5c1c:	00064100 	andeq	r4, r6, r0, lsl #2
    5c20:	00380a00 	eorseq	r0, r8, r0, lsl #20
    5c24:	00020000 	andeq	r0, r2, r0
    5c28:	00005409 	andeq	r5, r0, r9, lsl #8
    5c2c:	00065100 	andeq	r5, r6, r0, lsl #2
    5c30:	00380a00 	eorseq	r0, r8, r0, lsl #20
    5c34:	00000000 	andeq	r0, r0, r0
    5c38:	0004a206 	andeq	sl, r4, r6, lsl #4
    5c3c:	01240400 			; <UNDEFINED> instruction: 0x01240400
    5c40:	0003011a 	andeq	r0, r3, sl, lsl r1
    5c44:	0cc11900 			; <UNDEFINED> instruction: 0x0cc11900
    5c48:	040c0000 	streq	r0, [ip], #-0
    5c4c:	97080128 	strls	r0, [r8, -r8, lsr #2]
    5c50:	16000006 	strne	r0, [r0], -r6
    5c54:	000004ca 	andeq	r0, r0, sl, asr #9
    5c58:	11012a04 	tstne	r1, r4, lsl #20
    5c5c:	00000697 	muleq	r0, r7, r6
    5c60:	039e1600 	orrseq	r1, lr, #0, 12
    5c64:	2b040000 	blcs	105c6c <__data_load__+0x104e0c>
    5c68:	00250701 	eoreq	r0, r5, r1, lsl #14
    5c6c:	16040000 	strne	r0, [r4], -r0
    5c70:	000004d0 	ldrdeq	r0, [r0], -r0	; <UNPREDICTABLE>
    5c74:	0b012c04 	bleq	50c8c <__data_load__+0x4fe2c>
    5c78:	0000069d 	muleq	r0, sp, r6
    5c7c:	040f0008 	streq	r0, [pc], #-8	; 5c84 <__data_load__+0x4e24>
    5c80:	0000065e 	andeq	r0, r0, lr, asr r6
    5c84:	0651040f 	ldrbeq	r0, [r1], -pc, lsl #8
    5c88:	3d190000 	ldccc	0, cr0, [r9, #-0]
    5c8c:	0e000002 	cdpeq	0, 0, cr0, cr0, cr2, {0}
    5c90:	08014404 	stmdaeq	r1, {r2, sl, lr}
    5c94:	000006dc 	ldrdeq	r0, [r0], -ip
    5c98:	00051316 	andeq	r1, r5, r6, lsl r3
    5c9c:	01450400 	cmpeq	r5, r0, lsl #8
    5ca0:	0006dc12 	andeq	sp, r6, r2, lsl ip
    5ca4:	40160000 	andsmi	r0, r6, r0
    5ca8:	04000005 	streq	r0, [r0], #-5
    5cac:	dc120146 	ldfles	f0, [r2], {70}	; 0x46
    5cb0:	06000006 	streq	r0, [r0], -r6
    5cb4:	00055c16 	andeq	r5, r5, r6, lsl ip
    5cb8:	01470400 	cmpeq	r7, r0, lsl #8
    5cbc:	00006212 	andeq	r6, r0, r2, lsl r2
    5cc0:	09000c00 	stmdbeq	r0, {sl, fp}
    5cc4:	00000062 	andeq	r0, r0, r2, rrx
    5cc8:	000006ec 	andeq	r0, r0, ip, ror #13
    5ccc:	0000380a 	andeq	r3, r0, sl, lsl #16
    5cd0:	1a000200 	bne	64d8 <__data_load__+0x5678>
    5cd4:	028504d0 	addeq	r0, r5, #208, 8	; 0xd0000000
    5cd8:	00080107 	andeq	r0, r8, r7, lsl #2
    5cdc:	058e1600 	streq	r1, [lr, #1536]	; 0x600
    5ce0:	87040000 	strhi	r0, [r4, -r0]
    5ce4:	00381802 	eorseq	r1, r8, r2, lsl #16
    5ce8:	16000000 	strne	r0, [r0], -r0
    5cec:	00000546 	andeq	r0, r0, r6, asr #10
    5cf0:	12028804 	andne	r8, r2, #4, 16	; 0x40000
    5cf4:	000005b1 			; <UNDEFINED> instruction: 0x000005b1
    5cf8:	03ba1604 			; <UNDEFINED> instruction: 0x03ba1604
    5cfc:	89040000 	stmdbhi	r4, {}	; <UNPREDICTABLE>
    5d00:	08011002 	stmdaeq	r1, {r1, ip}
    5d04:	16080000 	strne	r0, [r8], -r0
    5d08:	000005e0 	andeq	r0, r0, r0, ror #11
    5d0c:	17028a04 	strne	r8, [r2, -r4, lsl #20]
    5d10:	0000019b 	muleq	r0, fp, r1
    5d14:	035d1624 	cmpeq	sp, #36, 12	; 0x2400000
    5d18:	8b040000 	blhi	105d20 <__data_load__+0x104ec0>
    5d1c:	00250f02 	eoreq	r0, r5, r2, lsl #30
    5d20:	16480000 	strbne	r0, [r8], -r0
    5d24:	000004c5 	andeq	r0, r0, r5, asr #9
    5d28:	2c028c04 	stccs	12, cr8, [r2], {4}
    5d2c:	00000077 	andeq	r0, r0, r7, ror r0
    5d30:	05f61650 	ldrbeq	r1, [r6, #1616]!	; 0x650
    5d34:	8d040000 	stchi	0, cr0, [r4, #-0]
    5d38:	06a31a02 	strteq	r1, [r3], r2, lsl #20
    5d3c:	16580000 	ldrbne	r0, [r8], -r0
    5d40:	00000444 	andeq	r0, r0, r4, asr #8
    5d44:	16028e04 	strne	r8, [r2], -r4, lsl #28
    5d48:	000000fb 	strdeq	r0, [r0], -fp
    5d4c:	05fb1668 	ldrbeq	r1, [fp, #1640]!	; 0x668
    5d50:	8f040000 	svchi	0x00040000
    5d54:	00fb1602 	rscseq	r1, fp, r2, lsl #12
    5d58:	16700000 	ldrbtne	r0, [r0], -r0
    5d5c:	00000293 	muleq	r0, r3, r2
    5d60:	16029004 	strne	r9, [r2], -r4
    5d64:	000000fb 	strdeq	r0, [r0], -fp
    5d68:	05b31678 	ldreq	r1, [r3, #1656]!	; 0x678
    5d6c:	91040000 	mrsls	r0, (UNDEF: 4)
    5d70:	08111002 	ldmdaeq	r1, {r1, ip}
    5d74:	16800000 	strne	r0, [r0], r0
    5d78:	000003ae 	andeq	r0, r0, lr, lsr #7
    5d7c:	10029204 	andne	r9, r2, r4, lsl #4
    5d80:	00000821 	andeq	r0, r0, r1, lsr #16
    5d84:	05691688 	strbeq	r1, [r9, #-1672]!	; 0xfffff978
    5d88:	93040000 	movwls	r0, #16384	; 0x4000
    5d8c:	00250f02 	eoreq	r0, r5, r2, lsl #30
    5d90:	16a00000 	strtne	r0, [r0], r0
    5d94:	00000323 	andeq	r0, r0, r3, lsr #6
    5d98:	16029404 	strne	r9, [r2], -r4, lsl #8
    5d9c:	000000fb 	strdeq	r0, [r0], -fp
    5da0:	028416a4 	addeq	r1, r4, #164, 12	; 0xa400000
    5da4:	95040000 	strls	r0, [r4, #-0]
    5da8:	00fb1602 	rscseq	r1, fp, r2, lsl #12
    5dac:	16ac0000 	strtne	r0, [ip], r0
    5db0:	00000312 	andeq	r0, r0, r2, lsl r3
    5db4:	16029604 	strne	r9, [r2], -r4, lsl #12
    5db8:	000000fb 	strdeq	r0, [r0], -fp
    5dbc:	025016b4 	subseq	r1, r0, #180, 12	; 0xb400000
    5dc0:	97040000 	strls	r0, [r4, -r0]
    5dc4:	00fb1602 	rscseq	r1, fp, r2, lsl #12
    5dc8:	16bc0000 	ldrtne	r0, [ip], r0
    5dcc:	0000025f 	andeq	r0, r0, pc, asr r2
    5dd0:	16029804 	strne	r9, [r2], -r4, lsl #16
    5dd4:	000000fb 	strdeq	r0, [r0], -fp
    5dd8:	045616c4 	ldrbeq	r1, [r6], #-1732	; 0xfffff93c
    5ddc:	99040000 	stmdbls	r4, {}	; <UNPREDICTABLE>
    5de0:	00250802 	eoreq	r0, r5, r2, lsl #16
    5de4:	00cc0000 	sbceq	r0, ip, r0
    5de8:	0005b709 	andeq	fp, r5, r9, lsl #14
    5dec:	00081100 	andeq	r1, r8, r0, lsl #2
    5df0:	00380a00 	eorseq	r0, r8, r0, lsl #20
    5df4:	00190000 	andseq	r0, r9, r0
    5df8:	0005b709 	andeq	fp, r5, r9, lsl #14
    5dfc:	00082100 	andeq	r2, r8, r0, lsl #2
    5e00:	00380a00 	eorseq	r0, r8, r0, lsl #20
    5e04:	00070000 	andeq	r0, r7, r0
    5e08:	0005b709 	andeq	fp, r5, r9, lsl #14
    5e0c:	00083100 	andeq	r3, r8, r0, lsl #2
    5e10:	00380a00 	eorseq	r0, r8, r0, lsl #20
    5e14:	00170000 	andseq	r0, r7, r0
    5e18:	9e04f01a 	mcrls	0, 0, pc, cr4, cr10, {0}	; <UNPREDICTABLE>
    5e1c:	08580702 	ldmdaeq	r8, {r1, r8, r9, sl}^
    5e20:	f5160000 			; <UNDEFINED> instruction: 0xf5160000
    5e24:	04000003 	streq	r0, [r0], #-3
    5e28:	581b02a1 	ldmdapl	fp, {r0, r5, r7, r9}
    5e2c:	00000008 	andeq	r0, r0, r8
    5e30:	0005aa16 	andeq	sl, r5, r6, lsl sl
    5e34:	02a20400 	adceq	r0, r2, #0, 8
    5e38:	00086818 	andeq	r6, r8, r8, lsl r8
    5e3c:	09007800 	stmdbeq	r0, {fp, ip, sp, lr}
    5e40:	000002fb 	strdeq	r0, [r0], -fp
    5e44:	00000868 	andeq	r0, r0, r8, ror #16
    5e48:	0000380a 	andeq	r3, r0, sl, lsl #16
    5e4c:	09001d00 	stmdbeq	r0, {r8, sl, fp, ip}
    5e50:	00000038 	andeq	r0, r0, r8, lsr r0
    5e54:	00000878 	andeq	r0, r0, r8, ror r8
    5e58:	0000380a 	andeq	r3, r0, sl, lsl #16
    5e5c:	1b001d00 	blne	d264 <__data_load__+0xc404>
    5e60:	028304f0 	addeq	r0, r3, #240, 8	; 0xf0000000
    5e64:	00089d03 	andeq	r9, r8, r3, lsl #26
    5e68:	0cab1c00 	stceq	12, cr1, [fp]
    5e6c:	9a040000 	bls	105e74 <__data_load__+0x105014>
    5e70:	06ec0b02 	strbteq	r0, [ip], r2, lsl #22
    5e74:	cd1c0000 	ldcgt	0, cr0, [ip, #-0]
    5e78:	04000005 	streq	r0, [r0], #-5
    5e7c:	310b02a3 	smlatbcc	fp, r3, r2, r0
    5e80:	00000008 	andeq	r0, r0, r8
    5e84:	0005b709 	andeq	fp, r5, r9, lsl #14
    5e88:	0008ad00 	andeq	sl, r8, r0, lsl #26
    5e8c:	00380a00 	eorseq	r0, r8, r0, lsl #20
    5e90:	00180000 	andseq	r0, r8, r0
    5e94:	0002791d 	andeq	r7, r2, sp, lsl r9
    5e98:	ad040f00 	stcge	15, cr0, [r4, #-0]
    5e9c:	1e000008 	cdpne	0, 0, cr0, cr0, cr8, {0}
    5ea0:	000008c3 	andeq	r0, r0, r3, asr #17
    5ea4:	00046214 	andeq	r6, r4, r4, lsl r2
    5ea8:	040f0000 	streq	r0, [pc], #-0	; 5eb0 <__data_load__+0x5050>
    5eac:	000008b8 			; <UNDEFINED> instruction: 0x000008b8
    5eb0:	0185040f 	orreq	r0, r5, pc, lsl #8
    5eb4:	da1e0000 	ble	785ebc <_bsl_base_address+0x583ebc>
    5eb8:	14000008 	strne	r0, [r0], #-8
    5ebc:	00000025 	andeq	r0, r0, r5, lsr #32
    5ec0:	e0040f00 	and	r0, r4, r0, lsl #30
    5ec4:	0f000008 	svceq	0x00000008
    5ec8:	0008cf04 	andeq	ip, r8, r4, lsl #30
    5ecc:	06510900 	ldrbeq	r0, [r1], -r0, lsl #18
    5ed0:	08f60000 	ldmeq	r6!, {}^	; <UNPREDICTABLE>
    5ed4:	380a0000 	stmdacc	sl, {}	; <UNPREDICTABLE>
    5ed8:	02000000 	andeq	r0, r0, #0
    5edc:	09b71900 	ldmibeq	r7!, {r8, fp, ip}
    5ee0:	01280000 			; <UNDEFINED> instruction: 0x01280000
    5ee4:	910802d8 	ldrdls	r0, [r8, -r8]
    5ee8:	16000009 	strne	r0, [r0], -r9
    5eec:	00000888 	andeq	r0, r0, r8, lsl #17
    5ef0:	0702d901 	streq	sp, [r2, -r1, lsl #18]
    5ef4:	00000025 	andeq	r0, r0, r5, lsr #32
    5ef8:	08de1600 	ldmeq	lr, {r9, sl, ip}^
    5efc:	da010000 	ble	45f04 <__data_load__+0x450a4>
    5f00:	00250702 	eoreq	r0, r5, r2, lsl #14
    5f04:	16040000 	strne	r0, [r4], -r0
    5f08:	0000096b 	andeq	r0, r0, fp, ror #18
    5f0c:	0702db01 	streq	sp, [r2, -r1, lsl #22]
    5f10:	00000025 	andeq	r0, r0, r5, lsr #32
    5f14:	087b1608 	ldmdaeq	fp!, {r3, r9, sl, ip}^
    5f18:	dc010000 	stcle	0, cr0, [r1], {-0}
    5f1c:	00250702 	eoreq	r0, r5, r2, lsl #14
    5f20:	160c0000 	strne	r0, [ip], -r0
    5f24:	00000a76 	andeq	r0, r0, r6, ror sl
    5f28:	0702dd01 	streq	sp, [r2, -r1, lsl #26]
    5f2c:	00000025 	andeq	r0, r0, r5, lsr #32
    5f30:	09971610 	ldmibeq	r7, {r4, r9, sl, ip}
    5f34:	de010000 	cdple	0, 0, cr0, cr1, cr0, {0}
    5f38:	00250702 	eoreq	r0, r5, r2, lsl #14
    5f3c:	16140000 	ldrne	r0, [r4], -r0
    5f40:	0000096a 	andeq	r0, r0, sl, ror #18
    5f44:	0702df01 	streq	sp, [r2, -r1, lsl #30]
    5f48:	00000025 	andeq	r0, r0, r5, lsr #32
    5f4c:	091b1618 	ldmdbeq	fp, {r3, r4, r9, sl, ip}
    5f50:	e0010000 	and	r0, r1, r0
    5f54:	00250702 	eoreq	r0, r5, r2, lsl #14
    5f58:	161c0000 	ldrne	r0, [ip], -r0
    5f5c:	000008dd 	ldrdeq	r0, [r0], -sp
    5f60:	0702e101 	streq	lr, [r2, -r1, lsl #2]
    5f64:	00000025 	andeq	r0, r0, r5, lsr #32
    5f68:	0a4f1620 	beq	13cb7f0 <_bsl_base_address+0x11c97f0>
    5f6c:	e2010000 	and	r0, r1, #0
    5f70:	00250702 	eoreq	r0, r5, r2, lsl #14
    5f74:	00240000 	eoreq	r0, r4, r0
    5f78:	00097219 	andeq	r7, r9, r9, lsl r2
    5f7c:	e9011000 	stmdb	r1, {ip}
    5f80:	09d60804 	ldmibeq	r6, {r2, fp}^
    5f84:	60160000 	andsvs	r0, r6, r0
    5f88:	01000008 	tsteq	r0, r8
    5f8c:	2c1304eb 	cfldrscs	mvf0, [r3], {235}	; 0xeb
    5f90:	00000000 	andeq	r0, r0, r0
    5f94:	00092916 	andeq	r2, r9, r6, lsl r9
    5f98:	04ec0100 	strbteq	r0, [ip], #256	; 0x100
    5f9c:	00002c13 	andeq	r2, r0, r3, lsl ip
    5fa0:	661f0400 	ldrvs	r0, [pc], -r0, lsl #8
    5fa4:	ed010064 	stc	0, cr0, [r1, #-400]	; 0xfffffe70
    5fa8:	09d61804 	ldmibeq	r6, {r2, fp, ip}^
    5fac:	1f080000 	svcne	0x00080000
    5fb0:	01006b62 	tsteq	r0, r2, ror #22
    5fb4:	d61804ee 	ldrle	r0, [r8], -lr, ror #9
    5fb8:	0c000009 	stceq	0, cr0, [r0], {9}
    5fbc:	91040f00 	tstls	r4, r0, lsl #30
    5fc0:	06000009 	streq	r0, [r0], -r9
    5fc4:	00000a38 	andeq	r0, r0, r8, lsr sl
    5fc8:	1e04f101 	mvfnes	f7, f1
    5fcc:	000009d6 	ldrdeq	r0, [r0], -r6
    5fd0:	0008bb06 	andeq	fp, r8, r6, lsl #22
    5fd4:	061d0100 	ldreq	r0, [sp], -r0, lsl #2
    5fd8:	0009d61e 	andeq	sp, r9, lr, lsl r6
    5fdc:	09e90900 	stmibeq	r9!, {r8, fp}^
    5fe0:	0a070000 	beq	1c5fe8 <__data_load__+0x1c5188>
    5fe4:	38200000 	stmdacc	r0!, {}	; <UNPREDICTABLE>
    5fe8:	01000000 	mrseq	r0, (UNDEF: 0)
    5fec:	d2210001 	eorle	r0, r1, #1
    5ff0:	01000009 	tsteq	r0, r9
    5ff4:	f6100651 			; <UNDEFINED> instruction: 0xf6100651
    5ff8:	21000009 	tstcs	r0, r9
    5ffc:	0000097f 	andeq	r0, r0, pc, ror r9
    6000:	1606c801 	strne	ip, [r6], -r1, lsl #16
    6004:	00000070 	andeq	r0, r0, r0, ror r0
    6008:	00086a21 	andeq	r6, r8, r1, lsr #20
    600c:	06c90100 	strbeq	r0, [r9], r0, lsl #2
    6010:	00007016 	andeq	r7, r0, r6, lsl r0
    6014:	0a582100 	beq	160e41c <_bsl_base_address+0x140c41c>
    6018:	ce010000 	cdpgt	0, 0, cr0, cr1, cr0, {0}
    601c:	05b10e06 	ldreq	r0, [r1, #3590]!	; 0xe06
    6020:	a6210000 	strtge	r0, [r1], -r0
    6024:	01000009 	tsteq	r0, r9
    6028:	f61806d1 			; <UNDEFINED> instruction: 0xf61806d1
    602c:	22000008 	andcs	r0, r0, #8
    6030:	00000c94 	muleq	r0, r4, ip
    6034:	050cee01 	streq	lr, [ip, #-3585]	; 0xfffff1ff
    6038:	00000025 	andeq	r0, r0, r5, lsr #32
    603c:	00000a48 	andeq	r0, r0, r8, asr #20
    6040:	0000009c 	muleq	r0, ip, r0
    6044:	0b769c01 	bleq	1dad050 <_bsl_base_address+0x1bab050>
    6048:	df230000 	svcle	0x00230000
    604c:	01000009 	tsteq	r0, r9
    6050:	62110cee 	andsvs	r0, r1, #60928	; 0xee00
    6054:	37000004 	strcc	r0, [r0, -r4]
    6058:	2f000017 	svccs	0x00000017
    605c:	24000017 	strcs	r0, [r0], #-23	; 0xffffffe9
    6060:	00646170 	rsbeq	r6, r4, r0, ror r1
    6064:	1d0cee01 	stcne	14, cr14, [ip, #-4]
    6068:	0000002c 	andeq	r0, r0, ip, lsr #32
    606c:	00001774 	andeq	r1, r0, r4, ror r7
    6070:	0000176e 	andeq	r1, r0, lr, ror #14
    6074:	000a4625 	andeq	r4, sl, r5, lsr #12
    6078:	0cf30100 	ldfeqe	f0, [r3]
    607c:	00006909 	andeq	r6, r0, r9, lsl #18
    6080:	0017a800 	andseq	sl, r7, r0, lsl #16
    6084:	0017a000 	andseq	sl, r7, r0
    6088:	0c6f2500 	cfstr64eq	mvdx2, [pc], #-0	; 6090 <__data_load__+0x5230>
    608c:	f4010000 	vst4.8	{d0-d3}, [r1], r0
    6090:	0069090c 	rsbeq	r0, r9, ip, lsl #18
    6094:	17e20000 	strbne	r0, [r2, r0]!
    6098:	17dc0000 	ldrbne	r0, [ip, r0]
    609c:	7a250000 	bvc	9460a4 <_bsl_base_address+0x7440a4>
    60a0:	0100000c 	tsteq	r0, ip
    60a4:	b1090cf5 	strdlt	r0, [r9, -r5]
    60a8:	11000005 	tstne	r0, r5
    60ac:	0b000018 	bleq	6114 <__data_load__+0x52b4>
    60b0:	25000018 	strcs	r0, [r0, #-24]	; 0xffffffe8
    60b4:	000008c3 	andeq	r0, r0, r3, asr #17
    60b8:	090cf601 	stmdbeq	ip, {r0, r9, sl, ip, sp, lr, pc}
    60bc:	000005b1 			; <UNDEFINED> instruction: 0x000005b1
    60c0:	0000183e 	andeq	r1, r0, lr, lsr r8
    60c4:	0000183a 	andeq	r1, r0, sl, lsr r8
    60c8:	00099f26 	andeq	r9, r9, r6, lsr #30
    60cc:	0cf80100 	ldfeqe	f0, [r8]
    60d0:	00007011 	andeq	r7, r0, r1, lsl r0
    60d4:	27100000 	ldrcs	r0, [r0, -r0]
    60d8:	00000a52 	andeq	r0, r0, r2, asr sl
    60dc:	00000cbe 			; <UNDEFINED> instruction: 0x00000cbe
    60e0:	00000b04 	andeq	r0, r0, r4, lsl #22
    60e4:	02500128 	subseq	r0, r0, #40, 2
    60e8:	27000075 	smlsdxcs	r0, r5, r0, r0
    60ec:	00000a78 	andeq	r0, r0, r8, ror sl
    60f0:	00000ccb 	andeq	r0, r0, fp, asr #25
    60f4:	00000b1d 	andeq	r0, r0, sp, lsl fp
    60f8:	02500128 	subseq	r0, r0, #40, 2
    60fc:	01280075 			; <UNDEFINED> instruction: 0x01280075
    6100:	00300151 	eorseq	r0, r0, r1, asr r1
    6104:	000a8627 	andeq	r8, sl, r7, lsr #12
    6108:	000cd700 	andeq	sp, ip, r0, lsl #14
    610c:	000b3100 	andeq	r3, fp, r0, lsl #2
    6110:	50012800 	andpl	r2, r1, r0, lsl #16
    6114:	00007502 	andeq	r7, r0, r2, lsl #10
    6118:	000a9227 	andeq	r9, sl, r7, lsr #4
    611c:	000ccb00 	andeq	ip, ip, r0, lsl #22
    6120:	000b4c00 	andeq	r4, fp, r0, lsl #24
    6124:	50012800 	andpl	r2, r1, r0, lsl #16
    6128:	28007502 	stmdacs	r0, {r1, r8, sl, ip, sp, lr}
    612c:	74035101 	strvc	r5, [r3], #-257	; 0xfffffeff
    6130:	27001f00 	strcs	r1, [r0, -r0, lsl #30]
    6134:	00000aae 	andeq	r0, r0, lr, lsr #21
    6138:	00000cd7 	ldrdeq	r0, [r0], -r7
    613c:	00000b60 	andeq	r0, r0, r0, ror #22
    6140:	02500128 	subseq	r0, r0, #40, 2
    6144:	29000075 	stmdbcs	r0, {r0, r2, r4, r5, r6}
    6148:	00000aba 			; <UNDEFINED> instruction: 0x00000aba
    614c:	00000ccb 	andeq	r0, r0, fp, asr #25
    6150:	02500128 	subseq	r0, r0, #40, 2
    6154:	01280075 			; <UNDEFINED> instruction: 0x01280075
    6158:	00300151 	eorseq	r0, r0, r1, asr r1
    615c:	084e2a00 	stmdaeq	lr, {r9, fp, sp}^
    6160:	43010000 	movwmi	r0, #4096	; 0x1000
    6164:	0ae4060a 	beq	ff907994 <__stack+0xdf9070bc>
    6168:	01c40000 	biceq	r0, r4, r0
    616c:	9c010000 	stcls	0, cr0, [r1], {-0}
    6170:	00000cbe 			; <UNDEFINED> instruction: 0x00000cbe
    6174:	0009df23 	andeq	sp, r9, r3, lsr #30
    6178:	0a430100 	beq	10c6580 <_bsl_base_address+0xec4580>
    617c:	0004620b 	andeq	r6, r4, fp, lsl #4
    6180:	00186400 	andseq	r6, r8, r0, lsl #8
    6184:	00185c00 	andseq	r5, r8, r0, lsl #24
    6188:	656d2400 	strbvs	r2, [sp, #-1024]!	; 0xfffffc00
    618c:	4301006d 	movwmi	r0, #4205	; 0x106d
    6190:	007e180a 	rsbseq	r1, lr, sl, lsl #16
    6194:	18a30000 	stmiane	r3!, {}	; <UNPREDICTABLE>
    6198:	189b0000 	ldmne	fp, {}	; <UNPREDICTABLE>
    619c:	702b0000 	eorvc	r0, fp, r0
    61a0:	0a4e0100 	beq	13865a8 <_bsl_base_address+0x11845a8>
    61a4:	0009dc0d 	andeq	sp, r9, sp, lsl #24
    61a8:	0018e200 	andseq	lr, r8, r0, lsl #4
    61ac:	0018dc00 	andseq	sp, r8, r0, lsl #24
    61b0:	64682b00 	strbtvs	r2, [r8], #-2816	; 0xfffff500
    61b4:	0a4f0100 	beq	13c65bc <_bsl_base_address+0x11c45bc>
    61b8:	00002c13 	andeq	r2, r0, r3, lsl ip
    61bc:	00191300 	andseq	r1, r9, r0, lsl #6
    61c0:	00190b00 	andseq	r0, r9, r0, lsl #22
    61c4:	7a732b00 	bvc	1cd0dcc <_bsl_base_address+0x1acedcc>
    61c8:	0a500100 	beq	14065d0 <_bsl_base_address+0x12045d0>
    61cc:	00002c13 	andeq	r2, r0, r3, lsl ip
    61d0:	00195700 	andseq	r5, r9, r0, lsl #14
    61d4:	00194b00 	andseq	r4, r9, r0, lsl #22
    61d8:	64692b00 	strbtvs	r2, [r9], #-2816	; 0xfffff500
    61dc:	51010078 	tstpl	r1, r8, ror r0
    61e0:	00250d0a 	eoreq	r0, r5, sl, lsl #26
    61e4:	19a70000 	stmibne	r7!, {}	; <UNPREDICTABLE>
    61e8:	19a10000 	stmibne	r1!, {}	; <UNPREDICTABLE>
    61ec:	cb250000 	blgt	9461f4 <_bsl_base_address+0x7441f4>
    61f0:	01000004 	tsteq	r0, r4
    61f4:	dc0d0a52 			; <UNDEFINED> instruction: 0xdc0d0a52
    61f8:	d8000009 	stmdale	r0, {r0, r3}
    61fc:	d0000019 	andle	r0, r0, r9, lsl r0
    6200:	25000019 	strcs	r0, [r0, #-25]	; 0xffffffe7
    6204:	00000c86 	andeq	r0, r0, r6, lsl #25
    6208:	130a5301 	movwne	r5, #41729	; 0xa301
    620c:	0000002c 	andeq	r0, r0, ip, lsr #32
    6210:	00001a1e 	andeq	r1, r0, lr, lsl sl
    6214:	00001a0c 	andeq	r1, r0, ip, lsl #20
    6218:	000c8d25 	andeq	r8, ip, r5, lsr #26
    621c:	0a540100 	beq	1506624 <_bsl_base_address+0x1304624>
    6220:	00002c13 	andeq	r2, r0, r3, lsl ip
    6224:	001a9500 	andseq	r9, sl, r0, lsl #10
    6228:	001a8900 	andseq	r8, sl, r0, lsl #18
    622c:	63622b00 	cmnvs	r2, #0, 22
    6230:	5501006b 	strpl	r0, [r1, #-107]	; 0xffffff95
    6234:	09dc0d0a 	ldmibeq	ip, {r1, r3, r8, sl, fp}^
    6238:	1afd0000 	bne	fff46240 <__stack+0xdff45968>
    623c:	1aef0000 	bne	ffbc6244 <__stack+0xdfbc596c>
    6240:	662b0000 	strtvs	r0, [fp], -r0
    6244:	01006477 	tsteq	r0, r7, ror r4
    6248:	dc0d0a56 			; <UNDEFINED> instruction: 0xdc0d0a56
    624c:	63000009 	movwvs	r0, #9
    6250:	5300001b 	movwpl	r0, #27
    6254:	2500001b 	strcs	r0, [r0, #-27]	; 0xffffffe5
    6258:	00000c75 	andeq	r0, r0, r5, ror ip
    625c:	0d0a5701 	stceq	7, cr5, [sl, #-4]
    6260:	00000025 	andeq	r0, r0, r5, lsr #32
    6264:	00001bce 	andeq	r1, r0, lr, asr #23
    6268:	00001bc4 	andeq	r1, r0, r4, asr #23
    626c:	000af627 	andeq	pc, sl, r7, lsr #12
    6270:	000cbe00 	andeq	fp, ip, r0, lsl #28
    6274:	000c9900 	andeq	r9, ip, r0, lsl #18
    6278:	50012800 	andpl	r2, r1, r0, lsl #16
    627c:	00007502 	andeq	r7, r0, r2, lsl #10
    6280:	000b9227 	andeq	r9, fp, r7, lsr #4
    6284:	000cd700 	andeq	sp, ip, r0, lsl #14
    6288:	000cad00 	andeq	sl, ip, r0, lsl #26
    628c:	50012800 	andpl	r2, r1, r0, lsl #16
    6290:	00007502 	andeq	r7, r0, r2, lsl #10
    6294:	000c1a29 	andeq	r1, ip, r9, lsr #20
    6298:	000a4800 	andeq	r4, sl, r0, lsl #16
    629c:	50012800 	andpl	r2, r1, r0, lsl #16
    62a0:	00007502 	andeq	r7, r0, r2, lsl #10
    62a4:	08f52c00 	ldmeq	r5!, {sl, fp, sp}^
    62a8:	08f50000 	ldmeq	r5!, {}^	; <UNPREDICTABLE>
    62ac:	48010000 	stmdami	r1, {}	; <UNPREDICTABLE>
    62b0:	1e2d0d01 	cdpne	13, 2, cr0, cr13, cr1, {0}
    62b4:	1e00000a 	cdpne	0, 0, cr0, cr0, cr10, {0}
    62b8:	0600000a 	streq	r0, [r0], -sl
    62bc:	ab2c0e99 	blge	b09d28 <_bsl_base_address+0x907d28>
    62c0:	ab000008 	blge	62e8 <__data_load__+0x5488>
    62c4:	01000008 	tsteq	r0, r8
    62c8:	000d0149 	andeq	r0, sp, r9, asr #2
    62cc:	00000bdd 	ldrdeq	r0, [r0], -sp
    62d0:	17a40004 	strne	r0, [r4, r4]!
    62d4:	01040000 	mrseq	r0, (UNDEF: 4)
    62d8:	0000016c 	andeq	r0, r0, ip, ror #2
    62dc:	000cc70c 	andeq	ip, ip, ip, lsl #14
    62e0:	0006dc00 	andeq	sp, r6, r0, lsl #24
    62e4:	000ca800 	andeq	sl, ip, r0, lsl #16
    62e8:	0000f000 	andeq	pc, r0, r0
    62ec:	001d6e00 	andseq	r6, sp, r0, lsl #28
    62f0:	07040200 	streq	r0, [r4, -r0, lsl #4]
    62f4:	00000156 	andeq	r0, r0, r6, asr r1
    62f8:	69050403 	stmdbvs	r5, {r0, r1, sl}
    62fc:	0200746e 	andeq	r7, r0, #1845493760	; 0x6e000000
    6300:	00940508 	addseq	r0, r4, r8, lsl #10
    6304:	08020000 	stmdaeq	r2, {}	; <UNPREDICTABLE>
    6308:	00020304 	andeq	r0, r2, r4, lsl #6
    630c:	03d50400 	bicseq	r0, r5, #0, 8
    6310:	5e020000 	cdppl	0, 0, cr0, cr2, cr0, {0}
    6314:	00251701 	eoreq	r1, r5, r1, lsl #14
    6318:	01020000 	mrseq	r0, (UNDEF: 2)
    631c:	0000b306 	andeq	fp, r0, r6, lsl #6
    6320:	08010200 	stmdaeq	r1, {r9}
    6324:	000000b1 	strheq	r0, [r0], -r1
    6328:	0f050202 	svceq	0x00050202
    632c:	02000002 	andeq	r0, r0, #2
    6330:	01f00702 	mvnseq	r0, r2, lsl #14
    6334:	04020000 	streq	r0, [r2], #-0
    6338:	00009905 	andeq	r9, r0, r5, lsl #18
    633c:	07040200 	streq	r0, [r4, -r0, lsl #4]
    6340:	00000151 	andeq	r0, r0, r1, asr r1
    6344:	4c070802 	stcmi	8, cr0, [r7], {2}
    6348:	05000001 	streq	r0, [r0, #-1]
    634c:	00000410 	andeq	r0, r0, r0, lsl r4
    6350:	6a0e2e03 	bvs	391b64 <_bsl_base_address+0x18fb64>
    6354:	05000000 	streq	r0, [r0, #-0]
    6358:	0000052f 	andeq	r0, r0, pc, lsr #10
    635c:	6a0e7403 	bvs	3a3370 <_bsl_base_address+0x1a1370>
    6360:	06000000 	streq	r0, [r0], -r0
    6364:	03a50304 			; <UNDEFINED> instruction: 0x03a50304
    6368:	000000b9 	strheq	r0, [r0], -r9
    636c:	0003cf07 	andeq	ip, r3, r7, lsl #30
    6370:	0ca70300 	stceq	3, cr0, [r7]
    6374:	00000041 	andeq	r0, r0, r1, asr #32
    6378:	00038107 	andeq	r8, r3, r7, lsl #2
    637c:	13a80300 			; <UNDEFINED> instruction: 0x13a80300
    6380:	000000b9 	strheq	r0, [r0], -r9
    6384:	00550800 	subseq	r0, r5, r0, lsl #16
    6388:	00c90000 	sbceq	r0, r9, r0
    638c:	25090000 	strcs	r0, [r9, #-0]
    6390:	03000000 	movweq	r0, #0
    6394:	03080a00 	movweq	r0, #35328	; 0x8a00
    6398:	00ed09a2 	rsceq	r0, sp, r2, lsr #19
    639c:	190b0000 	stmdbne	fp, {}	; <UNPREDICTABLE>
    63a0:	03000005 	movweq	r0, #5
    63a4:	002c07a4 	eoreq	r0, ip, r4, lsr #15
    63a8:	0b000000 	bleq	63b0 <__data_load__+0x5550>
    63ac:	00000521 	andeq	r0, r0, r1, lsr #10
    63b0:	9705a903 	strls	sl, [r5, -r3, lsl #18]
    63b4:	04000000 	streq	r0, [r0], #-0
    63b8:	04a90500 	strteq	r0, [r9], #1280	; 0x500
    63bc:	aa030000 	bge	c63c4 <__data_load__+0xc5564>
    63c0:	0000c903 	andeq	ip, r0, r3, lsl #18
    63c4:	05040c00 	streq	r0, [r4, #-3072]	; 0xfffff400
    63c8:	00000561 	andeq	r0, r0, r1, ror #10
    63cc:	71191604 	tstvc	r9, r4, lsl #12
    63d0:	05000000 	streq	r0, [r0, #-0]
    63d4:	00000432 	andeq	r0, r0, r2, lsr r4
    63d8:	2c0d0c05 	stccs	12, cr0, [sp], {5}
    63dc:	05000000 	streq	r0, [r0, #-0]
    63e0:	00000344 	andeq	r0, r0, r4, asr #6
    63e4:	071b2304 	ldreq	r2, [fp, -r4, lsl #6]
    63e8:	0d000001 	stceq	0, cr0, [r0, #-4]
    63ec:	00000355 	andeq	r0, r0, r5, asr r3
    63f0:	08340418 	ldmdaeq	r4!, {r3, r4, sl}
    63f4:	00000179 	andeq	r0, r0, r9, ror r1
    63f8:	0004ca0b 	andeq	ip, r4, fp, lsl #20
    63fc:	13360400 	teqne	r6, #0, 8
    6400:	00000179 	andeq	r0, r0, r9, ror r1
    6404:	6b5f0e00 	blvs	17c9c0c <_bsl_base_address+0x15c7c0c>
    6408:	07370400 	ldreq	r0, [r7, -r0, lsl #8]!
    640c:	0000002c 	andeq	r0, r0, ip, lsr #32
    6410:	050b0b04 	streq	r0, [fp, #-2820]	; 0xfffff4fc
    6414:	37040000 	strcc	r0, [r4, -r0]
    6418:	00002c0b 	andeq	r2, r0, fp, lsl #24
    641c:	3e0b0800 	cdpcc	8, 0, cr0, cr11, cr0, {0}
    6420:	04000003 	streq	r0, [r0], #-3
    6424:	002c1437 	eoreq	r1, ip, r7, lsr r4
    6428:	0b0c0000 	bleq	306430 <_bsl_base_address+0x104430>
    642c:	0000059b 	muleq	r0, fp, r5
    6430:	2c1b3704 	ldccs	7, cr3, [fp], {4}
    6434:	10000000 	andne	r0, r0, r0
    6438:	00785f0e 	rsbseq	r5, r8, lr, lsl #30
    643c:	7f0b3804 	svcvc	0x000b3804
    6440:	14000001 	strne	r0, [r0], #-1
    6444:	1f040f00 	svcne	0x00040f00
    6448:	08000001 	stmdaeq	r0, {r0}
    644c:	000000fb 	strdeq	r0, [r0], -fp
    6450:	0000018f 	andeq	r0, r0, pc, lsl #3
    6454:	00002509 	andeq	r2, r0, r9, lsl #10
    6458:	0d000000 	stceq	0, cr0, [r0, #-0]
    645c:	0000037c 	andeq	r0, r0, ip, ror r3
    6460:	083c0424 	ldmdaeq	ip!, {r2, r5, sl}
    6464:	00000212 	andeq	r0, r0, r2, lsl r2
    6468:	0002a10b 	andeq	sl, r2, fp, lsl #2
    646c:	093e0400 	ldmdbeq	lr!, {sl}
    6470:	0000002c 	andeq	r0, r0, ip, lsr #32
    6474:	05370b00 	ldreq	r0, [r7, #-2816]!	; 0xfffff500
    6478:	3f040000 	svccc	0x00040000
    647c:	00002c09 	andeq	r2, r0, r9, lsl #24
    6480:	b60b0400 	strlt	r0, [fp], -r0, lsl #8
    6484:	04000002 	streq	r0, [r0], #-2
    6488:	002c0940 	eoreq	r0, ip, r0, asr #18
    648c:	0b080000 	bleq	206494 <_bsl_base_address+0x4494>
    6490:	0000060e 	andeq	r0, r0, lr, lsl #12
    6494:	2c094104 	stfcss	f4, [r9], {4}
    6498:	0c000000 	stceq	0, cr0, [r0], {-0}
    649c:	0003fc0b 	andeq	pc, r3, fp, lsl #24
    64a0:	09420400 	stmdbeq	r2, {sl}^
    64a4:	0000002c 	andeq	r0, r0, ip, lsr #32
    64a8:	03eb0b10 	mvneq	r0, #16, 22	; 0x4000
    64ac:	43040000 	movwmi	r0, #16384	; 0x4000
    64b0:	00002c09 	andeq	r2, r0, r9, lsl #24
    64b4:	a00b1400 	andge	r1, fp, r0, lsl #8
    64b8:	04000005 	streq	r0, [r0], #-5
    64bc:	002c0944 	eoreq	r0, ip, r4, asr #18
    64c0:	0b180000 	bleq	6064c8 <_bsl_base_address+0x4044c8>
    64c4:	0000045f 	andeq	r0, r0, pc, asr r4
    64c8:	2c094504 	cfstr32cs	mvfx4, [r9], {4}
    64cc:	1c000000 	stcne	0, cr0, [r0], {-0}
    64d0:	0005d50b 	andeq	sp, r5, fp, lsl #10
    64d4:	09460400 	stmdbeq	r6, {sl}^
    64d8:	0000002c 	andeq	r0, r0, ip, lsr #32
    64dc:	c5100020 	ldrgt	r0, [r0, #-32]	; 0xffffffe0
    64e0:	08000002 	stmdaeq	r0, {r1}
    64e4:	084f0401 	stmdaeq	pc, {r0, sl}^	; <UNPREDICTABLE>
    64e8:	00000257 	andeq	r0, r0, r7, asr r2
    64ec:	0003310b 	andeq	r3, r3, fp, lsl #2
    64f0:	0a500400 	beq	14074f8 <_bsl_base_address+0x12054f8>
    64f4:	00000257 	andeq	r0, r0, r7, asr r2
    64f8:	02310b00 	eorseq	r0, r1, #0, 22
    64fc:	51040000 	mrspl	r0, (UNDEF: 4)
    6500:	00025709 	andeq	r5, r2, r9, lsl #14
    6504:	53118000 	tstpl	r1, #0
    6508:	04000005 	streq	r0, [r0], #-5
    650c:	00fb0a53 	rscseq	r0, fp, r3, asr sl
    6510:	01000000 	mrseq	r0, (UNDEF: 0)
    6514:	0002ea11 	andeq	lr, r2, r1, lsl sl
    6518:	0a560400 	beq	1587520 <_bsl_base_address+0x1385520>
    651c:	000000fb 	strdeq	r0, [r0], -fp
    6520:	08000104 	stmdaeq	r0, {r2, r8}
    6524:	000000f9 	strdeq	r0, [r0], -r9
    6528:	00000267 	andeq	r0, r0, r7, ror #4
    652c:	00002509 	andeq	r2, r0, r9, lsl #10
    6530:	10001f00 	andne	r1, r0, r0, lsl #30
    6534:	0000021d 	andeq	r0, r0, sp, lsl r2
    6538:	62040190 	andvs	r0, r4, #144, 2	; 0x24
    653c:	0002aa08 	andeq	sl, r2, r8, lsl #20
    6540:	04ca0b00 	strbeq	r0, [sl], #2816	; 0xb00
    6544:	63040000 	movwvs	r0, #16384	; 0x4000
    6548:	0002aa12 	andeq	sl, r2, r2, lsl sl
    654c:	db0b0000 	blle	2c6554 <_bsl_base_address+0xc4554>
    6550:	04000004 	streq	r0, [r0], #-4
    6554:	002c0664 	eoreq	r0, ip, r4, ror #12
    6558:	0b040000 	bleq	106560 <__data_load__+0x105700>
    655c:	00000339 	andeq	r0, r0, r9, lsr r3
    6560:	b0096604 	andlt	r6, r9, r4, lsl #12
    6564:	08000002 	stmdaeq	r0, {r1}
    6568:	0002c50b 	andeq	ip, r2, fp, lsl #10
    656c:	1e670400 	cdpne	4, 6, cr0, cr7, cr0, {0}
    6570:	00000212 	andeq	r0, r0, r2, lsl r2
    6574:	040f0088 	streq	r0, [pc], #-136	; 657c <__data_load__+0x571c>
    6578:	00000267 	andeq	r0, r0, r7, ror #4
    657c:	0002c008 	andeq	ip, r2, r8
    6580:	0002c000 	andeq	ip, r2, r0
    6584:	00250900 	eoreq	r0, r5, r0, lsl #18
    6588:	001f0000 	andseq	r0, pc, r0
    658c:	02c6040f 	sbceq	r0, r6, #251658240	; 0xf000000
    6590:	0d120000 	ldceq	0, cr0, [r2, #-0]
    6594:	00000469 	andeq	r0, r0, r9, ror #8
    6598:	087a0408 	ldmdaeq	sl!, {r3, sl}^
    659c:	000002ef 	andeq	r0, r0, pc, ror #5
    65a0:	000a650b 	andeq	r6, sl, fp, lsl #10
    65a4:	117b0400 	cmnne	fp, r0, lsl #8
    65a8:	000002ef 	andeq	r0, r0, pc, ror #5
    65ac:	09280b00 	stmdbeq	r8!, {r8, r9, fp}
    65b0:	7c040000 	stcvc	0, cr0, [r4], {-0}
    65b4:	00002c06 	andeq	r2, r0, r6, lsl #24
    65b8:	0f000400 	svceq	0x00000400
    65bc:	00005504 	andeq	r5, r0, r4, lsl #10
    65c0:	04b40d00 	ldrteq	r0, [r4], #3328	; 0xd00
    65c4:	04680000 	strbteq	r0, [r8], #-0
    65c8:	043808ba 	ldrteq	r0, [r8], #-2234	; 0xfffff746
    65cc:	5f0e0000 	svcpl	0x000e0000
    65d0:	bb040070 	bllt	106798 <__data_load__+0x105938>
    65d4:	0002ef12 	andeq	lr, r2, r2, lsl pc
    65d8:	5f0e0000 	svcpl	0x000e0000
    65dc:	bc040072 	stclt	0, cr0, [r4], {114}	; 0x72
    65e0:	00002c07 	andeq	r2, r0, r7, lsl #24
    65e4:	5f0e0400 	svcpl	0x000e0400
    65e8:	bd040077 	stclt	0, cr0, [r4, #-476]	; 0xfffffe24
    65ec:	00002c07 	andeq	r2, r0, r7, lsl #24
    65f0:	e30b0800 	movw	r0, #47104	; 0xb800
    65f4:	04000002 	streq	r0, [r0], #-2
    65f8:	005c09be 	ldrheq	r0, [ip], #-158	; 0xffffff62
    65fc:	0b0c0000 	bleq	306604 <_bsl_base_address+0x104604>
    6600:	00000398 	muleq	r0, r8, r3
    6604:	5c09bf04 	stcpl	15, cr11, [r9], {4}
    6608:	0e000000 	cdpeq	0, 0, cr0, cr0, cr0, {0}
    660c:	66625f0e 	strbtvs	r5, [r2], -lr, lsl #30
    6610:	11c00400 	bicne	r0, r0, r0, lsl #8
    6614:	000002c7 	andeq	r0, r0, r7, asr #5
    6618:	02700b10 	rsbseq	r0, r0, #16, 22	; 0x4000
    661c:	c1040000 	mrsgt	r0, (UNDEF: 4)
    6620:	00002c07 	andeq	r2, r0, r7, lsl #24
    6624:	d30b1800 	movwle	r1, #47104	; 0xb800
    6628:	04000002 	streq	r0, [r0], #-2
    662c:	00f90ac8 	rscseq	r0, r9, r8, asr #21
    6630:	0b1c0000 	bleq	706638 <_bsl_base_address+0x504638>
    6634:	0000036c 	andeq	r0, r0, ip, ror #6
    6638:	b71dca04 	ldrlt	ip, [sp, -r4, lsl #20]
    663c:	20000005 	andcs	r0, r0, r5
    6640:	0003e40b 	andeq	lr, r3, fp, lsl #8
    6644:	1dcc0400 	cfstrdne	mvd0, [ip]
    6648:	000005e1 	andeq	r0, r0, r1, ror #11
    664c:	05290b24 	streq	r0, [r9, #-2852]!	; 0xfffff4dc
    6650:	cf040000 	svcgt	0x00040000
    6654:	0006050d 	andeq	r0, r6, sp, lsl #10
    6658:	ef0b2800 	svc	0x000b2800
    665c:	04000005 	streq	r0, [r0], #-5
    6660:	061f09d0 			; <UNDEFINED> instruction: 0x061f09d0
    6664:	0e2c0000 	cdpeq	0, 2, cr0, cr12, cr0, {0}
    6668:	0062755f 	rsbeq	r7, r2, pc, asr r5
    666c:	c711d304 	ldrgt	sp, [r1, -r4, lsl #6]
    6670:	30000002 	andcc	r0, r0, r2
    6674:	70755f0e 	rsbsvc	r5, r5, lr, lsl #30
    6678:	12d40400 	sbcsne	r0, r4, #0, 8
    667c:	000002ef 	andeq	r0, r0, pc, ror #5
    6680:	755f0e38 	ldrbvc	r0, [pc, #-3640]	; 5850 <__data_load__+0x49f0>
    6684:	d5040072 	strle	r0, [r4, #-114]	; 0xffffff8e
    6688:	00002c07 	andeq	r2, r0, r7, lsl #24
    668c:	b00b3c00 	andlt	r3, fp, r0, lsl #24
    6690:	04000002 	streq	r0, [r0], #-2
    6694:	062511d8 			; <UNDEFINED> instruction: 0x062511d8
    6698:	0b400000 	bleq	10066a0 <_bsl_base_address+0xe046a0>
    669c:	000005c7 	andeq	r0, r0, r7, asr #11
    66a0:	3511d904 	ldrcc	sp, [r1, #-2308]	; 0xfffff6fc
    66a4:	43000006 	movwmi	r0, #6
    66a8:	626c5f0e 	rsbvs	r5, ip, #14, 30	; 0x38
    66ac:	11dc0400 	bicsne	r0, ip, r0, lsl #8
    66b0:	000002c7 	andeq	r0, r0, r7, asr #5
    66b4:	02f90b44 	rscseq	r0, r9, #68, 22	; 0x11000
    66b8:	df040000 	svcle	0x00040000
    66bc:	00002c07 	andeq	r2, r0, r7, lsl #24
    66c0:	0a0b4c00 	beq	2d96c8 <_bsl_base_address+0xd76c8>
    66c4:	04000003 	streq	r0, [r0], #-3
    66c8:	007f0ae0 	rsbseq	r0, pc, r0, ror #21
    66cc:	0b500000 	bleq	14066d4 <_bsl_base_address+0x12046d4>
    66d0:	0000073a 	andeq	r0, r0, sl, lsr r7
    66d4:	5612e304 	ldrpl	lr, [r2], -r4, lsl #6
    66d8:	54000004 	strpl	r0, [r0], #-4
    66dc:	0008fd0b 	andeq	pc, r8, fp, lsl #26
    66e0:	0ce70400 	cfstrdeq	mvd0, [r7]
    66e4:	00000113 	andeq	r0, r0, r3, lsl r1
    66e8:	04bc0b58 	ldrteq	r0, [ip], #2904	; 0xb58
    66ec:	e9040000 	stmdb	r4, {}	; <UNPREDICTABLE>
    66f0:	0000ed0e 	andeq	lr, r0, lr, lsl #26
    66f4:	dc0b5c00 	stcle	12, cr5, [fp], {-0}
    66f8:	04000003 	streq	r0, [r0], #-3
    66fc:	002c09ea 	eoreq	r0, ip, sl, ror #19
    6700:	00640000 	rsbeq	r0, r4, r0
    6704:	00002c13 	andeq	r2, r0, r3, lsl ip
    6708:	00045600 	andeq	r5, r4, r0, lsl #12
    670c:	04561400 	ldrbeq	r1, [r6], #-1024	; 0xfffffc00
    6710:	f9140000 			; <UNDEFINED> instruction: 0xf9140000
    6714:	14000000 	strne	r0, [r0], #-0
    6718:	000005a5 	andeq	r0, r0, r5, lsr #11
    671c:	00002c14 	andeq	r2, r0, r4, lsl ip
    6720:	040f0000 	streq	r0, [pc], #-0	; 6728 <__data_load__+0x58c8>
    6724:	0000045c 	andeq	r0, r0, ip, asr r4
    6728:	000cab15 	andeq	sl, ip, r5, lsl fp
    672c:	04042800 	streq	r2, [r4], #-2048	; 0xfffff800
    6730:	a5080265 	strge	r0, [r8, #-613]	; 0xfffffd9b
    6734:	16000005 	strne	r0, [r0], -r5
    6738:	00000458 	andeq	r0, r0, r8, asr r4
    673c:	07026704 	streq	r6, [r2, -r4, lsl #14]
    6740:	0000002c 	andeq	r0, r0, ip, lsr #32
    6744:	02f21600 	rscseq	r1, r2, #0, 12
    6748:	6c040000 	stcvs	0, cr0, [r4], {-0}
    674c:	06910b02 	ldreq	r0, [r1], r2, lsl #22
    6750:	16040000 	strne	r0, [r4], -r0
    6754:	00000388 	andeq	r0, r0, r8, lsl #7
    6758:	14026c04 	strne	r6, [r2], #-3076	; 0xfffff3fc
    675c:	00000691 	muleq	r0, r1, r6
    6760:	034d1608 	movteq	r1, #54792	; 0xd608
    6764:	6c040000 	stcvs	0, cr0, [r4], {-0}
    6768:	06911e02 	ldreq	r1, [r1], r2, lsl #28
    676c:	160c0000 	strne	r0, [ip], -r0
    6770:	000004d6 	ldrdeq	r0, [r0], -r6
    6774:	08026e04 	stmdaeq	r2, {r2, r9, sl, fp, sp, lr}
    6778:	0000002c 	andeq	r0, r0, ip, lsr #32
    677c:	02451610 	subeq	r1, r5, #16, 12	; 0x1000000
    6780:	6f040000 	svcvs	0x00040000
    6784:	08910802 	ldmeq	r1, {r1, fp}
    6788:	16140000 	ldrne	r0, [r4], -r0
    678c:	000004f2 	strdeq	r0, [r0], -r2
    6790:	07027204 	streq	r7, [r2, -r4, lsl #4]
    6794:	0000002c 	andeq	r0, r0, ip, lsr #32
    6798:	04e01630 	strbteq	r1, [r0], #1584	; 0x630
    679c:	73040000 	movwvc	r0, #16384	; 0x4000
    67a0:	08a61602 	stmiaeq	r6!, {r1, r9, sl, ip}
    67a4:	16340000 	ldrtne	r0, [r4], -r0
    67a8:	00000405 	andeq	r0, r0, r5, lsl #8
    67ac:	07027504 	streq	r7, [r2, -r4, lsl #10]
    67b0:	0000002c 	andeq	r0, r0, ip, lsr #32
    67b4:	04e81638 	strbteq	r1, [r8], #1592	; 0x638
    67b8:	77040000 	strvc	r0, [r4, -r0]
    67bc:	08b70a02 	ldmeq	r7!, {r1, r9, fp}
    67c0:	163c0000 	ldrtne	r0, [ip], -r0
    67c4:	000003c7 	andeq	r0, r0, r7, asr #7
    67c8:	13027a04 	movwne	r7, #10756	; 0x2a04
    67cc:	00000179 	andeq	r0, r0, r9, ror r1
    67d0:	03721640 	cmneq	r2, #64, 12	; 0x4000000
    67d4:	7b040000 	blvc	1067dc <__data_load__+0x10597c>
    67d8:	002c0702 	eoreq	r0, ip, r2, lsl #14
    67dc:	16440000 	strbne	r0, [r4], -r0
    67e0:	00000609 	andeq	r0, r0, r9, lsl #12
    67e4:	13027c04 	movwne	r7, #11268	; 0x2c04
    67e8:	00000179 	andeq	r0, r0, r9, ror r1
    67ec:	04281648 	strteq	r1, [r8], #-1608	; 0xfffff9b8
    67f0:	7d040000 	stcvc	0, cr0, [r4, #-0]
    67f4:	08bd1402 	popeq	{r1, sl, ip}
    67f8:	164c0000 	strbne	r0, [ip], -r0
    67fc:	00000390 	muleq	r0, r0, r3
    6800:	07028004 	streq	r8, [r2, -r4]
    6804:	0000002c 	andeq	r0, r0, ip, lsr #32
    6808:	03021650 	movweq	r1, #9808	; 0x2650
    680c:	81040000 	mrshi	r0, (UNDEF: 4)
    6810:	05a50902 	streq	r0, [r5, #2306]!	; 0x902
    6814:	16540000 	ldrbne	r0, [r4], -r0
    6818:	00000451 	andeq	r0, r0, r1, asr r4
    681c:	0702a404 	streq	sl, [r2, -r4, lsl #8]
    6820:	0000086c 	andeq	r0, r0, ip, ror #16
    6824:	021d1758 	andseq	r1, sp, #88, 14	; 0x1600000
    6828:	a8040000 	stmdage	r4, {}	; <UNPREDICTABLE>
    682c:	02aa1302 	adceq	r1, sl, #134217728	; 0x8000000
    6830:	01480000 	mrseq	r0, (UNDEF: 72)
    6834:	0003a517 	andeq	sl, r3, r7, lsl r5
    6838:	02a90400 	adceq	r0, r9, #0, 8
    683c:	00026712 	andeq	r6, r2, r2, lsl r7
    6840:	17014c00 	strne	r4, [r1, -r0, lsl #24]
    6844:	000005bd 			; <UNDEFINED> instruction: 0x000005bd
    6848:	0c02ad04 	stceq	13, cr10, [r2], {4}
    684c:	000008ce 	andeq	r0, r0, lr, asr #17
    6850:	db1702dc 	blle	5c73c8 <_bsl_base_address+0x3c53c8>
    6854:	04000002 	streq	r0, [r0], #-2
    6858:	521002b2 	andspl	r0, r0, #536870923	; 0x2000000b
    685c:	e0000006 	and	r0, r0, r6
    6860:	02c01702 	sbceq	r1, r0, #524288	; 0x80000
    6864:	b4040000 	strlt	r0, [r4], #-0
    6868:	08da0a02 	ldmeq	sl, {r1, r9, fp}^
    686c:	02ec0000 	rsceq	r0, ip, #0
    6870:	ab040f00 	blge	10a478 <__data_load__+0x109618>
    6874:	02000005 	andeq	r0, r0, #5
    6878:	00ba0801 	adcseq	r0, sl, r1, lsl #16
    687c:	ab180000 	blge	606884 <_bsl_base_address+0x404884>
    6880:	0f000005 	svceq	0x00000005
    6884:	00043804 	andeq	r3, r4, r4, lsl #16
    6888:	002c1300 	eoreq	r1, ip, r0, lsl #6
    688c:	05db0000 	ldrbeq	r0, [fp]
    6890:	56140000 	ldrpl	r0, [r4], -r0
    6894:	14000004 	strne	r0, [r0], #-4
    6898:	000000f9 	strdeq	r0, [r0], -r9
    689c:	0005db14 	andeq	sp, r5, r4, lsl fp
    68a0:	002c1400 	eoreq	r1, ip, r0, lsl #8
    68a4:	0f000000 	svceq	0x00000000
    68a8:	0005b204 	andeq	fp, r5, r4, lsl #4
    68ac:	bd040f00 	stclt	15, cr0, [r4, #-0]
    68b0:	13000005 	movwne	r0, #5
    68b4:	0000008b 	andeq	r0, r0, fp, lsl #1
    68b8:	00000605 	andeq	r0, r0, r5, lsl #12
    68bc:	00045614 	andeq	r5, r4, r4, lsl r6
    68c0:	00f91400 	rscseq	r1, r9, r0, lsl #8
    68c4:	8b140000 	blhi	5068cc <_bsl_base_address+0x3048cc>
    68c8:	14000000 	strne	r0, [r0], #-0
    68cc:	0000002c 	andeq	r0, r0, ip, lsr #32
    68d0:	e7040f00 	str	r0, [r4, -r0, lsl #30]
    68d4:	13000005 	movwne	r0, #5
    68d8:	0000002c 	andeq	r0, r0, ip, lsr #32
    68dc:	0000061f 	andeq	r0, r0, pc, lsl r6
    68e0:	00045614 	andeq	r5, r4, r4, lsl r6
    68e4:	00f91400 	rscseq	r1, r9, r0, lsl #8
    68e8:	0f000000 	svceq	0x00000000
    68ec:	00060b04 	andeq	r0, r6, r4, lsl #22
    68f0:	00550800 	subseq	r0, r5, r0, lsl #16
    68f4:	06350000 	ldrteq	r0, [r5], -r0
    68f8:	25090000 	strcs	r0, [r9, #-0]
    68fc:	02000000 	andeq	r0, r0, #0
    6900:	00550800 	subseq	r0, r5, r0, lsl #16
    6904:	06450000 	strbeq	r0, [r5], -r0
    6908:	25090000 	strcs	r0, [r9, #-0]
    690c:	00000000 	andeq	r0, r0, r0
    6910:	04a20400 	strteq	r0, [r2], #1024	; 0x400
    6914:	24040000 	strcs	r0, [r4], #-0
    6918:	02f51a01 	rscseq	r1, r5, #4096	; 0x1000
    691c:	c1190000 	tstgt	r9, r0
    6920:	0c00000c 	stceq	0, cr0, [r0], {12}
    6924:	08012804 	stmdaeq	r1, {r2, fp, sp}
    6928:	0000068b 	andeq	r0, r0, fp, lsl #13
    692c:	0004ca16 	andeq	ip, r4, r6, lsl sl
    6930:	012a0400 			; <UNDEFINED> instruction: 0x012a0400
    6934:	00068b11 	andeq	r8, r6, r1, lsl fp
    6938:	9e160000 	cdpls	0, 1, cr0, cr6, cr0, {0}
    693c:	04000003 	streq	r0, [r0], #-3
    6940:	2c07012b 	stfcss	f0, [r7], {43}	; 0x2b
    6944:	04000000 	streq	r0, [r0], #-0
    6948:	0004d016 	andeq	sp, r4, r6, lsl r0
    694c:	012c0400 			; <UNDEFINED> instruction: 0x012c0400
    6950:	0006910b 	andeq	r9, r6, fp, lsl #2
    6954:	0f000800 	svceq	0x00000800
    6958:	00065204 	andeq	r5, r6, r4, lsl #4
    695c:	45040f00 	strmi	r0, [r4, #-3840]	; 0xfffff100
    6960:	19000006 	stmdbne	r0, {r1, r2}
    6964:	0000023d 	andeq	r0, r0, sp, lsr r2
    6968:	0144040e 	cmpeq	r4, lr, lsl #8
    696c:	0006d008 	andeq	sp, r6, r8
    6970:	05131600 	ldreq	r1, [r3, #-1536]	; 0xfffffa00
    6974:	45040000 	strmi	r0, [r4, #-0]
    6978:	06d01201 	ldrbeq	r1, [r0], r1, lsl #4
    697c:	16000000 	strne	r0, [r0], -r0
    6980:	00000540 	andeq	r0, r0, r0, asr #10
    6984:	12014604 	andne	r4, r1, #4, 12	; 0x400000
    6988:	000006d0 	ldrdeq	r0, [r0], -r0	; <UNPREDICTABLE>
    698c:	055c1606 	ldrbeq	r1, [ip, #-1542]	; 0xfffff9fa
    6990:	47040000 	strmi	r0, [r4, -r0]
    6994:	00631201 	rsbeq	r1, r3, r1, lsl #4
    6998:	000c0000 	andeq	r0, ip, r0
    699c:	00006308 	andeq	r6, r0, r8, lsl #6
    69a0:	0006e000 	andeq	lr, r6, r0
    69a4:	00250900 	eoreq	r0, r5, r0, lsl #18
    69a8:	00020000 	andeq	r0, r2, r0
    69ac:	8504d01a 	strhi	sp, [r4, #-26]	; 0xffffffe6
    69b0:	07f50702 	ldrbeq	r0, [r5, r2, lsl #14]!
    69b4:	8e160000 	cdphi	0, 1, cr0, cr6, cr0, {0}
    69b8:	04000005 	streq	r0, [r0], #-5
    69bc:	25180287 	ldrcs	r0, [r8, #-647]	; 0xfffffd79
    69c0:	00000000 	andeq	r0, r0, r0
    69c4:	00054616 	andeq	r4, r5, r6, lsl r6
    69c8:	02880400 	addeq	r0, r8, #0, 8
    69cc:	0005a512 	andeq	sl, r5, r2, lsl r5
    69d0:	ba160400 	blt	5879d8 <_bsl_base_address+0x3859d8>
    69d4:	04000003 	streq	r0, [r0], #-3
    69d8:	f5100289 			; <UNDEFINED> instruction: 0xf5100289
    69dc:	08000007 	stmdaeq	r0, {r0, r1, r2}
    69e0:	0005e016 	andeq	lr, r5, r6, lsl r0
    69e4:	028a0400 	addeq	r0, sl, #0, 8
    69e8:	00018f17 	andeq	r8, r1, r7, lsl pc
    69ec:	5d162400 	cfldrspl	mvf2, [r6, #-0]
    69f0:	04000003 	streq	r0, [r0], #-3
    69f4:	2c0f028b 	sfmcs	f0, 4, [pc], {139}	; 0x8b
    69f8:	48000000 	stmdami	r0, {}	; <UNPREDICTABLE>
    69fc:	0004c516 	andeq	ip, r4, r6, lsl r5
    6a00:	028c0400 	addeq	r0, ip, #0, 8
    6a04:	0000782c 	andeq	r7, r0, ip, lsr #16
    6a08:	f6165000 			; <UNDEFINED> instruction: 0xf6165000
    6a0c:	04000005 	streq	r0, [r0], #-5
    6a10:	971a028d 	ldrls	r0, [sl, -sp, lsl #5]
    6a14:	58000006 	stmdapl	r0, {r1, r2}
    6a18:	00044416 	andeq	r4, r4, r6, lsl r4
    6a1c:	028e0400 	addeq	r0, lr, #0, 8
    6a20:	0000ed16 	andeq	lr, r0, r6, lsl sp
    6a24:	fb166800 	blx	5a0a2e <_bsl_base_address+0x39ea2e>
    6a28:	04000005 	streq	r0, [r0], #-5
    6a2c:	ed16028f 	lfm	f0, 4, [r6, #-572]	; 0xfffffdc4
    6a30:	70000000 	andvc	r0, r0, r0
    6a34:	00029316 	andeq	r9, r2, r6, lsl r3
    6a38:	02900400 	addseq	r0, r0, #0, 8
    6a3c:	0000ed16 	andeq	lr, r0, r6, lsl sp
    6a40:	b3167800 	tstlt	r6, #0, 16
    6a44:	04000005 	streq	r0, [r0], #-5
    6a48:	05100291 	ldreq	r0, [r0, #-657]	; 0xfffffd6f
    6a4c:	80000008 	andhi	r0, r0, r8
    6a50:	0003ae16 	andeq	sl, r3, r6, lsl lr
    6a54:	02920400 	addseq	r0, r2, #0, 8
    6a58:	00081510 	andeq	r1, r8, r0, lsl r5
    6a5c:	69168800 	ldmdbvs	r6, {fp, pc}
    6a60:	04000005 	streq	r0, [r0], #-5
    6a64:	2c0f0293 	sfmcs	f0, 4, [pc], {147}	; 0x93
    6a68:	a0000000 	andge	r0, r0, r0
    6a6c:	00032316 	andeq	r2, r3, r6, lsl r3
    6a70:	02940400 	addseq	r0, r4, #0, 8
    6a74:	0000ed16 	andeq	lr, r0, r6, lsl sp
    6a78:	8416a400 	ldrhi	sl, [r6], #-1024	; 0xfffffc00
    6a7c:	04000002 	streq	r0, [r0], #-2
    6a80:	ed160295 	lfm	f0, 4, [r6, #-596]	; 0xfffffdac
    6a84:	ac000000 	stcge	0, cr0, [r0], {-0}
    6a88:	00031216 	andeq	r1, r3, r6, lsl r2
    6a8c:	02960400 	addseq	r0, r6, #0, 8
    6a90:	0000ed16 	andeq	lr, r0, r6, lsl sp
    6a94:	5016b400 	andspl	fp, r6, r0, lsl #8
    6a98:	04000002 	streq	r0, [r0], #-2
    6a9c:	ed160297 	lfm	f0, 4, [r6, #-604]	; 0xfffffda4
    6aa0:	bc000000 	stclt	0, cr0, [r0], {-0}
    6aa4:	00025f16 	andeq	r5, r2, r6, lsl pc
    6aa8:	02980400 	addseq	r0, r8, #0, 8
    6aac:	0000ed16 	andeq	lr, r0, r6, lsl sp
    6ab0:	5616c400 	ldrpl	ip, [r6], -r0, lsl #8
    6ab4:	04000004 	streq	r0, [r0], #-4
    6ab8:	2c080299 	sfmcs	f0, 4, [r8], {153}	; 0x99
    6abc:	cc000000 	stcgt	0, cr0, [r0], {-0}
    6ac0:	05ab0800 	streq	r0, [fp, #2048]!	; 0x800
    6ac4:	08050000 	stmdaeq	r5, {}	; <UNPREDICTABLE>
    6ac8:	25090000 	strcs	r0, [r9, #-0]
    6acc:	19000000 	stmdbne	r0, {}	; <UNPREDICTABLE>
    6ad0:	05ab0800 	streq	r0, [fp, #2048]!	; 0x800
    6ad4:	08150000 	ldmdaeq	r5, {}	; <UNPREDICTABLE>
    6ad8:	25090000 	strcs	r0, [r9, #-0]
    6adc:	07000000 	streq	r0, [r0, -r0]
    6ae0:	05ab0800 	streq	r0, [fp, #2048]!	; 0x800
    6ae4:	08250000 	stmdaeq	r5!, {}	; <UNPREDICTABLE>
    6ae8:	25090000 	strcs	r0, [r9, #-0]
    6aec:	17000000 	strne	r0, [r0, -r0]
    6af0:	04f01a00 	ldrbteq	r1, [r0], #2560	; 0xa00
    6af4:	4c07029e 	sfmmi	f0, 4, [r7], {158}	; 0x9e
    6af8:	16000008 	strne	r0, [r0], -r8
    6afc:	000003f5 	strdeq	r0, [r0], -r5
    6b00:	1b02a104 	blne	aef18 <__data_load__+0xae0b8>
    6b04:	0000084c 	andeq	r0, r0, ip, asr #16
    6b08:	05aa1600 	streq	r1, [sl, #1536]!	; 0x600
    6b0c:	a2040000 	andge	r0, r4, #0
    6b10:	085c1802 	ldmdaeq	ip, {r1, fp, ip}^
    6b14:	00780000 	rsbseq	r0, r8, r0
    6b18:	0002ef08 	andeq	lr, r2, r8, lsl #30
    6b1c:	00085c00 	andeq	r5, r8, r0, lsl #24
    6b20:	00250900 	eoreq	r0, r5, r0, lsl #18
    6b24:	001d0000 	andseq	r0, sp, r0
    6b28:	00002508 	andeq	r2, r0, r8, lsl #10
    6b2c:	00086c00 	andeq	r6, r8, r0, lsl #24
    6b30:	00250900 	eoreq	r0, r5, r0, lsl #18
    6b34:	001d0000 	andseq	r0, sp, r0
    6b38:	8304f01b 	movwhi	pc, #16411	; 0x401b	; <UNPREDICTABLE>
    6b3c:	08910302 	ldmeq	r1, {r1, r8, r9}
    6b40:	ab1c0000 	blge	706b48 <_bsl_base_address+0x504b48>
    6b44:	0400000c 	streq	r0, [r0], #-12
    6b48:	e00b029a 	mul	fp, sl, r2
    6b4c:	1c000006 	stcne	0, cr0, [r0], {6}
    6b50:	000005cd 	andeq	r0, r0, sp, asr #11
    6b54:	0b02a304 	bleq	af76c <__data_load__+0xae90c>
    6b58:	00000825 	andeq	r0, r0, r5, lsr #16
    6b5c:	05ab0800 	streq	r0, [fp, #2048]!	; 0x800
    6b60:	08a10000 	stmiaeq	r1!, {}	; <UNPREDICTABLE>
    6b64:	25090000 	strcs	r0, [r9, #-0]
    6b68:	18000000 	stmdane	r0, {}	; <UNPREDICTABLE>
    6b6c:	02791d00 	rsbseq	r1, r9, #0, 26
    6b70:	040f0000 	streq	r0, [pc], #-0	; 6b78 <__data_load__+0x5d18>
    6b74:	000008a1 	andeq	r0, r0, r1, lsr #17
    6b78:	0008b71e 	andeq	fp, r8, lr, lsl r7
    6b7c:	04561400 	ldrbeq	r1, [r6], #-1024	; 0xfffffc00
    6b80:	0f000000 	svceq	0x00000000
    6b84:	0008ac04 	andeq	sl, r8, r4, lsl #24
    6b88:	79040f00 	stmdbvc	r4, {r8, r9, sl, fp}
    6b8c:	1e000001 	cdpne	0, 0, cr0, cr0, cr1, {0}
    6b90:	000008ce 	andeq	r0, r0, lr, asr #17
    6b94:	00002c14 	andeq	r2, r0, r4, lsl ip
    6b98:	040f0000 	streq	r0, [pc], #-0	; 6ba0 <__data_load__+0x5d40>
    6b9c:	000008d4 	ldrdeq	r0, [r0], -r4
    6ba0:	08c3040f 	stmiaeq	r3, {r0, r1, r2, r3, sl}^
    6ba4:	45080000 	strmi	r0, [r8, #-0]
    6ba8:	ea000006 	b	6bc8 <__data_load__+0x5d68>
    6bac:	09000008 	stmdbeq	r0, {r3}
    6bb0:	00000025 	andeq	r0, r0, r5, lsr #32
    6bb4:	7d1f0002 	ldcvc	0, cr0, [pc, #-8]	; 6bb4 <__data_load__+0x5d54>
    6bb8:	04000005 	streq	r0, [r0], #-5
    6bbc:	56170333 			; <UNDEFINED> instruction: 0x56170333
    6bc0:	20000004 	andcs	r0, r0, r4
    6bc4:	00000459 	andeq	r0, r0, r9, asr r4
    6bc8:	2c051a01 			; <UNDEFINED> instruction: 0x2c051a01
    6bcc:	05000000 	streq	r0, [r0, #-0]
    6bd0:	0008cc03 	andeq	ip, r8, r3, lsl #24
    6bd4:	0ca32120 	stfeqs	f2, [r3], #128	; 0x80
    6bd8:	36040000 	strcc	r0, [r4], -r0
    6bdc:	0cf80603 	ldcleq	6, cr0, [r8], #12
    6be0:	00a00000 	adceq	r0, r0, r0
    6be4:	9c010000 	stcls	0, cr0, [r1], {-0}
    6be8:	00000a77 	andeq	r0, r0, r7, ror sl
    6bec:	72747022 	rsbsvc	r7, r4, #34	; 0x22
    6bf0:	202c0100 	eorcs	r0, ip, r0, lsl #2
    6bf4:	00000456 	andeq	r0, r0, r6, asr r4
    6bf8:	00001c18 	andeq	r1, r0, r8, lsl ip
    6bfc:	00001c12 	andeq	r1, r0, r2, lsl ip
    6c00:	000d0c23 	andeq	r0, sp, r3, lsr #24
    6c04:	00002200 	andeq	r2, r0, r0, lsl #4
    6c08:	0009a200 	andeq	sl, r9, r0, lsl #4
    6c0c:	00692400 	rsbeq	r2, r9, r0, lsl #8
    6c10:	2c083701 	stccs	7, cr3, [r8], {1}
    6c14:	23000000 	movwcs	r0, #0
    6c18:	00000d0c 	andeq	r0, r0, ip, lsl #26
    6c1c:	00000014 	andeq	r0, r0, r4, lsl r0
    6c20:	00000991 	muleq	r0, r1, r9
    6c24:	000cb225 	andeq	fp, ip, r5, lsr #4
    6c28:	183a0100 	ldmdane	sl!, {r8}
    6c2c:	00000179 	andeq	r0, r0, r9, ror r1
    6c30:	00001c48 	andeq	r1, r0, r8, asr #24
    6c34:	00001c44 	andeq	r1, r0, r4, asr #24
    6c38:	000cf925 	andeq	pc, ip, r5, lsr #18
    6c3c:	223a0100 	eorscs	r0, sl, #0, 2
    6c40:	00000179 	andeq	r0, r0, r9, ror r1
    6c44:	00001c68 	andeq	r1, r0, r8, ror #24
    6c48:	00001c66 	andeq	r1, r0, r6, ror #24
    6c4c:	000d1c26 	andeq	r1, sp, r6, lsr #24
    6c50:	000bd300 	andeq	sp, fp, r0, lsl #6
    6c54:	50012700 	andpl	r2, r1, r0, lsl #14
    6c58:	00007502 	andeq	r7, r0, r2, lsl #10
    6c5c:	0d2e2600 	stceq	6, cr2, [lr, #-0]
    6c60:	0bd30000 	bleq	ff4c6c68 <__stack+0xdf4c6390>
    6c64:	01270000 			; <UNDEFINED> instruction: 0x01270000
    6c68:	00750250 	rsbseq	r0, r5, r0, asr r2
    6c6c:	4e230000 	cdpmi	0, 2, cr0, cr3, cr0, {0}
    6c70:	0e00000d 	cdpeq	0, 0, cr0, cr0, cr13, {0}
    6c74:	e4000000 	str	r0, [r0], #-0
    6c78:	28000009 	stmdacs	r0, {r0, r3}
    6c7c:	66010070 			; <UNDEFINED> instruction: 0x66010070
    6c80:	0002aa14 	andeq	sl, r2, r4, lsl sl
    6c84:	001c7d00 	andseq	r7, ip, r0, lsl #26
    6c88:	001c7b00 	andseq	r7, ip, r0, lsl #22
    6c8c:	00712800 	rsbseq	r2, r1, r0, lsl #16
    6c90:	aa186601 	bge	62049c <_bsl_base_address+0x41e49c>
    6c94:	94000002 	strls	r0, [r0], #-2
    6c98:	9000001c 	andls	r0, r0, ip, lsl r0
    6c9c:	2600001c 			; <UNDEFINED> instruction: 0x2600001c
    6ca0:	00000d58 	andeq	r0, r0, r8, asr sp
    6ca4:	00000bd3 	ldrdeq	r0, [r0], -r3
    6ca8:	02500127 	subseq	r0, r0, #-1073741815	; 0xc0000009
    6cac:	00000075 	andeq	r0, r0, r5, ror r0
    6cb0:	000a7729 	andeq	r7, sl, r9, lsr #14
    6cb4:	000d7e00 	andeq	r7, sp, r0, lsl #28
    6cb8:	0d7e0100 	ldfeqe	f0, [lr, #-0]
    6cbc:	00140000 	andseq	r0, r4, r0
    6cc0:	80010000 	andhi	r0, r1, r0
    6cc4:	000a4206 	andeq	r4, sl, r6, lsl #4
    6cc8:	0a902a00 	beq	fe4114d0 <__stack+0xde410bf8>
    6ccc:	1cb40000 	ldcne	0, cr0, [r4]
    6cd0:	1cb20000 	ldcne	0, cr0, [r2]
    6cd4:	842a0000 	strthi	r0, [sl], #-0
    6cd8:	c900000a 	stmdbgt	r0, {r1, r3}
    6cdc:	c700001c 	smladgt	r0, ip, r0, r0
    6ce0:	2b00001c 	blcs	6d58 <__data_load__+0x5ef8>
    6ce4:	00000d8a 	andeq	r0, r0, sl, lsl #27
    6ce8:	00000a77 	andeq	r0, r0, r7, ror sl
    6cec:	00000a2b 	andeq	r0, r0, fp, lsr #20
    6cf0:	02500127 	subseq	r0, r0, #-1073741815	; 0xc0000009
    6cf4:	26000075 			; <UNDEFINED> instruction: 0x26000075
    6cf8:	00000d92 	muleq	r0, r2, sp
    6cfc:	00000bd3 	ldrdeq	r0, [r0], -r3
    6d00:	02500127 	subseq	r0, r0, #-1073741815	; 0xc0000009
    6d04:	01270075 			; <UNDEFINED> instruction: 0x01270075
    6d08:	00740251 	rsbseq	r0, r4, r1, asr r2
    6d0c:	3a2b0000 	bcc	ac6d14 <_bsl_base_address+0x8c4d14>
    6d10:	d300000d 	movwle	r0, #13
    6d14:	5600000b 	strpl	r0, [r0], -fp
    6d18:	2700000a 	strcs	r0, [r0, -sl]
    6d1c:	75025001 	strvc	r5, [r2, #-1]
    6d20:	682b0000 	stmdavs	fp!, {}	; <UNPREDICTABLE>
    6d24:	d300000d 	movwle	r0, #13
    6d28:	6a00000b 	bvs	6d5c <__data_load__+0x5efc>
    6d2c:	2700000a 	strcs	r0, [r0, -sl]
    6d30:	75025001 	strvc	r5, [r2, #-1]
    6d34:	742c0000 	strtvc	r0, [ip], #-0
    6d38:	2700000d 	strcs	r0, [r0, -sp]
    6d3c:	75025001 	strvc	r5, [r2, #-1]
    6d40:	2d000000 	stccs	0, cr0, [r0, #-0]
    6d44:	00000cba 			; <UNDEFINED> instruction: 0x00000cba
    6d48:	01012101 	tsteq	r1, r1, lsl #2
    6d4c:	00000a9d 	muleq	r0, sp, sl
    6d50:	7274702e 	rsbsvc	r7, r4, #46	; 0x2e
    6d54:	1e210100 	sufnes	f0, f1, f0
    6d58:	00000456 	andeq	r0, r0, r6, asr r4
    6d5c:	000cc22f 	andeq	ip, ip, pc, lsr #4
    6d60:	14220100 	strtne	r0, [r2], #-256	; 0xffffff00
    6d64:	0000068b 	andeq	r0, r0, fp, lsl #13
    6d68:	0a773000 	beq	1dd2d70 <_bsl_base_address+0x1bd0d70>
    6d6c:	0ca80000 	stceq	0, cr0, [r8]
    6d70:	004e0000 	subeq	r0, lr, r0
    6d74:	9c010000 	stcls	0, cr0, [r1], {-0}
    6d78:	00000bd3 	ldrdeq	r0, [r0], -r3
    6d7c:	000a842a 	andeq	r8, sl, sl, lsr #8
    6d80:	001ce200 	andseq	lr, ip, r0, lsl #4
    6d84:	001cdc00 	andseq	sp, ip, r0, lsl #24
    6d88:	0a902a00 	beq	fe411590 <__stack+0xde410cb8>
    6d8c:	1d140000 	ldcne	0, cr0, [r4, #-0]
    6d90:	1d0e0000 	stcne	0, cr0, [lr, #-0]
    6d94:	77290000 	strvc	r0, [r9, -r0]!
    6d98:	b800000a 	stmdalt	r0, {r1, r3}
    6d9c:	0100000c 	tsteq	r0, ip
    6da0:	00000cb8 			; <UNDEFINED> instruction: 0x00000cb8
    6da4:	00000030 	andeq	r0, r0, r0, lsr r0
    6da8:	bc052601 	stclt	6, cr2, [r5], {1}
    6dac:	2a00000b 	bcs	6de0 <__data_load__+0x5f80>
    6db0:	00000a90 	muleq	r0, r0, sl
    6db4:	00001d42 	andeq	r1, r0, r2, asr #26
    6db8:	00001d40 	andeq	r1, r0, r0, asr #26
    6dbc:	000a842a 	andeq	r8, sl, sl, lsr #8
    6dc0:	001d5900 	andseq	r5, sp, r0, lsl #18
    6dc4:	001d5500 	andseq	r5, sp, r0, lsl #10
    6dc8:	0a772900 	beq	1dd11d0 <_bsl_base_address+0x1bcf1d0>
    6dcc:	0cbe0000 	ldceq	0, cr0, [lr]
    6dd0:	be010000 	cdplt	0, 0, cr0, cr1, cr0, {0}
    6dd4:	2200000c 	andcs	r0, r0, #12
    6dd8:	01000000 	mrseq	r0, (UNDEF: 0)
    6ddc:	0ba50526 	bleq	fe94827c <__stack+0xde9479a4>
    6de0:	902a0000 	eorls	r0, sl, r0
    6de4:	7900000a 	stmdbvc	r0, {r1, r3}
    6de8:	7700001d 	smladvc	r0, sp, r0, r0
    6dec:	2a00001d 	bcs	6e68 <__data_load__+0x6008>
    6df0:	00000a84 	andeq	r0, r0, r4, lsl #21
    6df4:	00001d90 	muleq	r0, r0, sp
    6df8:	00001d8c 	andeq	r1, r0, ip, lsl #27
    6dfc:	000a7729 	andeq	r7, sl, r9, lsr #14
    6e00:	000cc600 	andeq	ip, ip, r0, lsl #12
    6e04:	0cc60100 	stfeqe	f0, [r6], {0}
    6e08:	00120000 	andseq	r0, r2, r0
    6e0c:	26010000 	strcs	r0, [r1], -r0
    6e10:	000b8e05 	andeq	r8, fp, r5, lsl #28
    6e14:	0a902a00 	beq	fe41161c <__stack+0xde410d44>
    6e18:	1db20000 	ldcne	0, cr0, [r2]
    6e1c:	1dae0000 	stcne	0, cr0, [lr]
    6e20:	842a0000 	strthi	r0, [sl], #-0
    6e24:	d400000a 	strle	r0, [r0], #-10
    6e28:	d000001d 	andle	r0, r0, sp, lsl r0
    6e2c:	2b00001d 	blcs	6ea8 <__data_load__+0x6048>
    6e30:	00000cd0 	ldrdeq	r0, [r0], -r0	; <UNPREDICTABLE>
    6e34:	00000a77 	andeq	r0, r0, r7, ror sl
    6e38:	00000b77 	andeq	r0, r0, r7, ror fp
    6e3c:	02500127 	subseq	r0, r0, #-1073741815	; 0xc0000009
    6e40:	26000074 			; <UNDEFINED> instruction: 0x26000074
    6e44:	00000cd8 	ldrdeq	r0, [r0], -r8
    6e48:	00000bd3 	ldrdeq	r0, [r0], -r3
    6e4c:	02500127 	subseq	r0, r0, #-1073741815	; 0xc0000009
    6e50:	01270074 			; <UNDEFINED> instruction: 0x01270074
    6e54:	00780251 	rsbseq	r0, r8, r1, asr r2
    6e58:	e0260000 	eor	r0, r6, r0
    6e5c:	d300000c 	movwle	r0, #12
    6e60:	2700000b 	strcs	r0, [r0, -fp]
    6e64:	74025001 	strvc	r5, [r2], #-1
    6e68:	51012700 	tstpl	r1, r0, lsl #14
    6e6c:	00007702 	andeq	r7, r0, r2, lsl #14
    6e70:	0ce82600 	stcleq	6, cr2, [r8]
    6e74:	0bd30000 	bleq	ff4c6e7c <__stack+0xdf4c65a4>
    6e78:	01270000 			; <UNDEFINED> instruction: 0x01270000
    6e7c:	00740250 	rsbseq	r0, r4, r0, asr r2
    6e80:	02510127 	subseq	r0, r1, #-1073741815	; 0xc0000009
    6e84:	00000076 	andeq	r0, r0, r6, ror r0
    6e88:	000cf026 	andeq	pc, ip, r6, lsr #32
    6e8c:	000bd300 	andeq	sp, fp, r0, lsl #6
    6e90:	50012700 	andpl	r2, r1, r0, lsl #14
    6e94:	27007402 	strcs	r7, [r0, -r2, lsl #8]
    6e98:	75025101 	strvc	r5, [r2, #-257]	; 0xfffffeff
    6e9c:	31000000 	mrscc	r0, (UNDEF: 0)
    6ea0:	0000084e 	andeq	r0, r0, lr, asr #16
    6ea4:	0000084e 	andeq	r0, r0, lr, asr #16
    6ea8:	06012806 	streq	r2, [r1], -r6, lsl #16
    6eac:	00009900 	andeq	r9, r0, r0, lsl #18
    6eb0:	74000400 	strvc	r0, [r0], #-1024	; 0xfffffc00
    6eb4:	0400001a 	streq	r0, [r0], #-26	; 0xffffffe6
    6eb8:	000d0101 	andeq	r0, sp, r1, lsl #2
    6ebc:	0db60c00 	ldceq	12, cr0, [r6]
    6ec0:	0d5e0000 	ldcleq	0, cr0, [lr, #-0]
    6ec4:	0d980000 	ldceq	0, cr0, [r8]
    6ec8:	001c0000 	andseq	r0, ip, r0
    6ecc:	1fec0000 	svcne	0x00ec0000
    6ed0:	b2020000 	andlt	r0, r2, #0
    6ed4:	0100000b 	tsteq	r0, fp
    6ed8:	00860107 	addeq	r0, r6, r7, lsl #2
    6edc:	0d980000 	ldceq	0, cr0, [r8]
    6ee0:	001c0000 	andseq	r0, ip, r0
    6ee4:	9c010000 	stcls	0, cr0, [r1], {-0}
    6ee8:	00000086 	andeq	r0, r0, r6, lsl #1
    6eec:	000b7103 	andeq	r7, fp, r3, lsl #2
    6ef0:	0a080100 	beq	2072f8 <_bsl_base_address+0x52f8>
    6ef4:	00000088 	andeq	r0, r0, r8, lsl #1
    6ef8:	00001dfa 	strdeq	r1, [r0], -sl
    6efc:	00001df2 	strdeq	r1, [r0], -r2
    6f00:	646e6504 	strbtvs	r6, [lr], #-1284	; 0xfffffafc
    6f04:	120a0100 	andne	r0, sl, #0, 2
    6f08:	0000008f 	andeq	r0, r0, pc, lsl #1
    6f0c:	000de905 	andeq	lr, sp, r5, lsl #18
    6f10:	120b0100 	andne	r0, fp, #0, 2
    6f14:	00000096 	muleq	r0, r6, r0
    6f18:	08d00305 	ldmeq	r0, {r0, r2, r8, r9}^
    6f1c:	e4062000 	str	r2, [r6], #-0
    6f20:	0100000d 	tsteq	r0, sp
    6f24:	0096120c 	addseq	r1, r6, ip, lsl #4
    6f28:	1e330000 	cdpne	0, 3, cr0, cr3, cr0, {0}
    6f2c:	1e310000 	cdpne	0, 3, cr0, cr1, cr0, {0}
    6f30:	07000000 	streq	r0, [r0, -r0]
    6f34:	05040804 	streq	r0, [r4, #-2052]	; 0xfffff7fc
    6f38:	00746e69 	rsbseq	r6, r4, r9, ror #28
    6f3c:	ba080109 	blt	207368 <_bsl_base_address+0x5368>
    6f40:	0a000000 	beq	6f48 <__data_load__+0x60e8>
    6f44:	00008f04 	andeq	r8, r0, r4, lsl #30
    6f48:	009f0000 	addseq	r0, pc, r0
    6f4c:	00040000 	andeq	r0, r4, r0
    6f50:	00001b16 	andeq	r1, r0, r6, lsl fp
    6f54:	0d010104 	stfeqs	f0, [r1, #-16]
    6f58:	f20c0000 	vhadd.s8	d0, d12, d0
    6f5c:	5e00000d 	cdppl	0, 0, cr0, cr0, cr13, {0}
    6f60:	b400000d 	strlt	r0, [r0], #-13
    6f64:	0200000d 	andeq	r0, r0, #13
    6f68:	72000000 	andvc	r0, r0, #0
    6f6c:	02000020 	andeq	r0, r0, #32
    6f70:	00b30601 	adcseq	r0, r3, r1, lsl #12
    6f74:	01020000 	mrseq	r0, (UNDEF: 2)
    6f78:	0000b108 	andeq	fp, r0, r8, lsl #2
    6f7c:	05020200 	streq	r0, [r2, #-512]	; 0xfffffe00
    6f80:	0000020f 	andeq	r0, r0, pc, lsl #4
    6f84:	f0070202 			; <UNDEFINED> instruction: 0xf0070202
    6f88:	02000001 	andeq	r0, r0, #1
    6f8c:	00990504 	addseq	r0, r9, r4, lsl #10
    6f90:	04020000 	streq	r0, [r2], #-0
    6f94:	00015107 	andeq	r5, r1, r7, lsl #2
    6f98:	05080200 	streq	r0, [r8, #-512]	; 0xfffffe00
    6f9c:	00000094 	muleq	r0, r4, r0
    6fa0:	4c070802 	stcmi	8, cr0, [r7], {2}
    6fa4:	03000001 	movweq	r0, #1
    6fa8:	6e690504 	cdpvs	5, 6, cr0, cr9, cr4, {0}
    6fac:	04020074 	streq	r0, [r2], #-116	; 0xffffff8c
    6fb0:	00015607 	andeq	r5, r1, r7, lsl #12
    6fb4:	04080200 	streq	r0, [r8], #-512	; 0xfffffe00
    6fb8:	00000203 	andeq	r0, r0, r3, lsl #4
    6fbc:	0002aa04 	andeq	sl, r2, r4, lsl #20
    6fc0:	01090100 	mrseq	r0, (UNDEF: 25)
    6fc4:	00000db4 			; <UNDEFINED> instruction: 0x00000db4
    6fc8:	00000002 	andeq	r0, r0, r2
    6fcc:	72059c01 	andvc	r9, r5, #256	; 0x100
    6fd0:	09010063 	stmdbeq	r1, {r0, r1, r5, r6}
    6fd4:	00005d0c 	andeq	r5, r0, ip, lsl #26
    6fd8:	001e4c00 	andseq	r4, lr, r0, lsl #24
    6fdc:	001e4a00 	andseq	r4, lr, r0, lsl #20
    6fe0:	00780600 	rsbseq	r0, r8, r0, lsl #12
    6fe4:	5d070c01 	stcpl	12, cr0, [r7, #-4]
    6fe8:	00000000 	andeq	r0, r0, r0
	...

Disassembly of section .debug_abbrev:

00000000 <.debug_abbrev>:
       0:	10001101 	andne	r1, r0, r1, lsl #2
       4:	12011106 	andne	r1, r1, #-2147483647	; 0x80000001
       8:	1b0e0301 	blne	380c14 <_bsl_base_address+0x17ec14>
       c:	130e250e 	movwne	r2, #58638	; 0xe50e
      10:	00000005 	andeq	r0, r0, r5
      14:	25011101 	strcs	r1, [r1, #-257]	; 0xfffffeff
      18:	030b130e 	movweq	r1, #45838	; 0xb30e
      1c:	110e1b0e 	tstne	lr, lr, lsl #22
      20:	10061201 	andne	r1, r6, r1, lsl #4
      24:	02000017 	andeq	r0, r0, #23
      28:	0b0b0024 	bleq	2c00c0 <_bsl_base_address+0xbe0c0>
      2c:	0e030b3e 	vmoveq.16	d3[0], r0
      30:	24030000 	strcs	r0, [r3], #-0
      34:	3e0b0b00 	vmlacc.f64	d0, d11, d0
      38:	0008030b 	andeq	r0, r8, fp, lsl #6
      3c:	000f0400 	andeq	r0, pc, r0, lsl #8
      40:	13490b0b 	movtne	r0, #39691	; 0x9b0b
      44:	15050000 	strne	r0, [r5, #-0]
      48:	00192700 	andseq	r2, r9, r0, lsl #14
      4c:	01040600 	tsteq	r4, r0, lsl #12
      50:	0b3e0e03 	bleq	f83864 <_bsl_base_address+0xd81864>
      54:	13490b0b 	movtne	r0, #39691	; 0x9b0b
      58:	0b3b0b3a 	bleq	ec2d48 <_bsl_base_address+0xcc0d48>
      5c:	13010b39 	movwne	r0, #6969	; 0x1b39
      60:	28070000 	stmdacs	r7, {}	; <UNPREDICTABLE>
      64:	1c0e0300 	stcne	3, cr0, [lr], {-0}
      68:	0800000b 	stmdaeq	r0, {r0, r1, r3}
      6c:	193f012e 	ldmdbne	pc!, {r1, r2, r3, r5, r8}	; <UNPREDICTABLE>
      70:	0b3a0e03 	bleq	e83884 <_bsl_base_address+0xc81884>
      74:	0b390b3b 	bleq	e42d68 <_bsl_base_address+0xc40d68>
      78:	13491927 	movtne	r1, #39207	; 0x9927
      7c:	06120111 			; <UNDEFINED> instruction: 0x06120111
      80:	42971840 	addsmi	r1, r7, #64, 16	; 0x400000
      84:	00130119 	andseq	r0, r3, r9, lsl r1
      88:	00050900 	andeq	r0, r5, r0, lsl #18
      8c:	0b3a0803 	bleq	e820a0 <_bsl_base_address+0xc800a0>
      90:	0b390b3b 	bleq	e42d84 <_bsl_base_address+0xc40d84>
      94:	17021349 	strne	r1, [r2, -r9, asr #6]
      98:	001742b7 			; <UNDEFINED> instruction: 0x001742b7
      9c:	82890a00 	addhi	r0, r9, #0, 20
      a0:	01110101 	tsteq	r1, r1, lsl #2
      a4:	00001331 	andeq	r1, r0, r1, lsr r3
      a8:	01828a0b 	orreq	r8, r2, fp, lsl #20
      ac:	91180200 	tstls	r8, r0, lsl #4
      b0:	00001842 	andeq	r1, r0, r2, asr #16
      b4:	3f002e0c 	svccc	0x00002e0c
      b8:	6e193c19 	mrcvs	12, 0, r3, cr9, cr9, {0}
      bc:	3a0e030e 	bcc	380cfc <_bsl_base_address+0x17ecfc>
      c0:	390b3b0b 	stmdbcc	fp, {r0, r1, r3, r8, r9, fp, ip, sp}
      c4:	0000000b 	andeq	r0, r0, fp
      c8:	25011101 	strcs	r1, [r1, #-257]	; 0xfffffeff
      cc:	030b130e 	movweq	r1, #45838	; 0xb30e
      d0:	110e1b0e 	tstne	lr, lr, lsl #22
      d4:	10061201 	andne	r1, r6, r1, lsl #4
      d8:	02000017 	andeq	r0, r0, #23
      dc:	0b0b0024 	bleq	2c0174 <_bsl_base_address+0xbe174>
      e0:	0e030b3e 	vmoveq.16	d3[0], r0
      e4:	24030000 	strcs	r0, [r3], #-0
      e8:	3e0b0b00 	vmlacc.f64	d0, d11, d0
      ec:	0008030b 	andeq	r0, r8, fp, lsl #6
      f0:	00160400 	andseq	r0, r6, r0, lsl #8
      f4:	0b3a0e03 	bleq	e83908 <_bsl_base_address+0xc81908>
      f8:	0b39053b 	bleq	e415ec <_bsl_base_address+0xc3f5ec>
      fc:	00001349 	andeq	r1, r0, r9, asr #6
     100:	03001605 	movweq	r1, #1541	; 0x605
     104:	3b0b3a0e 	blcc	2ce944 <_bsl_base_address+0xcc944>
     108:	490b390b 	stmdbmi	fp, {r0, r1, r3, r8, fp, ip, sp}
     10c:	06000013 			; <UNDEFINED> instruction: 0x06000013
     110:	0b0b0117 	bleq	2c0574 <_bsl_base_address+0xbe574>
     114:	0b3b0b3a 	bleq	ec2e04 <_bsl_base_address+0xcc0e04>
     118:	13010b39 	movwne	r0, #6969	; 0x1b39
     11c:	0d070000 	stceq	0, cr0, [r7, #-0]
     120:	3a0e0300 	bcc	380d28 <_bsl_base_address+0x17ed28>
     124:	390b3b0b 	stmdbcc	fp, {r0, r1, r3, r8, r9, fp, ip, sp}
     128:	0013490b 	andseq	r4, r3, fp, lsl #18
     12c:	01010800 	tsteq	r1, r0, lsl #16
     130:	13011349 	movwne	r1, #4937	; 0x1349
     134:	21090000 	mrscs	r0, (UNDEF: 9)
     138:	2f134900 	svccs	0x00134900
     13c:	0a00000b 	beq	170 <func+0xc>
     140:	0b0b0113 	bleq	2c0594 <_bsl_base_address+0xbe594>
     144:	0b3b0b3a 	bleq	ec2e34 <_bsl_base_address+0xcc0e34>
     148:	13010b39 	movwne	r0, #6969	; 0x1b39
     14c:	0d0b0000 	stceq	0, cr0, [fp, #-0]
     150:	3a0e0300 	bcc	380d58 <_bsl_base_address+0x17ed58>
     154:	390b3b0b 	stmdbcc	fp, {r0, r1, r3, r8, r9, fp, ip, sp}
     158:	3813490b 	ldmdacc	r3, {r0, r1, r3, r8, fp, lr}
     15c:	0c00000b 	stceq	0, cr0, [r0], {11}
     160:	0b0b000f 	bleq	2c01a4 <_bsl_base_address+0xbe1a4>
     164:	130d0000 	movwne	r0, #53248	; 0xd000
     168:	0b0e0301 	bleq	380d74 <_bsl_base_address+0x17ed74>
     16c:	3b0b3a0b 	blcc	2ce9a0 <_bsl_base_address+0xcc9a0>
     170:	010b390b 	tsteq	fp, fp, lsl #18
     174:	0e000013 	mcreq	0, 0, r0, cr0, cr3, {0}
     178:	0803000d 	stmdaeq	r3, {r0, r2, r3}
     17c:	0b3b0b3a 	bleq	ec2e6c <_bsl_base_address+0xcc0e6c>
     180:	13490b39 	movtne	r0, #39737	; 0x9b39
     184:	00000b38 	andeq	r0, r0, r8, lsr fp
     188:	0b000f0f 	bleq	3dcc <__data_load__+0x2f6c>
     18c:	0013490b 	andseq	r4, r3, fp, lsl #18
     190:	01131000 	tsteq	r3, r0
     194:	050b0e03 	streq	r0, [fp, #-3587]	; 0xfffff1fd
     198:	0b3b0b3a 	bleq	ec2e88 <_bsl_base_address+0xcc0e88>
     19c:	13010b39 	movwne	r0, #6969	; 0x1b39
     1a0:	0d110000 	ldceq	0, cr0, [r1, #-0]
     1a4:	3a0e0300 	bcc	380dac <_bsl_base_address+0x17edac>
     1a8:	390b3b0b 	stmdbcc	fp, {r0, r1, r3, r8, r9, fp, ip, sp}
     1ac:	3813490b 	ldmdacc	r3, {r0, r1, r3, r8, fp, lr}
     1b0:	12000005 	andne	r0, r0, #5
     1b4:	19270015 	stmdbne	r7!, {r0, r2, r4}
     1b8:	15130000 	ldrne	r0, [r3, #-0]
     1bc:	49192701 	ldmdbmi	r9, {r0, r8, r9, sl, sp}
     1c0:	00130113 	andseq	r0, r3, r3, lsl r1
     1c4:	00051400 	andeq	r1, r5, r0, lsl #8
     1c8:	00001349 	andeq	r1, r0, r9, asr #6
     1cc:	49002615 	stmdbmi	r0, {r0, r2, r4, r9, sl, sp}
     1d0:	16000013 			; <UNDEFINED> instruction: 0x16000013
     1d4:	0e030113 	mcreq	1, 0, r0, cr3, cr3, {0}
     1d8:	0b3a050b 	bleq	e8160c <_bsl_base_address+0xc7f60c>
     1dc:	0b39053b 	bleq	e416d0 <_bsl_base_address+0xc3f6d0>
     1e0:	00001301 	andeq	r1, r0, r1, lsl #6
     1e4:	03000d17 	movweq	r0, #3351	; 0xd17
     1e8:	3b0b3a0e 	blcc	2cea28 <_bsl_base_address+0xcca28>
     1ec:	490b3905 	stmdbmi	fp, {r0, r2, r8, fp, ip, sp}
     1f0:	000b3813 	andeq	r3, fp, r3, lsl r8
     1f4:	000d1800 	andeq	r1, sp, r0, lsl #16
     1f8:	0b3a0e03 	bleq	e83a0c <_bsl_base_address+0xc81a0c>
     1fc:	0b39053b 	bleq	e416f0 <_bsl_base_address+0xc3f6f0>
     200:	05381349 	ldreq	r1, [r8, #-841]!	; 0xfffffcb7
     204:	13190000 	tstne	r9, #0
     208:	0b0e0301 	bleq	380e14 <_bsl_base_address+0x17ee14>
     20c:	3b0b3a0b 	blcc	2cea40 <_bsl_base_address+0xcca40>
     210:	010b3905 	tsteq	fp, r5, lsl #18
     214:	1a000013 	bne	268 <__libc_init_array+0x3c>
     218:	0b0b0113 	bleq	2c066c <_bsl_base_address+0xbe66c>
     21c:	053b0b3a 	ldreq	r0, [fp, #-2874]!	; 0xfffff4c6
     220:	13010b39 	movwne	r0, #6969	; 0x1b39
     224:	171b0000 	ldrne	r0, [fp, -r0]
     228:	3a0b0b01 	bcc	2c2e34 <_bsl_base_address+0xc0e34>
     22c:	39053b0b 	stmdbcc	r5, {r0, r1, r3, r8, r9, fp, ip, sp}
     230:	0013010b 	andseq	r0, r3, fp, lsl #2
     234:	000d1c00 	andeq	r1, sp, r0, lsl #24
     238:	0b3a0e03 	bleq	e83a4c <_bsl_base_address+0xc81a4c>
     23c:	0b39053b 	bleq	e41730 <_bsl_base_address+0xc3f730>
     240:	00001349 	andeq	r1, r0, r9, asr #6
     244:	0300131d 	movweq	r1, #797	; 0x31d
     248:	00193c0e 	andseq	r3, r9, lr, lsl #24
     24c:	01151e00 	tsteq	r5, r0, lsl #28
     250:	13011927 	movwne	r1, #6439	; 0x1927
     254:	341f0000 	ldrcc	r0, [pc], #-0	; 25c <__libc_init_array+0x30>
     258:	3a0e0300 	bcc	380e60 <_bsl_base_address+0x17ee60>
     25c:	39053b0b 	stmdbcc	r5, {r0, r1, r3, r8, r9, fp, ip, sp}
     260:	3f13490b 	svccc	0x0013490b
     264:	00193c19 	andseq	r3, r9, r9, lsl ip
     268:	012e2000 			; <UNDEFINED> instruction: 0x012e2000
     26c:	0e03193f 			; <UNDEFINED> instruction: 0x0e03193f
     270:	0b3b0b3a 	bleq	ec2f60 <_bsl_base_address+0xcc0f60>
     274:	19270b39 	stmdbne	r7!, {r0, r3, r4, r5, r8, r9, fp}
     278:	11190187 	tstne	r9, r7, lsl #3
     27c:	40061201 	andmi	r1, r6, r1, lsl #4
     280:	19429618 	stmdbne	r2, {r3, r4, r9, sl, ip, pc}^
     284:	00001301 	andeq	r1, r0, r1, lsl #6
     288:	03000521 	movweq	r0, #1313	; 0x521
     28c:	3b0b3a0e 	blcc	2ceacc <_bsl_base_address+0xccacc>
     290:	490b390b 	stmdbmi	fp, {r0, r1, r3, r8, fp, ip, sp}
     294:	b7170213 			; <UNDEFINED> instruction: 0xb7170213
     298:	00001742 	andeq	r1, r0, r2, asr #14
     29c:	01828922 	orreq	r8, r2, r2, lsr #18
     2a0:	31011101 	tstcc	r1, r1, lsl #2
     2a4:	00130113 	andseq	r0, r3, r3, lsl r1
     2a8:	828a2300 	addhi	r2, sl, #0, 6
     2ac:	18020001 	stmdane	r2, {r0}
     2b0:	00184291 	mulseq	r8, r1, r2
     2b4:	82892400 	addhi	r2, r9, #0, 8
     2b8:	01110101 	tsteq	r1, r1, lsl #2
     2bc:	00001331 	andeq	r1, r0, r1, lsr r3
     2c0:	3f002e25 	svccc	0x00002e25
     2c4:	6e193c19 	mrcvs	12, 0, r3, cr9, cr9, {0}
     2c8:	3a0e030e 	bcc	380f08 <_bsl_base_address+0x17ef08>
     2cc:	390b3b0b 	stmdbcc	fp, {r0, r1, r3, r8, r9, fp, ip, sp}
     2d0:	0000000b 	andeq	r0, r0, fp
     2d4:	25011101 	strcs	r1, [r1, #-257]	; 0xfffffeff
     2d8:	030b130e 	movweq	r1, #45838	; 0xb30e
     2dc:	110e1b0e 	tstne	lr, lr, lsl #22
     2e0:	10061201 	andne	r1, r6, r1, lsl #4
     2e4:	02000017 	andeq	r0, r0, #23
     2e8:	0b0b0024 	bleq	2c0380 <_bsl_base_address+0xbe380>
     2ec:	0e030b3e 	vmoveq.16	d3[0], r0
     2f0:	24030000 	strcs	r0, [r3], #-0
     2f4:	3e0b0b00 	vmlacc.f64	d0, d11, d0
     2f8:	0008030b 	andeq	r0, r8, fp, lsl #6
     2fc:	00160400 	andseq	r0, r6, r0, lsl #8
     300:	0b3a0e03 	bleq	e83b14 <_bsl_base_address+0xc81b14>
     304:	0b390b3b 	bleq	e42ff8 <_bsl_base_address+0xc40ff8>
     308:	00001349 	andeq	r1, r0, r9, asr #6
     30c:	49010105 	stmdbmi	r1, {r0, r2, r8}
     310:	00130113 	andseq	r0, r3, r3, lsl r1
     314:	00210600 	eoreq	r0, r1, r0, lsl #12
     318:	0f070000 	svceq	0x00070000
     31c:	490b0b00 	stmdbmi	fp, {r8, r9, fp}
     320:	08000013 	stmdaeq	r0, {r0, r1, r4}
     324:	19270015 	stmdbne	r7!, {r0, r2, r4}
     328:	34090000 	strcc	r0, [r9], #-0
     32c:	3a0e0300 	bcc	380f34 <_bsl_base_address+0x17ef34>
     330:	390b3b0b 	stmdbcc	fp, {r0, r1, r3, r8, r9, fp, ip, sp}
     334:	3f13490b 	svccc	0x0013490b
     338:	00193c19 	andseq	r3, r9, r9, lsl ip
     33c:	012e0a00 			; <UNDEFINED> instruction: 0x012e0a00
     340:	0e03193f 			; <UNDEFINED> instruction: 0x0e03193f
     344:	0b3b0b3a 	bleq	ec3034 <_bsl_base_address+0xcc1034>
     348:	19270b39 	stmdbne	r7!, {r0, r3, r4, r5, r8, r9, fp}
     34c:	06120111 			; <UNDEFINED> instruction: 0x06120111
     350:	42961840 	addsmi	r1, r6, #64, 16	; 0x400000
     354:	00130119 	andseq	r0, r3, r9, lsl r1
     358:	00340b00 	eorseq	r0, r4, r0, lsl #22
     35c:	0b3a0e03 	bleq	e83b70 <_bsl_base_address+0xc81b70>
     360:	0b390b3b 	bleq	e43054 <_bsl_base_address+0xc41054>
     364:	17021349 	strne	r1, [r2, -r9, asr #6]
     368:	001742b7 			; <UNDEFINED> instruction: 0x001742b7
     36c:	00340c00 	eorseq	r0, r4, r0, lsl #24
     370:	0b3a0803 	bleq	e82384 <_bsl_base_address+0xc80384>
     374:	0b390b3b 	bleq	e43068 <_bsl_base_address+0xc41068>
     378:	17021349 	strne	r1, [r2, -r9, asr #6]
     37c:	001742b7 			; <UNDEFINED> instruction: 0x001742b7
     380:	82890d00 	addhi	r0, r9, #0, 26
     384:	01110001 	tsteq	r1, r1
     388:	00001331 	andeq	r1, r0, r1, lsr r3
     38c:	3f002e0e 	svccc	0x00002e0e
     390:	6e193c19 	mrcvs	12, 0, r3, cr9, cr9, {0}
     394:	3a0e030e 	bcc	380fd4 <_bsl_base_address+0x17efd4>
     398:	390b3b0b 	stmdbcc	fp, {r0, r1, r3, r8, r9, fp, ip, sp}
     39c:	0000000b 	andeq	r0, r0, fp
     3a0:	25011101 	strcs	r1, [r1, #-257]	; 0xfffffeff
     3a4:	030b130e 	movweq	r1, #45838	; 0xb30e
     3a8:	100e1b0e 	andne	r1, lr, lr, lsl #22
     3ac:	02000017 	andeq	r0, r0, #23
     3b0:	0b0b0024 	bleq	2c0448 <_bsl_base_address+0xbe448>
     3b4:	08030b3e 	stmdaeq	r3, {r1, r2, r3, r4, r5, r8, r9, fp}
     3b8:	24030000 	strcs	r0, [r3], #-0
     3bc:	3e0b0b00 	vmlacc.f64	d0, d11, d0
     3c0:	000e030b 	andeq	r0, lr, fp, lsl #6
     3c4:	00160400 	andseq	r0, r6, r0, lsl #8
     3c8:	0b3a0e03 	bleq	e83bdc <_bsl_base_address+0xc81bdc>
     3cc:	0b39053b 	bleq	e418c0 <_bsl_base_address+0xc3f8c0>
     3d0:	00001349 	andeq	r1, r0, r9, asr #6
     3d4:	03001605 	movweq	r1, #1541	; 0x605
     3d8:	3b0b3a0e 	blcc	2cec18 <_bsl_base_address+0xccc18>
     3dc:	490b390b 	stmdbmi	fp, {r0, r1, r3, r8, fp, ip, sp}
     3e0:	06000013 			; <UNDEFINED> instruction: 0x06000013
     3e4:	0b0b0117 	bleq	2c0848 <_bsl_base_address+0xbe848>
     3e8:	0b3b0b3a 	bleq	ec30d8 <_bsl_base_address+0xcc10d8>
     3ec:	13010b39 	movwne	r0, #6969	; 0x1b39
     3f0:	0d070000 	stceq	0, cr0, [r7, #-0]
     3f4:	3a0e0300 	bcc	380ffc <_bsl_base_address+0x17effc>
     3f8:	390b3b0b 	stmdbcc	fp, {r0, r1, r3, r8, r9, fp, ip, sp}
     3fc:	0013490b 	andseq	r4, r3, fp, lsl #18
     400:	01010800 	tsteq	r1, r0, lsl #16
     404:	13011349 	movwne	r1, #4937	; 0x1349
     408:	21090000 	mrscs	r0, (UNDEF: 9)
     40c:	2f134900 	svccs	0x00134900
     410:	0a00000b 	beq	444 <_malloc_r+0x1ac>
     414:	0b0b0113 	bleq	2c0868 <_bsl_base_address+0xbe868>
     418:	0b3b0b3a 	bleq	ec3108 <_bsl_base_address+0xcc1108>
     41c:	13010b39 	movwne	r0, #6969	; 0x1b39
     420:	0d0b0000 	stceq	0, cr0, [fp, #-0]
     424:	3a0e0300 	bcc	38102c <_bsl_base_address+0x17f02c>
     428:	390b3b0b 	stmdbcc	fp, {r0, r1, r3, r8, r9, fp, ip, sp}
     42c:	3813490b 	ldmdacc	r3, {r0, r1, r3, r8, fp, lr}
     430:	0c00000b 	stceq	0, cr0, [r0], {11}
     434:	0b0b000f 	bleq	2c0478 <_bsl_base_address+0xbe478>
     438:	130d0000 	movwne	r0, #53248	; 0xd000
     43c:	0b0e0301 	bleq	381048 <_bsl_base_address+0x17f048>
     440:	3b0b3a0b 	blcc	2cec74 <_bsl_base_address+0xccc74>
     444:	010b390b 	tsteq	fp, fp, lsl #18
     448:	0e000013 	mcreq	0, 0, r0, cr0, cr3, {0}
     44c:	0803000d 	stmdaeq	r3, {r0, r2, r3}
     450:	0b3b0b3a 	bleq	ec3140 <_bsl_base_address+0xcc1140>
     454:	13490b39 	movtne	r0, #39737	; 0x9b39
     458:	00000b38 	andeq	r0, r0, r8, lsr fp
     45c:	0b000f0f 	bleq	40a0 <__data_load__+0x3240>
     460:	0013490b 	andseq	r4, r3, fp, lsl #18
     464:	01131000 	tsteq	r3, r0
     468:	050b0e03 	streq	r0, [fp, #-3587]	; 0xfffff1fd
     46c:	0b3b0b3a 	bleq	ec315c <_bsl_base_address+0xcc115c>
     470:	13010b39 	movwne	r0, #6969	; 0x1b39
     474:	0d110000 	ldceq	0, cr0, [r1, #-0]
     478:	3a0e0300 	bcc	381080 <_bsl_base_address+0x17f080>
     47c:	390b3b0b 	stmdbcc	fp, {r0, r1, r3, r8, r9, fp, ip, sp}
     480:	3813490b 	ldmdacc	r3, {r0, r1, r3, r8, fp, lr}
     484:	12000005 	andne	r0, r0, #5
     488:	19270015 	stmdbne	r7!, {r0, r2, r4}
     48c:	15130000 	ldrne	r0, [r3, #-0]
     490:	49192701 	ldmdbmi	r9, {r0, r8, r9, sl, sp}
     494:	00130113 	andseq	r0, r3, r3, lsl r1
     498:	00051400 	andeq	r1, r5, r0, lsl #8
     49c:	00001349 	andeq	r1, r0, r9, asr #6
     4a0:	49002615 	stmdbmi	r0, {r0, r2, r4, r9, sl, sp}
     4a4:	16000013 			; <UNDEFINED> instruction: 0x16000013
     4a8:	0e030113 	mcreq	1, 0, r0, cr3, cr3, {0}
     4ac:	0b3a050b 	bleq	e818e0 <_bsl_base_address+0xc7f8e0>
     4b0:	0b39053b 	bleq	e419a4 <_bsl_base_address+0xc3f9a4>
     4b4:	00001301 	andeq	r1, r0, r1, lsl #6
     4b8:	03000d17 	movweq	r0, #3351	; 0xd17
     4bc:	3b0b3a0e 	blcc	2cecfc <_bsl_base_address+0xcccfc>
     4c0:	490b3905 	stmdbmi	fp, {r0, r2, r8, fp, ip, sp}
     4c4:	000b3813 	andeq	r3, fp, r3, lsl r8
     4c8:	000d1800 	andeq	r1, sp, r0, lsl #16
     4cc:	0b3a0e03 	bleq	e83ce0 <_bsl_base_address+0xc81ce0>
     4d0:	0b39053b 	bleq	e419c4 <_bsl_base_address+0xc3f9c4>
     4d4:	05381349 	ldreq	r1, [r8, #-841]!	; 0xfffffcb7
     4d8:	13190000 	tstne	r9, #0
     4dc:	0b0e0301 	bleq	3810e8 <_bsl_base_address+0x17f0e8>
     4e0:	3b0b3a0b 	blcc	2ced14 <_bsl_base_address+0xccd14>
     4e4:	010b3905 	tsteq	fp, r5, lsl #18
     4e8:	1a000013 	bne	53c <_malloc_r+0x2a4>
     4ec:	0b0b0113 	bleq	2c0940 <_bsl_base_address+0xbe940>
     4f0:	053b0b3a 	ldreq	r0, [fp, #-2874]!	; 0xfffff4c6
     4f4:	13010b39 	movwne	r0, #6969	; 0x1b39
     4f8:	171b0000 	ldrne	r0, [fp, -r0]
     4fc:	3a0b0b01 	bcc	2c3108 <_bsl_base_address+0xc1108>
     500:	39053b0b 	stmdbcc	r5, {r0, r1, r3, r8, r9, fp, ip, sp}
     504:	0013010b 	andseq	r0, r3, fp, lsl #2
     508:	000d1c00 	andeq	r1, sp, r0, lsl #24
     50c:	0b3a0e03 	bleq	e83d20 <_bsl_base_address+0xc81d20>
     510:	0b39053b 	bleq	e41a04 <_bsl_base_address+0xc3fa04>
     514:	00001349 	andeq	r1, r0, r9, asr #6
     518:	0300131d 	movweq	r1, #797	; 0x31d
     51c:	00193c0e 	andseq	r3, r9, lr, lsl #24
     520:	01151e00 	tsteq	r5, r0, lsl #28
     524:	13011927 	movwne	r1, #6439	; 0x1927
     528:	341f0000 	ldrcc	r0, [pc], #-0	; 530 <_malloc_r+0x298>
     52c:	3a0e0300 	bcc	381134 <_bsl_base_address+0x17f134>
     530:	39053b0b 	stmdbcc	r5, {r0, r1, r3, r8, r9, fp, ip, sp}
     534:	3f13490b 	svccc	0x0013490b
     538:	00193c19 	andseq	r3, r9, r9, lsl ip
     53c:	00342000 	eorseq	r2, r4, r0
     540:	0b3a0e03 	bleq	e83d54 <_bsl_base_address+0xc81d54>
     544:	0b390b3b 	bleq	e43238 <_bsl_base_address+0xc41238>
     548:	18021349 	stmdane	r2, {r0, r3, r6, r8, r9, ip}
     54c:	34210000 	strtcc	r0, [r1], #-0
     550:	02134700 	andseq	r4, r3, #0, 14
     554:	00000018 	andeq	r0, r0, r8, lsl r0
     558:	25011101 	strcs	r1, [r1, #-257]	; 0xfffffeff
     55c:	030b130e 	movweq	r1, #45838	; 0xb30e
     560:	110e1b0e 	tstne	lr, lr, lsl #22
     564:	10061201 	andne	r1, r6, r1, lsl #4
     568:	02000017 	andeq	r0, r0, #23
     56c:	0b0b0024 	bleq	2c0604 <_bsl_base_address+0xbe604>
     570:	0e030b3e 	vmoveq.16	d3[0], r0
     574:	24030000 	strcs	r0, [r3], #-0
     578:	3e0b0b00 	vmlacc.f64	d0, d11, d0
     57c:	0008030b 	andeq	r0, r8, fp, lsl #6
     580:	00160400 	andseq	r0, r6, r0, lsl #8
     584:	0b3a0e03 	bleq	e83d98 <_bsl_base_address+0xc81d98>
     588:	0b390b3b 	bleq	e4327c <_bsl_base_address+0xc4127c>
     58c:	00001349 	andeq	r1, r0, r9, asr #6
     590:	49010105 	stmdbmi	r1, {r0, r2, r8}
     594:	00130113 	andseq	r0, r3, r3, lsl r1
     598:	00210600 	eoreq	r0, r1, r0, lsl #12
     59c:	0f070000 	svceq	0x00070000
     5a0:	490b0b00 	stmdbmi	fp, {r8, r9, fp}
     5a4:	08000013 	stmdaeq	r0, {r0, r1, r4}
     5a8:	19270015 	stmdbne	r7!, {r0, r2, r4}
     5ac:	34090000 	strcc	r0, [r9], #-0
     5b0:	3a0e0300 	bcc	3811b8 <_bsl_base_address+0x17f1b8>
     5b4:	390b3b0b 	stmdbcc	fp, {r0, r1, r3, r8, r9, fp, ip, sp}
     5b8:	3f13490b 	svccc	0x0013490b
     5bc:	00193c19 	andseq	r3, r9, r9, lsl ip
     5c0:	012e0a00 			; <UNDEFINED> instruction: 0x012e0a00
     5c4:	0e03193f 			; <UNDEFINED> instruction: 0x0e03193f
     5c8:	0b3b0b3a 	bleq	ec32b8 <_bsl_base_address+0xcc12b8>
     5cc:	19270b39 	stmdbne	r7!, {r0, r3, r4, r5, r8, r9, fp}
     5d0:	06120111 			; <UNDEFINED> instruction: 0x06120111
     5d4:	42961840 	addsmi	r1, r6, #64, 16	; 0x400000
     5d8:	00130119 	andseq	r0, r3, r9, lsl r1
     5dc:	00340b00 	eorseq	r0, r4, r0, lsl #22
     5e0:	0b3a0e03 	bleq	e83df4 <_bsl_base_address+0xc81df4>
     5e4:	0b390b3b 	bleq	e432d8 <_bsl_base_address+0xc412d8>
     5e8:	17021349 	strne	r1, [r2, -r9, asr #6]
     5ec:	001742b7 			; <UNDEFINED> instruction: 0x001742b7
     5f0:	00340c00 	eorseq	r0, r4, r0, lsl #24
     5f4:	0b3a0803 	bleq	e82608 <_bsl_base_address+0xc80608>
     5f8:	0b390b3b 	bleq	e432ec <_bsl_base_address+0xc412ec>
     5fc:	17021349 	strne	r1, [r2, -r9, asr #6]
     600:	001742b7 			; <UNDEFINED> instruction: 0x001742b7
     604:	82890d00 	addhi	r0, r9, #0, 26
     608:	01110001 	tsteq	r1, r1
     60c:	00001331 	andeq	r1, r0, r1, lsr r3
     610:	3f002e0e 	svccc	0x00002e0e
     614:	6e193c19 	mrcvs	12, 0, r3, cr9, cr9, {0}
     618:	3a0e030e 	bcc	381258 <_bsl_base_address+0x17f258>
     61c:	390b3b0b 	stmdbcc	fp, {r0, r1, r3, r8, r9, fp, ip, sp}
     620:	0000000b 	andeq	r0, r0, fp
     624:	25011101 	strcs	r1, [r1, #-257]	; 0xfffffeff
     628:	030b130e 	movweq	r1, #45838	; 0xb30e
     62c:	110e1b0e 	tstne	lr, lr, lsl #22
     630:	10061201 	andne	r1, r6, r1, lsl #4
     634:	02000017 	andeq	r0, r0, #23
     638:	0b0b0024 	bleq	2c06d0 <_bsl_base_address+0xbe6d0>
     63c:	08030b3e 	stmdaeq	r3, {r1, r2, r3, r4, r5, r8, r9, fp}
     640:	16030000 	strne	r0, [r3], -r0
     644:	3a0e0300 	bcc	38124c <_bsl_base_address+0x17f24c>
     648:	390b3b0b 	stmdbcc	fp, {r0, r1, r3, r8, r9, fp, ip, sp}
     64c:	0013490b 	andseq	r4, r3, fp, lsl #18
     650:	00240400 	eoreq	r0, r4, r0, lsl #8
     654:	0b3e0b0b 	bleq	f83288 <_bsl_base_address+0xd81288>
     658:	00000e03 	andeq	r0, r0, r3, lsl #28
     65c:	03001605 	movweq	r1, #1541	; 0x605
     660:	3b0b3a0e 	blcc	2ceea0 <_bsl_base_address+0xccea0>
     664:	490b3905 	stmdbmi	fp, {r0, r2, r8, fp, ip, sp}
     668:	06000013 			; <UNDEFINED> instruction: 0x06000013
     66c:	0b0b0117 	bleq	2c0ad0 <_bsl_base_address+0xbead0>
     670:	0b3b0b3a 	bleq	ec3360 <_bsl_base_address+0xcc1360>
     674:	13010b39 	movwne	r0, #6969	; 0x1b39
     678:	0d070000 	stceq	0, cr0, [r7, #-0]
     67c:	3a0e0300 	bcc	381284 <_bsl_base_address+0x17f284>
     680:	390b3b0b 	stmdbcc	fp, {r0, r1, r3, r8, r9, fp, ip, sp}
     684:	0013490b 	andseq	r4, r3, fp, lsl #18
     688:	01010800 	tsteq	r1, r0, lsl #16
     68c:	13011349 	movwne	r1, #4937	; 0x1349
     690:	21090000 	mrscs	r0, (UNDEF: 9)
     694:	2f134900 	svccs	0x00134900
     698:	0a00000b 	beq	6cc <_malloc_r+0x434>
     69c:	0b0b0113 	bleq	2c0af0 <_bsl_base_address+0xbeaf0>
     6a0:	0b3b0b3a 	bleq	ec3390 <_bsl_base_address+0xcc1390>
     6a4:	13010b39 	movwne	r0, #6969	; 0x1b39
     6a8:	0d0b0000 	stceq	0, cr0, [fp, #-0]
     6ac:	3a0e0300 	bcc	3812b4 <_bsl_base_address+0x17f2b4>
     6b0:	390b3b0b 	stmdbcc	fp, {r0, r1, r3, r8, r9, fp, ip, sp}
     6b4:	3813490b 	ldmdacc	r3, {r0, r1, r3, r8, fp, lr}
     6b8:	0c00000b 	stceq	0, cr0, [r0], {11}
     6bc:	0b0b000f 	bleq	2c0700 <_bsl_base_address+0xbe700>
     6c0:	130d0000 	movwne	r0, #53248	; 0xd000
     6c4:	0b0e0301 	bleq	3812d0 <_bsl_base_address+0x17f2d0>
     6c8:	3b0b3a0b 	blcc	2ceefc <_bsl_base_address+0xccefc>
     6cc:	010b390b 	tsteq	fp, fp, lsl #18
     6d0:	0e000013 	mcreq	0, 0, r0, cr0, cr3, {0}
     6d4:	0803000d 	stmdaeq	r3, {r0, r2, r3}
     6d8:	0b3b0b3a 	bleq	ec33c8 <_bsl_base_address+0xcc13c8>
     6dc:	13490b39 	movtne	r0, #39737	; 0x9b39
     6e0:	00000b38 	andeq	r0, r0, r8, lsr fp
     6e4:	0b000f0f 	bleq	4328 <__data_load__+0x34c8>
     6e8:	0013490b 	andseq	r4, r3, fp, lsl #18
     6ec:	01131000 	tsteq	r3, r0
     6f0:	050b0e03 	streq	r0, [fp, #-3587]	; 0xfffff1fd
     6f4:	0b3b0b3a 	bleq	ec33e4 <_bsl_base_address+0xcc13e4>
     6f8:	13010b39 	movwne	r0, #6969	; 0x1b39
     6fc:	0d110000 	ldceq	0, cr0, [r1, #-0]
     700:	3a0e0300 	bcc	381308 <_bsl_base_address+0x17f308>
     704:	390b3b0b 	stmdbcc	fp, {r0, r1, r3, r8, r9, fp, ip, sp}
     708:	3813490b 	ldmdacc	r3, {r0, r1, r3, r8, fp, lr}
     70c:	12000005 	andne	r0, r0, #5
     710:	19270015 	stmdbne	r7!, {r0, r2, r4}
     714:	15130000 	ldrne	r0, [r3, #-0]
     718:	49192701 	ldmdbmi	r9, {r0, r8, r9, sl, sp}
     71c:	00130113 	andseq	r0, r3, r3, lsl r1
     720:	00051400 	andeq	r1, r5, r0, lsl #8
     724:	00001349 	andeq	r1, r0, r9, asr #6
     728:	03011315 	movweq	r1, #4885	; 0x1315
     72c:	3a050b0e 	bcc	14336c <__data_load__+0x14250c>
     730:	39053b0b 	stmdbcc	r5, {r0, r1, r3, r8, r9, fp, ip, sp}
     734:	0013010b 	andseq	r0, r3, fp, lsl #2
     738:	000d1600 	andeq	r1, sp, r0, lsl #12
     73c:	0b3a0e03 	bleq	e83f50 <_bsl_base_address+0xc81f50>
     740:	0b39053b 	bleq	e41c34 <_bsl_base_address+0xc3fc34>
     744:	0b381349 	bleq	e05470 <_bsl_base_address+0xc03470>
     748:	0d170000 	ldceq	0, cr0, [r7, #-0]
     74c:	3a0e0300 	bcc	381354 <_bsl_base_address+0x17f354>
     750:	39053b0b 	stmdbcc	r5, {r0, r1, r3, r8, r9, fp, ip, sp}
     754:	3813490b 	ldmdacc	r3, {r0, r1, r3, r8, fp, lr}
     758:	18000005 	stmdane	r0, {r0, r2}
     75c:	13490026 	movtne	r0, #36902	; 0x9026
     760:	13190000 	tstne	r9, #0
     764:	0b0e0301 	bleq	381370 <_bsl_base_address+0x17f370>
     768:	3b0b3a0b 	blcc	2cef9c <_bsl_base_address+0xccf9c>
     76c:	010b3905 	tsteq	fp, r5, lsl #18
     770:	1a000013 	bne	7c4 <_malloc_r+0x52c>
     774:	0b0b0113 	bleq	2c0bc8 <_bsl_base_address+0xbebc8>
     778:	053b0b3a 	ldreq	r0, [fp, #-2874]!	; 0xfffff4c6
     77c:	13010b39 	movwne	r0, #6969	; 0x1b39
     780:	171b0000 	ldrne	r0, [fp, -r0]
     784:	3a0b0b01 	bcc	2c3390 <_bsl_base_address+0xc1390>
     788:	39053b0b 	stmdbcc	r5, {r0, r1, r3, r8, r9, fp, ip, sp}
     78c:	0013010b 	andseq	r0, r3, fp, lsl #2
     790:	000d1c00 	andeq	r1, sp, r0, lsl #24
     794:	0b3a0e03 	bleq	e83fa8 <_bsl_base_address+0xc81fa8>
     798:	0b39053b 	bleq	e41c8c <_bsl_base_address+0xc3fc8c>
     79c:	00001349 	andeq	r1, r0, r9, asr #6
     7a0:	0300131d 	movweq	r1, #797	; 0x31d
     7a4:	00193c0e 	andseq	r3, r9, lr, lsl #24
     7a8:	01151e00 	tsteq	r5, r0, lsl #28
     7ac:	13011927 	movwne	r1, #6439	; 0x1927
     7b0:	341f0000 	ldrcc	r0, [pc], #-0	; 7b8 <_malloc_r+0x520>
     7b4:	3a0e0300 	bcc	3813bc <_bsl_base_address+0x17f3bc>
     7b8:	39053b0b 	stmdbcc	r5, {r0, r1, r3, r8, r9, fp, ip, sp}
     7bc:	3f13490b 	svccc	0x0013490b
     7c0:	00193c19 	andseq	r3, r9, r9, lsl ip
     7c4:	012e2000 			; <UNDEFINED> instruction: 0x012e2000
     7c8:	0e03193f 			; <UNDEFINED> instruction: 0x0e03193f
     7cc:	0b3b0b3a 	bleq	ec34bc <_bsl_base_address+0xcc14bc>
     7d0:	19270b39 	stmdbne	r7!, {r0, r3, r4, r5, r8, r9, fp}
     7d4:	06120111 			; <UNDEFINED> instruction: 0x06120111
     7d8:	42971840 	addsmi	r1, r7, #64, 16	; 0x400000
     7dc:	00130119 	andseq	r0, r3, r9, lsl r1
     7e0:	00052100 	andeq	r2, r5, r0, lsl #2
     7e4:	0b3a0e03 	bleq	e83ff8 <_bsl_base_address+0xc81ff8>
     7e8:	0b390b3b 	bleq	e434dc <_bsl_base_address+0xc414dc>
     7ec:	17021349 	strne	r1, [r2, -r9, asr #6]
     7f0:	001742b7 			; <UNDEFINED> instruction: 0x001742b7
     7f4:	82892200 	addhi	r2, r9, #0, 4
     7f8:	01110101 	tsteq	r1, r1, lsl #2
     7fc:	00001331 	andeq	r1, r0, r1, lsr r3
     800:	01828a23 	orreq	r8, r2, r3, lsr #20
     804:	91180200 	tstls	r8, r0, lsl #4
     808:	00001842 	andeq	r1, r0, r2, asr #16
     80c:	3f012e24 	svccc	0x00012e24
     810:	3a0e0319 	bcc	38147c <_bsl_base_address+0x17f47c>
     814:	390b3b0b 	stmdbcc	fp, {r0, r1, r3, r8, r9, fp, ip, sp}
     818:	4919270b 	ldmdbmi	r9, {r0, r1, r3, r8, r9, sl, sp}
     81c:	12011113 	andne	r1, r1, #-1073741820	; 0xc0000004
     820:	97184006 	ldrls	r4, [r8, -r6]
     824:	13011942 	movwne	r1, #6466	; 0x1942
     828:	2e250000 	cdpcs	0, 2, cr0, cr5, cr0, {0}
     82c:	3c193f00 	ldccc	15, cr3, [r9], {-0}
     830:	030e6e19 	movweq	r6, #60953	; 0xee19
     834:	3b0b3a0e 	blcc	2cf074 <_bsl_base_address+0xcd074>
     838:	000b390b 	andeq	r3, fp, fp, lsl #18
     83c:	11010000 	mrsne	r0, (UNDEF: 1)
     840:	130e2501 	movwne	r2, #58625	; 0xe501
     844:	1b0e030b 	blne	381478 <_bsl_base_address+0x17f478>
     848:	1201110e 	andne	r1, r1, #-2147483645	; 0x80000003
     84c:	00171006 	andseq	r1, r7, r6
     850:	00240200 	eoreq	r0, r4, r0, lsl #4
     854:	0b3e0b0b 	bleq	f83488 <_bsl_base_address+0xd81488>
     858:	00000803 	andeq	r0, r0, r3, lsl #16
     85c:	03001603 	movweq	r1, #1539	; 0x603
     860:	3b0b3a0e 	blcc	2cf0a0 <_bsl_base_address+0xcd0a0>
     864:	490b390b 	stmdbmi	fp, {r0, r1, r3, r8, fp, ip, sp}
     868:	04000013 	streq	r0, [r0], #-19	; 0xffffffed
     86c:	0b0b0024 	bleq	2c0904 <_bsl_base_address+0xbe904>
     870:	0e030b3e 	vmoveq.16	d3[0], r0
     874:	0f050000 	svceq	0x00050000
     878:	000b0b00 	andeq	r0, fp, r0, lsl #22
     87c:	00160600 	andseq	r0, r6, r0, lsl #12
     880:	0b3a0e03 	bleq	e84094 <_bsl_base_address+0xc82094>
     884:	0b39053b 	bleq	e41d78 <_bsl_base_address+0xc3fd78>
     888:	00001349 	andeq	r1, r0, r9, asr #6
     88c:	0b011707 	bleq	464b0 <__data_load__+0x45650>
     890:	3b0b3a0b 	blcc	2cf0c4 <_bsl_base_address+0xcd0c4>
     894:	010b390b 	tsteq	fp, fp, lsl #18
     898:	08000013 	stmdaeq	r0, {r0, r1, r4}
     89c:	0e03000d 	cdpeq	0, 0, cr0, cr3, cr13, {0}
     8a0:	0b3b0b3a 	bleq	ec3590 <_bsl_base_address+0xcc1590>
     8a4:	13490b39 	movtne	r0, #39737	; 0x9b39
     8a8:	01090000 	mrseq	r0, (UNDEF: 9)
     8ac:	01134901 	tsteq	r3, r1, lsl #18
     8b0:	0a000013 	beq	904 <__register_exitproc+0x24>
     8b4:	13490021 	movtne	r0, #36897	; 0x9021
     8b8:	00000b2f 	andeq	r0, r0, pc, lsr #22
     8bc:	0b01130b 	bleq	454f0 <__data_load__+0x44690>
     8c0:	3b0b3a0b 	blcc	2cf0f4 <_bsl_base_address+0xcd0f4>
     8c4:	010b390b 	tsteq	fp, fp, lsl #18
     8c8:	0c000013 	stceq	0, cr0, [r0], {19}
     8cc:	0e03000d 	cdpeq	0, 0, cr0, cr3, cr13, {0}
     8d0:	0b3b0b3a 	bleq	ec35c0 <_bsl_base_address+0xcc15c0>
     8d4:	13490b39 	movtne	r0, #39737	; 0x9b39
     8d8:	00000b38 	andeq	r0, r0, r8, lsr fp
     8dc:	0301130d 	movweq	r1, #4877	; 0x130d
     8e0:	3a0b0b0e 	bcc	2c3520 <_bsl_base_address+0xc1520>
     8e4:	390b3b0b 	stmdbcc	fp, {r0, r1, r3, r8, r9, fp, ip, sp}
     8e8:	0013010b 	andseq	r0, r3, fp, lsl #2
     8ec:	000d0e00 	andeq	r0, sp, r0, lsl #28
     8f0:	0b3a0803 	bleq	e82904 <_bsl_base_address+0xc80904>
     8f4:	0b390b3b 	bleq	e435e8 <_bsl_base_address+0xc415e8>
     8f8:	0b381349 	bleq	e05624 <_bsl_base_address+0xc03624>
     8fc:	0f0f0000 	svceq	0x000f0000
     900:	490b0b00 	stmdbmi	fp, {r8, r9, fp}
     904:	10000013 	andne	r0, r0, r3, lsl r0
     908:	0e030113 	mcreq	1, 0, r0, cr3, cr3, {0}
     90c:	0b3a050b 	bleq	e81d40 <_bsl_base_address+0xc7fd40>
     910:	0b390b3b 	bleq	e43604 <_bsl_base_address+0xc41604>
     914:	00001301 	andeq	r1, r0, r1, lsl #6
     918:	03000d11 	movweq	r0, #3345	; 0xd11
     91c:	3b0b3a0e 	blcc	2cf15c <_bsl_base_address+0xcd15c>
     920:	490b390b 	stmdbmi	fp, {r0, r1, r3, r8, fp, ip, sp}
     924:	00053813 	andeq	r3, r5, r3, lsl r8
     928:	00151200 	andseq	r1, r5, r0, lsl #4
     92c:	00001927 	andeq	r1, r0, r7, lsr #18
     930:	27011513 	smladcs	r1, r3, r5, r1
     934:	01134919 	tsteq	r3, r9, lsl r9
     938:	14000013 	strne	r0, [r0], #-19	; 0xffffffed
     93c:	13490005 	movtne	r0, #36869	; 0x9005
     940:	13150000 	tstne	r5, #0
     944:	0b0e0301 	bleq	381550 <_bsl_base_address+0x17f550>
     948:	3b0b3a05 	blcc	2cf164 <_bsl_base_address+0xcd164>
     94c:	010b3905 	tsteq	fp, r5, lsl #18
     950:	16000013 			; <UNDEFINED> instruction: 0x16000013
     954:	0e03000d 	cdpeq	0, 0, cr0, cr3, cr13, {0}
     958:	053b0b3a 	ldreq	r0, [fp, #-2874]!	; 0xfffff4c6
     95c:	13490b39 	movtne	r0, #39737	; 0x9b39
     960:	00000b38 	andeq	r0, r0, r8, lsr fp
     964:	03000d17 	movweq	r0, #3351	; 0xd17
     968:	3b0b3a0e 	blcc	2cf1a8 <_bsl_base_address+0xcd1a8>
     96c:	490b3905 	stmdbmi	fp, {r0, r2, r8, fp, ip, sp}
     970:	00053813 	andeq	r3, r5, r3, lsl r8
     974:	00261800 	eoreq	r1, r6, r0, lsl #16
     978:	00001349 	andeq	r1, r0, r9, asr #6
     97c:	03011319 	movweq	r1, #4889	; 0x1319
     980:	3a0b0b0e 	bcc	2c35c0 <_bsl_base_address+0xc15c0>
     984:	39053b0b 	stmdbcc	r5, {r0, r1, r3, r8, r9, fp, ip, sp}
     988:	0013010b 	andseq	r0, r3, fp, lsl #2
     98c:	01131a00 	tsteq	r3, r0, lsl #20
     990:	0b3a0b0b 	bleq	e835c4 <_bsl_base_address+0xc815c4>
     994:	0b39053b 	bleq	e41e88 <_bsl_base_address+0xc3fe88>
     998:	00001301 	andeq	r1, r0, r1, lsl #6
     99c:	0b01171b 	bleq	46610 <__data_load__+0x457b0>
     9a0:	3b0b3a0b 	blcc	2cf1d4 <_bsl_base_address+0xcd1d4>
     9a4:	010b3905 	tsteq	fp, r5, lsl #18
     9a8:	1c000013 	stcne	0, cr0, [r0], {19}
     9ac:	0e03000d 	cdpeq	0, 0, cr0, cr3, cr13, {0}
     9b0:	053b0b3a 	ldreq	r0, [fp, #-2874]!	; 0xfffff4c6
     9b4:	13490b39 	movtne	r0, #39737	; 0x9b39
     9b8:	131d0000 	tstne	sp, #0
     9bc:	3c0e0300 	stccc	3, cr0, [lr], {-0}
     9c0:	1e000019 	mcrne	0, 0, r0, cr0, cr9, {0}
     9c4:	19270115 	stmdbne	r7!, {r0, r2, r4, r8}
     9c8:	00001301 	andeq	r1, r0, r1, lsl #6
     9cc:	03000d1f 	movweq	r0, #3359	; 0xd1f
     9d0:	3b0b3a08 	blcc	2cf1f8 <_bsl_base_address+0xcd1f8>
     9d4:	490b3905 	stmdbmi	fp, {r0, r2, r8, fp, ip, sp}
     9d8:	000b3813 	andeq	r3, fp, r3, lsl r8
     9dc:	00212000 	eoreq	r2, r1, r0
     9e0:	052f1349 	streq	r1, [pc, #-841]!	; 69f <_malloc_r+0x407>
     9e4:	34210000 	strtcc	r0, [r1], #-0
     9e8:	3a0e0300 	bcc	3815f0 <_bsl_base_address+0x17f5f0>
     9ec:	39053b0b 	stmdbcc	r5, {r0, r1, r3, r8, r9, fp, ip, sp}
     9f0:	3f13490b 	svccc	0x0013490b
     9f4:	00180219 	andseq	r0, r8, r9, lsl r2
     9f8:	012e2200 			; <UNDEFINED> instruction: 0x012e2200
     9fc:	0e03193f 			; <UNDEFINED> instruction: 0x0e03193f
     a00:	053b0b3a 	ldreq	r0, [fp, #-2874]!	; 0xfffff4c6
     a04:	19270b39 	stmdbne	r7!, {r0, r3, r4, r5, r8, r9, fp}
     a08:	01111349 	tsteq	r1, r9, asr #6
     a0c:	18400612 	stmdane	r0, {r1, r4, r9, sl}^
     a10:	01194297 			; <UNDEFINED> instruction: 0x01194297
     a14:	23000013 	movwcs	r0, #19
     a18:	0e030005 	cdpeq	0, 0, cr0, cr3, cr5, {0}
     a1c:	053b0b3a 	ldreq	r0, [fp, #-2874]!	; 0xfffff4c6
     a20:	13490b39 	movtne	r0, #39737	; 0x9b39
     a24:	42b71702 	adcsmi	r1, r7, #524288	; 0x80000
     a28:	24000017 	strcs	r0, [r0], #-23	; 0xffffffe9
     a2c:	0e030034 	mcreq	0, 0, r0, cr3, cr4, {1}
     a30:	053b0b3a 	ldreq	r0, [fp, #-2874]!	; 0xfffff4c6
     a34:	13490b39 	movtne	r0, #39737	; 0x9b39
     a38:	42b71702 	adcsmi	r1, r7, #524288	; 0x80000
     a3c:	25000017 	strcs	r0, [r0, #-23]	; 0xffffffe9
     a40:	08030034 	stmdaeq	r3, {r2, r4, r5}
     a44:	053b0b3a 	ldreq	r0, [fp, #-2874]!	; 0xfffff4c6
     a48:	13490b39 	movtne	r0, #39737	; 0x9b39
     a4c:	42b71702 	adcsmi	r1, r7, #524288	; 0x80000
     a50:	26000017 			; <UNDEFINED> instruction: 0x26000017
     a54:	1331011d 	teqne	r1, #1073741831	; 0x40000007
     a58:	42b80152 	adcsmi	r0, r8, #-2147483628	; 0x80000014
     a5c:	58175505 	ldmdapl	r7, {r0, r2, r8, sl, ip, lr}
     a60:	5705590b 	strpl	r5, [r5, -fp, lsl #18]
     a64:	0013010b 	andseq	r0, r3, fp, lsl #2
     a68:	00052700 	andeq	r2, r5, r0, lsl #14
     a6c:	00001331 	andeq	r1, r0, r1, lsr r3
     a70:	31000528 	tstcc	r0, r8, lsr #10
     a74:	b7170213 			; <UNDEFINED> instruction: 0xb7170213
     a78:	00001742 	andeq	r1, r0, r2, asr #14
     a7c:	55010b29 	strpl	r0, [r1, #-2857]	; 0xfffff4d7
     a80:	2a000017 	bcs	ae4 <_free_r>
     a84:	13310034 	teqne	r1, #52	; 0x34
     a88:	42b71702 	adcsmi	r1, r7, #524288	; 0x80000
     a8c:	2b000017 	blcs	af0 <_free_r+0xc>
     a90:	01018289 	smlabbeq	r1, r9, r2, r8
     a94:	13310111 	teqne	r1, #1073741828	; 0x40000004
     a98:	00001301 	andeq	r1, r0, r1, lsl #6
     a9c:	01828a2c 	orreq	r8, r2, ip, lsr #20
     aa0:	91180200 	tstls	r8, r0, lsl #4
     aa4:	00001842 	andeq	r1, r0, r2, asr #16
     aa8:	0182892d 	orreq	r8, r2, sp, lsr #18
     aac:	31011101 	tstcc	r1, r1, lsl #2
     ab0:	2e000013 	mcrcs	0, 0, r0, cr0, cr3, {0}
     ab4:	00018289 	andeq	r8, r1, r9, lsl #5
     ab8:	13310111 	teqne	r1, #1073741828	; 0x40000004
     abc:	2e2f0000 	cdpcs	0, 2, cr0, cr15, cr0, {0}
     ac0:	3a0e0301 	bcc	3816cc <_bsl_base_address+0x17f6cc>
     ac4:	39053b0b 	stmdbcc	r5, {r0, r1, r3, r8, r9, fp, ip, sp}
     ac8:	2019270b 	andscs	r2, r9, fp, lsl #14
     acc:	0013010b 	andseq	r0, r3, fp, lsl #2
     ad0:	00053000 	andeq	r3, r5, r0
     ad4:	0b3a0e03 	bleq	e842e8 <_bsl_base_address+0xc822e8>
     ad8:	0b39053b 	bleq	e41fcc <_bsl_base_address+0xc3ffcc>
     adc:	00001349 	andeq	r1, r0, r9, asr #6
     ae0:	03000531 	movweq	r0, #1329	; 0x531
     ae4:	3b0b3a08 	blcc	2cf30c <_bsl_base_address+0xcd30c>
     ae8:	490b3905 	stmdbmi	fp, {r0, r2, r8, fp, ip, sp}
     aec:	32000013 	andcc	r0, r0, #19
     af0:	08030034 	stmdaeq	r3, {r2, r4, r5}
     af4:	053b0b3a 	ldreq	r0, [fp, #-2874]!	; 0xfffff4c6
     af8:	13490b39 	movtne	r0, #39737	; 0x9b39
     afc:	34330000 	ldrtcc	r0, [r3], #-0
     b00:	3a0e0300 	bcc	381708 <_bsl_base_address+0x17f708>
     b04:	39053b0b 	stmdbcc	r5, {r0, r1, r3, r8, r9, fp, ip, sp}
     b08:	0013490b 	andseq	r4, r3, fp, lsl #18
     b0c:	002e3400 	eoreq	r3, lr, r0, lsl #8
     b10:	193c193f 	ldmdbne	ip!, {r0, r1, r2, r3, r4, r5, r8, fp, ip}
     b14:	0e030e6e 	cdpeq	14, 0, cr0, cr3, cr14, {3}
     b18:	0b3b0b3a 	bleq	ec3808 <_bsl_base_address+0xcc1808>
     b1c:	00000b39 	andeq	r0, r0, r9, lsr fp
     b20:	3f002e35 	svccc	0x00002e35
     b24:	6e193c19 	mrcvs	12, 0, r3, cr9, cr9, {0}
     b28:	3a0e030e 	bcc	381768 <_bsl_base_address+0x17f768>
     b2c:	39053b0b 	stmdbcc	r5, {r0, r1, r3, r8, r9, fp, ip, sp}
     b30:	0000000b 	andeq	r0, r0, fp
     b34:	25011101 	strcs	r1, [r1, #-257]	; 0xfffffeff
     b38:	030b130e 	movweq	r1, #45838	; 0xb30e
     b3c:	110e1b0e 	tstne	lr, lr, lsl #22
     b40:	10061201 	andne	r1, r6, r1, lsl #4
     b44:	02000017 	andeq	r0, r0, #23
     b48:	0b0b0024 	bleq	2c0be0 <_bsl_base_address+0xbebe0>
     b4c:	08030b3e 	stmdaeq	r3, {r1, r2, r3, r4, r5, r8, r9, fp}
     b50:	16030000 	strne	r0, [r3], -r0
     b54:	3a0e0300 	bcc	38175c <_bsl_base_address+0x17f75c>
     b58:	390b3b0b 	stmdbcc	fp, {r0, r1, r3, r8, r9, fp, ip, sp}
     b5c:	0013490b 	andseq	r4, r3, fp, lsl #18
     b60:	00240400 	eoreq	r0, r4, r0, lsl #8
     b64:	0b3e0b0b 	bleq	f83798 <_bsl_base_address+0xd81798>
     b68:	00000e03 	andeq	r0, r0, r3, lsl #28
     b6c:	0b000f05 	bleq	4788 <__data_load__+0x3928>
     b70:	0600000b 	streq	r0, [r0], -fp
     b74:	0b0b000f 	bleq	2c0bb8 <_bsl_base_address+0xbebb8>
     b78:	00001349 	andeq	r1, r0, r9, asr #6
     b7c:	3f012e07 	svccc	0x00012e07
     b80:	3a0e0319 	bcc	3817ec <_bsl_base_address+0x17f7ec>
     b84:	390b3b0b 	stmdbcc	fp, {r0, r1, r3, r8, r9, fp, ip, sp}
     b88:	4919270b 	ldmdbmi	r9, {r0, r1, r3, r8, r9, sl, sp}
     b8c:	12011113 	andne	r1, r1, #-1073741820	; 0xc0000004
     b90:	97184006 	ldrls	r4, [r8, -r6]
     b94:	13011942 	movwne	r1, #6466	; 0x1942
     b98:	05080000 	streq	r0, [r8, #-0]
     b9c:	3a080300 	bcc	2017a4 <_tlv_base_address+0x7a4>
     ba0:	390b3b0b 	stmdbcc	fp, {r0, r1, r3, r8, r9, fp, ip, sp}
     ba4:	0213490b 	andseq	r4, r3, #180224	; 0x2c000
     ba8:	09000018 	stmdbeq	r0, {r3, r4}
     bac:	08030005 	stmdaeq	r3, {r0, r2}
     bb0:	0b3b0b3a 	bleq	ec38a0 <_bsl_base_address+0xcc18a0>
     bb4:	13490b39 	movtne	r0, #39737	; 0x9b39
     bb8:	42b71702 	adcsmi	r1, r7, #524288	; 0x80000
     bbc:	0a000017 	beq	c20 <_free_r+0x13c>
     bc0:	08030034 	stmdaeq	r3, {r2, r4, r5}
     bc4:	0b3b0b3a 	bleq	ec38b4 <_bsl_base_address+0xcc18b4>
     bc8:	13490b39 	movtne	r0, #39737	; 0x9b39
     bcc:	42b71702 	adcsmi	r1, r7, #524288	; 0x80000
     bd0:	0b000017 	bleq	c34 <_free_r+0x150>
     bd4:	0e030034 	mcreq	0, 0, r0, cr3, cr4, {1}
     bd8:	0b3b0b3a 	bleq	ec38c8 <_bsl_base_address+0xcc18c8>
     bdc:	13490b39 	movtne	r0, #39737	; 0x9b39
     be0:	42b71702 	adcsmi	r1, r7, #524288	; 0x80000
     be4:	00000017 	andeq	r0, r0, r7, lsl r0
     be8:	25011101 	strcs	r1, [r1, #-257]	; 0xfffffeff
     bec:	030b130e 	movweq	r1, #45838	; 0xb30e
     bf0:	110e1b0e 	tstne	lr, lr, lsl #22
     bf4:	10061201 	andne	r1, r6, r1, lsl #4
     bf8:	02000017 	andeq	r0, r0, #23
     bfc:	0b0b0024 	bleq	2c0c94 <_bsl_base_address+0xbec94>
     c00:	08030b3e 	stmdaeq	r3, {r1, r2, r3, r4, r5, r8, r9, fp}
     c04:	24030000 	strcs	r0, [r3], #-0
     c08:	3e0b0b00 	vmlacc.f64	d0, d11, d0
     c0c:	000e030b 	andeq	r0, lr, fp, lsl #6
     c10:	00160400 	andseq	r0, r6, r0, lsl #8
     c14:	0b3a0e03 	bleq	e84428 <_bsl_base_address+0xc82428>
     c18:	0b39053b 	bleq	e4210c <_bsl_base_address+0xc4010c>
     c1c:	00001349 	andeq	r1, r0, r9, asr #6
     c20:	03001605 	movweq	r1, #1541	; 0x605
     c24:	3b0b3a0e 	blcc	2cf464 <_bsl_base_address+0xcd464>
     c28:	490b390b 	stmdbmi	fp, {r0, r1, r3, r8, fp, ip, sp}
     c2c:	06000013 			; <UNDEFINED> instruction: 0x06000013
     c30:	0b0b0117 	bleq	2c1094 <_bsl_base_address+0xbf094>
     c34:	0b3b0b3a 	bleq	ec3924 <_bsl_base_address+0xcc1924>
     c38:	13010b39 	movwne	r0, #6969	; 0x1b39
     c3c:	0d070000 	stceq	0, cr0, [r7, #-0]
     c40:	3a0e0300 	bcc	381848 <_bsl_base_address+0x17f848>
     c44:	390b3b0b 	stmdbcc	fp, {r0, r1, r3, r8, r9, fp, ip, sp}
     c48:	0013490b 	andseq	r4, r3, fp, lsl #18
     c4c:	01010800 	tsteq	r1, r0, lsl #16
     c50:	13011349 	movwne	r1, #4937	; 0x1349
     c54:	21090000 	mrscs	r0, (UNDEF: 9)
     c58:	2f134900 	svccs	0x00134900
     c5c:	0a00000b 	beq	c90 <_free_r+0x1ac>
     c60:	0b0b0113 	bleq	2c10b4 <_bsl_base_address+0xbf0b4>
     c64:	0b3b0b3a 	bleq	ec3954 <_bsl_base_address+0xcc1954>
     c68:	13010b39 	movwne	r0, #6969	; 0x1b39
     c6c:	0d0b0000 	stceq	0, cr0, [fp, #-0]
     c70:	3a0e0300 	bcc	381878 <_bsl_base_address+0x17f878>
     c74:	390b3b0b 	stmdbcc	fp, {r0, r1, r3, r8, r9, fp, ip, sp}
     c78:	3813490b 	ldmdacc	r3, {r0, r1, r3, r8, fp, lr}
     c7c:	0c00000b 	stceq	0, cr0, [r0], {11}
     c80:	0b0b000f 	bleq	2c0cc4 <_bsl_base_address+0xbecc4>
     c84:	130d0000 	movwne	r0, #53248	; 0xd000
     c88:	0b0e0301 	bleq	381894 <_bsl_base_address+0x17f894>
     c8c:	3b0b3a0b 	blcc	2cf4c0 <_bsl_base_address+0xcd4c0>
     c90:	010b390b 	tsteq	fp, fp, lsl #18
     c94:	0e000013 	mcreq	0, 0, r0, cr0, cr3, {0}
     c98:	0803000d 	stmdaeq	r3, {r0, r2, r3}
     c9c:	0b3b0b3a 	bleq	ec398c <_bsl_base_address+0xcc198c>
     ca0:	13490b39 	movtne	r0, #39737	; 0x9b39
     ca4:	00000b38 	andeq	r0, r0, r8, lsr fp
     ca8:	0b000f0f 	bleq	48ec <__data_load__+0x3a8c>
     cac:	0013490b 	andseq	r4, r3, fp, lsl #18
     cb0:	01131000 	tsteq	r3, r0
     cb4:	050b0e03 	streq	r0, [fp, #-3587]	; 0xfffff1fd
     cb8:	0b3b0b3a 	bleq	ec39a8 <_bsl_base_address+0xcc19a8>
     cbc:	13010b39 	movwne	r0, #6969	; 0x1b39
     cc0:	0d110000 	ldceq	0, cr0, [r1, #-0]
     cc4:	3a0e0300 	bcc	3818cc <_bsl_base_address+0x17f8cc>
     cc8:	390b3b0b 	stmdbcc	fp, {r0, r1, r3, r8, r9, fp, ip, sp}
     ccc:	3813490b 	ldmdacc	r3, {r0, r1, r3, r8, fp, lr}
     cd0:	12000005 	andne	r0, r0, #5
     cd4:	19270015 	stmdbne	r7!, {r0, r2, r4}
     cd8:	15130000 	ldrne	r0, [r3, #-0]
     cdc:	49192701 	ldmdbmi	r9, {r0, r8, r9, sl, sp}
     ce0:	00130113 	andseq	r0, r3, r3, lsl r1
     ce4:	00051400 	andeq	r1, r5, r0, lsl #8
     ce8:	00001349 	andeq	r1, r0, r9, asr #6
     cec:	03011315 	movweq	r1, #4885	; 0x1315
     cf0:	3a050b0e 	bcc	143930 <__data_load__+0x142ad0>
     cf4:	39053b0b 	stmdbcc	r5, {r0, r1, r3, r8, r9, fp, ip, sp}
     cf8:	0013010b 	andseq	r0, r3, fp, lsl #2
     cfc:	000d1600 	andeq	r1, sp, r0, lsl #12
     d00:	0b3a0e03 	bleq	e84514 <_bsl_base_address+0xc82514>
     d04:	0b39053b 	bleq	e421f8 <_bsl_base_address+0xc401f8>
     d08:	0b381349 	bleq	e05a34 <_bsl_base_address+0xc03a34>
     d0c:	0d170000 	ldceq	0, cr0, [r7, #-0]
     d10:	3a0e0300 	bcc	381918 <_bsl_base_address+0x17f918>
     d14:	39053b0b 	stmdbcc	r5, {r0, r1, r3, r8, r9, fp, ip, sp}
     d18:	3813490b 	ldmdacc	r3, {r0, r1, r3, r8, fp, lr}
     d1c:	18000005 	stmdane	r0, {r0, r2}
     d20:	13490026 	movtne	r0, #36902	; 0x9026
     d24:	13190000 	tstne	r9, #0
     d28:	0b0e0301 	bleq	381934 <_bsl_base_address+0x17f934>
     d2c:	3b0b3a0b 	blcc	2cf560 <_bsl_base_address+0xcd560>
     d30:	010b3905 	tsteq	fp, r5, lsl #18
     d34:	1a000013 	bne	d88 <_reclaim_reent+0x90>
     d38:	0b0b0113 	bleq	2c118c <_bsl_base_address+0xbf18c>
     d3c:	053b0b3a 	ldreq	r0, [fp, #-2874]!	; 0xfffff4c6
     d40:	13010b39 	movwne	r0, #6969	; 0x1b39
     d44:	171b0000 	ldrne	r0, [fp, -r0]
     d48:	3a0b0b01 	bcc	2c3954 <_bsl_base_address+0xc1954>
     d4c:	39053b0b 	stmdbcc	r5, {r0, r1, r3, r8, r9, fp, ip, sp}
     d50:	0013010b 	andseq	r0, r3, fp, lsl #2
     d54:	000d1c00 	andeq	r1, sp, r0, lsl #24
     d58:	0b3a0e03 	bleq	e8456c <_bsl_base_address+0xc8256c>
     d5c:	0b39053b 	bleq	e42250 <_bsl_base_address+0xc40250>
     d60:	00001349 	andeq	r1, r0, r9, asr #6
     d64:	0300131d 	movweq	r1, #797	; 0x31d
     d68:	00193c0e 	andseq	r3, r9, lr, lsl #24
     d6c:	01151e00 	tsteq	r5, r0, lsl #28
     d70:	13011927 	movwne	r1, #6439	; 0x1927
     d74:	341f0000 	ldrcc	r0, [pc], #-0	; d7c <_reclaim_reent+0x84>
     d78:	3a0e0300 	bcc	381980 <_bsl_base_address+0x17f980>
     d7c:	390b3b0b 	stmdbcc	fp, {r0, r1, r3, r8, r9, fp, ip, sp}
     d80:	1c13490b 			; <UNDEFINED> instruction: 0x1c13490b
     d84:	2000000b 	andcs	r0, r0, fp
     d88:	193f012e 	ldmdbne	pc!, {r1, r2, r3, r5, r8}	; <UNPREDICTABLE>
     d8c:	0b3a0e03 	bleq	e845a0 <_bsl_base_address+0xc825a0>
     d90:	0b390b3b 	bleq	e43a84 <_bsl_base_address+0xc41a84>
     d94:	13011927 	movwne	r1, #6439	; 0x1927
     d98:	05210000 	streq	r0, [r1, #-0]!
     d9c:	3a080300 	bcc	2019a4 <_tlv_base_address+0x9a4>
     da0:	390b3b0b 	stmdbcc	fp, {r0, r1, r3, r8, r9, fp, ip, sp}
     da4:	0013490b 	andseq	r4, r3, fp, lsl #18
     da8:	012e2200 			; <UNDEFINED> instruction: 0x012e2200
     dac:	0e03193f 			; <UNDEFINED> instruction: 0x0e03193f
     db0:	0b3b0b3a 	bleq	ec3aa0 <_bsl_base_address+0xcc1aa0>
     db4:	19270b39 	stmdbne	r7!, {r0, r3, r4, r5, r8, r9, fp}
     db8:	13010b20 	movwne	r0, #6944	; 0x1b20
     dbc:	2e230000 	cdpcs	0, 2, cr0, cr3, cr0, {0}
     dc0:	11133101 	tstne	r3, r1, lsl #2
     dc4:	40061201 	andmi	r1, r6, r1, lsl #4
     dc8:	19429718 	stmdbne	r2, {r3, r4, r8, r9, sl, ip, pc}^
     dcc:	05240000 	streq	r0, [r4, #-0]!
     dd0:	02133100 	andseq	r3, r3, #0, 2
     dd4:	00000018 	andeq	r0, r0, r8, lsl r0
     dd8:	25011101 	strcs	r1, [r1, #-257]	; 0xfffffeff
     ddc:	030b130e 	movweq	r1, #45838	; 0xb30e
     de0:	110e1b0e 	tstne	lr, lr, lsl #22
     de4:	10061201 	andne	r1, r6, r1, lsl #4
     de8:	02000017 	andeq	r0, r0, #23
     dec:	0e030016 	mcreq	0, 0, r0, cr3, cr6, {0}
     df0:	0b3b0b3a 	bleq	ec3ae0 <_bsl_base_address+0xcc1ae0>
     df4:	13490b39 	movtne	r0, #39737	; 0x9b39
     df8:	24030000 	strcs	r0, [r3], #-0
     dfc:	3e0b0b00 	vmlacc.f64	d0, d11, d0
     e00:	0008030b 	andeq	r0, r8, fp, lsl #6
     e04:	00240400 	eoreq	r0, r4, r0, lsl #8
     e08:	0b3e0b0b 	bleq	f83a3c <_bsl_base_address+0xd81a3c>
     e0c:	00000e03 	andeq	r0, r0, r3, lsl #28
     e10:	03001605 	movweq	r1, #1541	; 0x605
     e14:	3b0b3a0e 	blcc	2cf654 <_bsl_base_address+0xcd654>
     e18:	490b3905 	stmdbmi	fp, {r0, r2, r8, fp, ip, sp}
     e1c:	06000013 			; <UNDEFINED> instruction: 0x06000013
     e20:	0b0b0117 	bleq	2c1284 <_bsl_base_address+0xbf284>
     e24:	0b3b0b3a 	bleq	ec3b14 <_bsl_base_address+0xcc1b14>
     e28:	13010b39 	movwne	r0, #6969	; 0x1b39
     e2c:	0d070000 	stceq	0, cr0, [r7, #-0]
     e30:	3a0e0300 	bcc	381a38 <_bsl_base_address+0x17fa38>
     e34:	390b3b0b 	stmdbcc	fp, {r0, r1, r3, r8, r9, fp, ip, sp}
     e38:	0013490b 	andseq	r4, r3, fp, lsl #18
     e3c:	01010800 	tsteq	r1, r0, lsl #16
     e40:	13011349 	movwne	r1, #4937	; 0x1349
     e44:	21090000 	mrscs	r0, (UNDEF: 9)
     e48:	2f134900 	svccs	0x00134900
     e4c:	0a00000b 	beq	e80 <__data_load__+0x20>
     e50:	0b0b0113 	bleq	2c12a4 <_bsl_base_address+0xbf2a4>
     e54:	0b3b0b3a 	bleq	ec3b44 <_bsl_base_address+0xcc1b44>
     e58:	13010b39 	movwne	r0, #6969	; 0x1b39
     e5c:	0d0b0000 	stceq	0, cr0, [fp, #-0]
     e60:	3a0e0300 	bcc	381a68 <_bsl_base_address+0x17fa68>
     e64:	390b3b0b 	stmdbcc	fp, {r0, r1, r3, r8, r9, fp, ip, sp}
     e68:	3813490b 	ldmdacc	r3, {r0, r1, r3, r8, fp, lr}
     e6c:	0c00000b 	stceq	0, cr0, [r0], {11}
     e70:	0b0b000f 	bleq	2c0eb4 <_bsl_base_address+0xbeeb4>
     e74:	130d0000 	movwne	r0, #53248	; 0xd000
     e78:	0b0e0301 	bleq	381a84 <_bsl_base_address+0x17fa84>
     e7c:	3b0b3a0b 	blcc	2cf6b0 <_bsl_base_address+0xcd6b0>
     e80:	010b390b 	tsteq	fp, fp, lsl #18
     e84:	0e000013 	mcreq	0, 0, r0, cr0, cr3, {0}
     e88:	0803000d 	stmdaeq	r3, {r0, r2, r3}
     e8c:	0b3b0b3a 	bleq	ec3b7c <_bsl_base_address+0xcc1b7c>
     e90:	13490b39 	movtne	r0, #39737	; 0x9b39
     e94:	00000b38 	andeq	r0, r0, r8, lsr fp
     e98:	0b000f0f 	bleq	4adc <__data_load__+0x3c7c>
     e9c:	0013490b 	andseq	r4, r3, fp, lsl #18
     ea0:	01131000 	tsteq	r3, r0
     ea4:	050b0e03 	streq	r0, [fp, #-3587]	; 0xfffff1fd
     ea8:	0b3b0b3a 	bleq	ec3b98 <_bsl_base_address+0xcc1b98>
     eac:	13010b39 	movwne	r0, #6969	; 0x1b39
     eb0:	0d110000 	ldceq	0, cr0, [r1, #-0]
     eb4:	3a0e0300 	bcc	381abc <_bsl_base_address+0x17fabc>
     eb8:	390b3b0b 	stmdbcc	fp, {r0, r1, r3, r8, r9, fp, ip, sp}
     ebc:	3813490b 	ldmdacc	r3, {r0, r1, r3, r8, fp, lr}
     ec0:	12000005 	andne	r0, r0, #5
     ec4:	19270015 	stmdbne	r7!, {r0, r2, r4}
     ec8:	15130000 	ldrne	r0, [r3, #-0]
     ecc:	49192701 	ldmdbmi	r9, {r0, r8, r9, sl, sp}
     ed0:	00130113 	andseq	r0, r3, r3, lsl r1
     ed4:	00051400 	andeq	r1, r5, r0, lsl #8
     ed8:	00001349 	andeq	r1, r0, r9, asr #6
     edc:	03011315 	movweq	r1, #4885	; 0x1315
     ee0:	3a050b0e 	bcc	143b20 <__data_load__+0x142cc0>
     ee4:	39053b0b 	stmdbcc	r5, {r0, r1, r3, r8, r9, fp, ip, sp}
     ee8:	0013010b 	andseq	r0, r3, fp, lsl #2
     eec:	000d1600 	andeq	r1, sp, r0, lsl #12
     ef0:	0b3a0e03 	bleq	e84704 <_bsl_base_address+0xc82704>
     ef4:	0b39053b 	bleq	e423e8 <_bsl_base_address+0xc403e8>
     ef8:	0b381349 	bleq	e05c24 <_bsl_base_address+0xc03c24>
     efc:	0d170000 	ldceq	0, cr0, [r7, #-0]
     f00:	3a0e0300 	bcc	381b08 <_bsl_base_address+0x17fb08>
     f04:	39053b0b 	stmdbcc	r5, {r0, r1, r3, r8, r9, fp, ip, sp}
     f08:	3813490b 	ldmdacc	r3, {r0, r1, r3, r8, fp, lr}
     f0c:	18000005 	stmdane	r0, {r0, r2}
     f10:	13490026 	movtne	r0, #36902	; 0x9026
     f14:	13190000 	tstne	r9, #0
     f18:	0b0e0301 	bleq	381b24 <_bsl_base_address+0x17fb24>
     f1c:	3b0b3a0b 	blcc	2cf750 <_bsl_base_address+0xcd750>
     f20:	010b3905 	tsteq	fp, r5, lsl #18
     f24:	1a000013 	bne	f78 <__data_load__+0x118>
     f28:	0b0b0113 	bleq	2c137c <_bsl_base_address+0xbf37c>
     f2c:	053b0b3a 	ldreq	r0, [fp, #-2874]!	; 0xfffff4c6
     f30:	13010b39 	movwne	r0, #6969	; 0x1b39
     f34:	171b0000 	ldrne	r0, [fp, -r0]
     f38:	3a0b0b01 	bcc	2c3b44 <_bsl_base_address+0xc1b44>
     f3c:	39053b0b 	stmdbcc	r5, {r0, r1, r3, r8, r9, fp, ip, sp}
     f40:	0013010b 	andseq	r0, r3, fp, lsl #2
     f44:	000d1c00 	andeq	r1, sp, r0, lsl #24
     f48:	0b3a0e03 	bleq	e8475c <_bsl_base_address+0xc8275c>
     f4c:	0b39053b 	bleq	e42440 <_bsl_base_address+0xc40440>
     f50:	00001349 	andeq	r1, r0, r9, asr #6
     f54:	0300131d 	movweq	r1, #797	; 0x31d
     f58:	00193c0e 	andseq	r3, r9, lr, lsl #24
     f5c:	01151e00 	tsteq	r5, r0, lsl #28
     f60:	13011927 	movwne	r1, #6439	; 0x1927
     f64:	341f0000 	ldrcc	r0, [pc], #-0	; f6c <__data_load__+0x10c>
     f68:	3a0e0300 	bcc	381b70 <_bsl_base_address+0x17fb70>
     f6c:	390b3b0b 	stmdbcc	fp, {r0, r1, r3, r8, r9, fp, ip, sp}
     f70:	3f13490b 	svccc	0x0013490b
     f74:	00193c19 	andseq	r3, r9, r9, lsl ip
     f78:	012e2000 			; <UNDEFINED> instruction: 0x012e2000
     f7c:	0e03193f 			; <UNDEFINED> instruction: 0x0e03193f
     f80:	0b3b0b3a 	bleq	ec3c70 <_bsl_base_address+0xcc1c70>
     f84:	19270b39 	stmdbne	r7!, {r0, r3, r4, r5, r8, r9, fp}
     f88:	01111349 	tsteq	r1, r9, asr #6
     f8c:	18400612 	stmdane	r0, {r1, r4, r9, sl}^
     f90:	01194297 			; <UNDEFINED> instruction: 0x01194297
     f94:	21000013 	tstcs	r0, r3, lsl r0
     f98:	08030005 	stmdaeq	r3, {r0, r2}
     f9c:	0b3b0b3a 	bleq	ec3c8c <_bsl_base_address+0xcc1c8c>
     fa0:	13490b39 	movtne	r0, #39737	; 0x9b39
     fa4:	42b71702 	adcsmi	r1, r7, #524288	; 0x80000
     fa8:	22000017 	andcs	r0, r0, #23
     fac:	0e030005 	cdpeq	0, 0, cr0, cr3, cr5, {0}
     fb0:	0b3b0b3a 	bleq	ec3ca0 <_bsl_base_address+0xcc1ca0>
     fb4:	13490b39 	movtne	r0, #39737	; 0x9b39
     fb8:	42b71702 	adcsmi	r1, r7, #524288	; 0x80000
     fbc:	23000017 	movwcs	r0, #23
     fc0:	08030034 	stmdaeq	r3, {r2, r4, r5}
     fc4:	0b3b0b3a 	bleq	ec3cb4 <_bsl_base_address+0xcc1cb4>
     fc8:	13490b39 	movtne	r0, #39737	; 0x9b39
     fcc:	42b71702 	adcsmi	r1, r7, #524288	; 0x80000
     fd0:	24000017 	strcs	r0, [r0], #-23	; 0xffffffe9
     fd4:	193f012e 	ldmdbne	pc!, {r1, r2, r3, r5, r8}	; <UNPREDICTABLE>
     fd8:	0b3a0e03 	bleq	e847ec <_bsl_base_address+0xc827ec>
     fdc:	0b390b3b 	bleq	e43cd0 <_bsl_base_address+0xc41cd0>
     fe0:	13491927 	movtne	r1, #39207	; 0x9927
     fe4:	1301193c 	movwne	r1, #6460	; 0x193c
     fe8:	89250000 	stmdbhi	r5!, {}	; <UNPREDICTABLE>
     fec:	11010182 	smlabbne	r1, r2, r1, r0
     ff0:	00133101 	andseq	r3, r3, r1, lsl #2
     ff4:	828a2600 	addhi	r2, sl, #0, 12
     ff8:	18020001 	stmdane	r2, {r0}
     ffc:	00184291 	mulseq	r8, r1, r2
    1000:	002e2700 	eoreq	r2, lr, r0, lsl #14
    1004:	193c193f 	ldmdbne	ip!, {r0, r1, r2, r3, r4, r5, r8, fp, ip}
    1008:	0e030e6e 	cdpeq	14, 0, cr0, cr3, cr14, {3}
    100c:	053b0b3a 	ldreq	r0, [fp, #-2874]!	; 0xfffff4c6
    1010:	00000b39 	andeq	r0, r0, r9, lsr fp
    1014:	01110100 	tsteq	r1, r0, lsl #2
    1018:	0b130e25 	bleq	4c48b4 <_bsl_base_address+0x2c28b4>
    101c:	0e1b0e03 	cdpeq	14, 1, cr0, cr11, cr3, {0}
    1020:	06120111 			; <UNDEFINED> instruction: 0x06120111
    1024:	00001710 	andeq	r1, r0, r0, lsl r7
    1028:	0b002402 	bleq	a038 <__data_load__+0x91d8>
    102c:	030b3e0b 	movweq	r3, #48651	; 0xbe0b
    1030:	03000008 	movweq	r0, #8
    1034:	0b0b0024 	bleq	2c10cc <_bsl_base_address+0xbf0cc>
    1038:	0e030b3e 	vmoveq.16	d3[0], r0
    103c:	16040000 	strne	r0, [r4], -r0
    1040:	3a0e0300 	bcc	381c48 <_bsl_base_address+0x17fc48>
    1044:	39053b0b 	stmdbcc	r5, {r0, r1, r3, r8, r9, fp, ip, sp}
    1048:	0013490b 	andseq	r4, r3, fp, lsl #18
    104c:	00160500 	andseq	r0, r6, r0, lsl #10
    1050:	0b3a0e03 	bleq	e84864 <_bsl_base_address+0xc82864>
    1054:	0b390b3b 	bleq	e43d48 <_bsl_base_address+0xc41d48>
    1058:	00001349 	andeq	r1, r0, r9, asr #6
    105c:	0b011706 	bleq	46c7c <__data_load__+0x45e1c>
    1060:	3b0b3a0b 	blcc	2cf894 <_bsl_base_address+0xcd894>
    1064:	010b390b 	tsteq	fp, fp, lsl #18
    1068:	07000013 	smladeq	r0, r3, r0, r0
    106c:	0e03000d 	cdpeq	0, 0, cr0, cr3, cr13, {0}
    1070:	0b3b0b3a 	bleq	ec3d60 <_bsl_base_address+0xcc1d60>
    1074:	13490b39 	movtne	r0, #39737	; 0x9b39
    1078:	01080000 	mrseq	r0, (UNDEF: 8)
    107c:	01134901 	tsteq	r3, r1, lsl #18
    1080:	09000013 	stmdbeq	r0, {r0, r1, r4}
    1084:	13490021 	movtne	r0, #36897	; 0x9021
    1088:	00000b2f 	andeq	r0, r0, pc, lsr #22
    108c:	0b01130a 	bleq	45cbc <__data_load__+0x44e5c>
    1090:	3b0b3a0b 	blcc	2cf8c4 <_bsl_base_address+0xcd8c4>
    1094:	010b390b 	tsteq	fp, fp, lsl #18
    1098:	0b000013 	bleq	10ec <__data_load__+0x28c>
    109c:	0e03000d 	cdpeq	0, 0, cr0, cr3, cr13, {0}
    10a0:	0b3b0b3a 	bleq	ec3d90 <_bsl_base_address+0xcc1d90>
    10a4:	13490b39 	movtne	r0, #39737	; 0x9b39
    10a8:	00000b38 	andeq	r0, r0, r8, lsr fp
    10ac:	0b000f0c 	bleq	4ce4 <__data_load__+0x3e84>
    10b0:	0d00000b 	stceq	0, cr0, [r0, #-44]	; 0xffffffd4
    10b4:	0e030113 	mcreq	1, 0, r0, cr3, cr3, {0}
    10b8:	0b3a0b0b 	bleq	e83cec <_bsl_base_address+0xc81cec>
    10bc:	0b390b3b 	bleq	e43db0 <_bsl_base_address+0xc41db0>
    10c0:	00001301 	andeq	r1, r0, r1, lsl #6
    10c4:	03000d0e 	movweq	r0, #3342	; 0xd0e
    10c8:	3b0b3a08 	blcc	2cf8f0 <_bsl_base_address+0xcd8f0>
    10cc:	490b390b 	stmdbmi	fp, {r0, r1, r3, r8, fp, ip, sp}
    10d0:	000b3813 	andeq	r3, fp, r3, lsl r8
    10d4:	000f0f00 	andeq	r0, pc, r0, lsl #30
    10d8:	13490b0b 	movtne	r0, #39691	; 0x9b0b
    10dc:	13100000 	tstne	r0, #0
    10e0:	0b0e0301 	bleq	381cec <_bsl_base_address+0x17fcec>
    10e4:	3b0b3a05 	blcc	2cf900 <_bsl_base_address+0xcd900>
    10e8:	010b390b 	tsteq	fp, fp, lsl #18
    10ec:	11000013 	tstne	r0, r3, lsl r0
    10f0:	0e03000d 	cdpeq	0, 0, cr0, cr3, cr13, {0}
    10f4:	0b3b0b3a 	bleq	ec3de4 <_bsl_base_address+0xcc1de4>
    10f8:	13490b39 	movtne	r0, #39737	; 0x9b39
    10fc:	00000538 	andeq	r0, r0, r8, lsr r5
    1100:	27001512 	smladcs	r0, r2, r5, r1
    1104:	13000019 	movwne	r0, #25
    1108:	19270115 	stmdbne	r7!, {r0, r2, r4, r8}
    110c:	13011349 	movwne	r1, #4937	; 0x1349
    1110:	05140000 	ldreq	r0, [r4, #-0]
    1114:	00134900 	andseq	r4, r3, r0, lsl #18
    1118:	00261500 	eoreq	r1, r6, r0, lsl #10
    111c:	00001349 	andeq	r1, r0, r9, asr #6
    1120:	03011316 	movweq	r1, #4886	; 0x1316
    1124:	3a050b0e 	bcc	143d64 <__data_load__+0x142f04>
    1128:	39053b0b 	stmdbcc	r5, {r0, r1, r3, r8, r9, fp, ip, sp}
    112c:	0013010b 	andseq	r0, r3, fp, lsl #2
    1130:	000d1700 	andeq	r1, sp, r0, lsl #14
    1134:	0b3a0e03 	bleq	e84948 <_bsl_base_address+0xc82948>
    1138:	0b39053b 	bleq	e4262c <_bsl_base_address+0xc4062c>
    113c:	0b381349 	bleq	e05e68 <_bsl_base_address+0xc03e68>
    1140:	0d180000 	ldceq	0, cr0, [r8, #-0]
    1144:	3a0e0300 	bcc	381d4c <_bsl_base_address+0x17fd4c>
    1148:	39053b0b 	stmdbcc	r5, {r0, r1, r3, r8, r9, fp, ip, sp}
    114c:	3813490b 	ldmdacc	r3, {r0, r1, r3, r8, fp, lr}
    1150:	19000005 	stmdbne	r0, {r0, r2}
    1154:	0e030113 	mcreq	1, 0, r0, cr3, cr3, {0}
    1158:	0b3a0b0b 	bleq	e83d8c <_bsl_base_address+0xc81d8c>
    115c:	0b39053b 	bleq	e42650 <_bsl_base_address+0xc40650>
    1160:	00001301 	andeq	r1, r0, r1, lsl #6
    1164:	0b01131a 	bleq	45dd4 <__data_load__+0x44f74>
    1168:	3b0b3a0b 	blcc	2cf99c <_bsl_base_address+0xcd99c>
    116c:	010b3905 	tsteq	fp, r5, lsl #18
    1170:	1b000013 	blne	11c4 <__data_load__+0x364>
    1174:	0b0b0117 	bleq	2c15d8 <_bsl_base_address+0xbf5d8>
    1178:	053b0b3a 	ldreq	r0, [fp, #-2874]!	; 0xfffff4c6
    117c:	13010b39 	movwne	r0, #6969	; 0x1b39
    1180:	0d1c0000 	ldceq	0, cr0, [ip, #-0]
    1184:	3a0e0300 	bcc	381d8c <_bsl_base_address+0x17fd8c>
    1188:	39053b0b 	stmdbcc	r5, {r0, r1, r3, r8, r9, fp, ip, sp}
    118c:	0013490b 	andseq	r4, r3, fp, lsl #18
    1190:	00131d00 	andseq	r1, r3, r0, lsl #26
    1194:	193c0e03 	ldmdbne	ip!, {r0, r1, r9, sl, fp}
    1198:	151e0000 	ldrne	r0, [lr, #-0]
    119c:	01192701 	tsteq	r9, r1, lsl #14
    11a0:	1f000013 	svcne	0x00000013
    11a4:	0e030034 	mcreq	0, 0, r0, cr3, cr4, {1}
    11a8:	053b0b3a 	ldreq	r0, [fp, #-2874]!	; 0xfffff4c6
    11ac:	13490b39 	movtne	r0, #39737	; 0x9b39
    11b0:	193c193f 	ldmdbne	ip!, {r0, r1, r2, r3, r4, r5, r8, fp, ip}
    11b4:	04200000 	strteq	r0, [r0], #-0
    11b8:	3e0e0301 	cdpcc	3, 0, cr0, cr14, cr1, {0}
    11bc:	490b0b0b 	stmdbmi	fp, {r0, r1, r3, r8, r9, fp}
    11c0:	3b0b3a13 	blcc	2cfa14 <_bsl_base_address+0xcda14>
    11c4:	010b390b 	tsteq	fp, fp, lsl #18
    11c8:	21000013 	tstcs	r0, r3, lsl r0
    11cc:	0e030028 	cdpeq	0, 0, cr0, cr3, cr8, {1}
    11d0:	00000b1c 	andeq	r0, r0, ip, lsl fp
    11d4:	3f012e22 	svccc	0x00012e22
    11d8:	3a0e0319 	bcc	381e44 <_bsl_base_address+0x17fe44>
    11dc:	390b3b0b 	stmdbcc	fp, {r0, r1, r3, r8, r9, fp, ip, sp}
    11e0:	4919270b 	ldmdbmi	r9, {r0, r1, r3, r8, r9, sl, sp}
    11e4:	12011113 	andne	r1, r1, #-1073741820	; 0xc0000004
    11e8:	97184006 	ldrls	r4, [r8, -r6]
    11ec:	13011942 	movwne	r1, #6466	; 0x1942
    11f0:	05230000 	streq	r0, [r3, #-0]!
    11f4:	3a0e0300 	bcc	381dfc <_bsl_base_address+0x17fdfc>
    11f8:	390b3b0b 	stmdbcc	fp, {r0, r1, r3, r8, r9, fp, ip, sp}
    11fc:	0213490b 	andseq	r4, r3, #180224	; 0x2c000
    1200:	1742b717 	smlaldne	fp, r2, r7, r7
    1204:	05240000 	streq	r0, [r4, #-0]!
    1208:	3a080300 	bcc	201e10 <_tlv_base_address+0xe10>
    120c:	390b3b0b 	stmdbcc	fp, {r0, r1, r3, r8, r9, fp, ip, sp}
    1210:	0213490b 	andseq	r4, r3, #180224	; 0x2c000
    1214:	25000018 	strcs	r0, [r0, #-24]	; 0xffffffe8
    1218:	08030005 	stmdaeq	r3, {r0, r2}
    121c:	0b3b0b3a 	bleq	ec3f0c <_bsl_base_address+0xcc1f0c>
    1220:	13490b39 	movtne	r0, #39737	; 0x9b39
    1224:	42b71702 	adcsmi	r1, r7, #524288	; 0x80000
    1228:	26000017 			; <UNDEFINED> instruction: 0x26000017
    122c:	0e030034 	mcreq	0, 0, r0, cr3, cr4, {1}
    1230:	0b3b0b3a 	bleq	ec3f20 <_bsl_base_address+0xcc1f20>
    1234:	13490b39 	movtne	r0, #39737	; 0x9b39
    1238:	42b71702 	adcsmi	r1, r7, #524288	; 0x80000
    123c:	27000017 	smladcs	r0, r7, r0, r0
    1240:	08030034 	stmdaeq	r3, {r2, r4, r5}
    1244:	0b3b0b3a 	bleq	ec3f34 <_bsl_base_address+0xcc1f34>
    1248:	13490b39 	movtne	r0, #39737	; 0x9b39
    124c:	42b71702 	adcsmi	r1, r7, #524288	; 0x80000
    1250:	00000017 	andeq	r0, r0, r7, lsl r0
    1254:	25011101 	strcs	r1, [r1, #-257]	; 0xfffffeff
    1258:	030b130e 	movweq	r1, #45838	; 0xb30e
    125c:	550e1b0e 	strpl	r1, [lr, #-2830]	; 0xfffff4f2
    1260:	10011117 	andne	r1, r1, r7, lsl r1
    1264:	02000017 	andeq	r0, r0, #23
    1268:	0b0b0024 	bleq	2c1300 <_bsl_base_address+0xbf300>
    126c:	0e030b3e 	vmoveq.16	d3[0], r0
    1270:	24030000 	strcs	r0, [r3], #-0
    1274:	3e0b0b00 	vmlacc.f64	d0, d11, d0
    1278:	0008030b 	andeq	r0, r8, fp, lsl #6
    127c:	00160400 	andseq	r0, r6, r0, lsl #8
    1280:	0b3a0e03 	bleq	e84a94 <_bsl_base_address+0xc82a94>
    1284:	0b39053b 	bleq	e42778 <_bsl_base_address+0xc40778>
    1288:	00001349 	andeq	r1, r0, r9, asr #6
    128c:	03001605 	movweq	r1, #1541	; 0x605
    1290:	3b0b3a0e 	blcc	2cfad0 <_bsl_base_address+0xcdad0>
    1294:	490b390b 	stmdbmi	fp, {r0, r1, r3, r8, fp, ip, sp}
    1298:	06000013 			; <UNDEFINED> instruction: 0x06000013
    129c:	0b0b0117 	bleq	2c1700 <_bsl_base_address+0xbf700>
    12a0:	0b3b0b3a 	bleq	ec3f90 <_bsl_base_address+0xcc1f90>
    12a4:	13010b39 	movwne	r0, #6969	; 0x1b39
    12a8:	0d070000 	stceq	0, cr0, [r7, #-0]
    12ac:	3a0e0300 	bcc	381eb4 <_bsl_base_address+0x17feb4>
    12b0:	390b3b0b 	stmdbcc	fp, {r0, r1, r3, r8, r9, fp, ip, sp}
    12b4:	0013490b 	andseq	r4, r3, fp, lsl #18
    12b8:	01010800 	tsteq	r1, r0, lsl #16
    12bc:	13011349 	movwne	r1, #4937	; 0x1349
    12c0:	21090000 	mrscs	r0, (UNDEF: 9)
    12c4:	2f134900 	svccs	0x00134900
    12c8:	0a00000b 	beq	12fc <__data_load__+0x49c>
    12cc:	0b0b0113 	bleq	2c1720 <_bsl_base_address+0xbf720>
    12d0:	0b3b0b3a 	bleq	ec3fc0 <_bsl_base_address+0xcc1fc0>
    12d4:	13010b39 	movwne	r0, #6969	; 0x1b39
    12d8:	0d0b0000 	stceq	0, cr0, [fp, #-0]
    12dc:	3a0e0300 	bcc	381ee4 <_bsl_base_address+0x17fee4>
    12e0:	390b3b0b 	stmdbcc	fp, {r0, r1, r3, r8, r9, fp, ip, sp}
    12e4:	3813490b 	ldmdacc	r3, {r0, r1, r3, r8, fp, lr}
    12e8:	0c00000b 	stceq	0, cr0, [r0], {11}
    12ec:	0b0b000f 	bleq	2c1330 <_bsl_base_address+0xbf330>
    12f0:	130d0000 	movwne	r0, #53248	; 0xd000
    12f4:	0b0e0301 	bleq	381f00 <_bsl_base_address+0x17ff00>
    12f8:	3b0b3a0b 	blcc	2cfb2c <_bsl_base_address+0xcdb2c>
    12fc:	010b390b 	tsteq	fp, fp, lsl #18
    1300:	0e000013 	mcreq	0, 0, r0, cr0, cr3, {0}
    1304:	0803000d 	stmdaeq	r3, {r0, r2, r3}
    1308:	0b3b0b3a 	bleq	ec3ff8 <_bsl_base_address+0xcc1ff8>
    130c:	13490b39 	movtne	r0, #39737	; 0x9b39
    1310:	00000b38 	andeq	r0, r0, r8, lsr fp
    1314:	0b000f0f 	bleq	4f58 <__data_load__+0x40f8>
    1318:	0013490b 	andseq	r4, r3, fp, lsl #18
    131c:	01131000 	tsteq	r3, r0
    1320:	050b0e03 	streq	r0, [fp, #-3587]	; 0xfffff1fd
    1324:	0b3b0b3a 	bleq	ec4014 <_bsl_base_address+0xcc2014>
    1328:	13010b39 	movwne	r0, #6969	; 0x1b39
    132c:	0d110000 	ldceq	0, cr0, [r1, #-0]
    1330:	3a0e0300 	bcc	381f38 <_bsl_base_address+0x17ff38>
    1334:	390b3b0b 	stmdbcc	fp, {r0, r1, r3, r8, r9, fp, ip, sp}
    1338:	3813490b 	ldmdacc	r3, {r0, r1, r3, r8, fp, lr}
    133c:	12000005 	andne	r0, r0, #5
    1340:	19270015 	stmdbne	r7!, {r0, r2, r4}
    1344:	15130000 	ldrne	r0, [r3, #-0]
    1348:	49192701 	ldmdbmi	r9, {r0, r8, r9, sl, sp}
    134c:	00130113 	andseq	r0, r3, r3, lsl r1
    1350:	00051400 	andeq	r1, r5, r0, lsl #8
    1354:	00001349 	andeq	r1, r0, r9, asr #6
    1358:	49002615 	stmdbmi	r0, {r0, r2, r4, r9, sl, sp}
    135c:	16000013 			; <UNDEFINED> instruction: 0x16000013
    1360:	0e030113 	mcreq	1, 0, r0, cr3, cr3, {0}
    1364:	0b3a050b 	bleq	e82798 <_bsl_base_address+0xc80798>
    1368:	0b39053b 	bleq	e4285c <_bsl_base_address+0xc4085c>
    136c:	00001301 	andeq	r1, r0, r1, lsl #6
    1370:	03000d17 	movweq	r0, #3351	; 0xd17
    1374:	3b0b3a0e 	blcc	2cfbb4 <_bsl_base_address+0xcdbb4>
    1378:	490b3905 	stmdbmi	fp, {r0, r2, r8, fp, ip, sp}
    137c:	000b3813 	andeq	r3, fp, r3, lsl r8
    1380:	000d1800 	andeq	r1, sp, r0, lsl #16
    1384:	0b3a0e03 	bleq	e84b98 <_bsl_base_address+0xc82b98>
    1388:	0b39053b 	bleq	e4287c <_bsl_base_address+0xc4087c>
    138c:	05381349 	ldreq	r1, [r8, #-841]!	; 0xfffffcb7
    1390:	13190000 	tstne	r9, #0
    1394:	0b0e0301 	bleq	381fa0 <_bsl_base_address+0x17ffa0>
    1398:	3b0b3a0b 	blcc	2cfbcc <_bsl_base_address+0xcdbcc>
    139c:	010b3905 	tsteq	fp, r5, lsl #18
    13a0:	1a000013 	bne	13f4 <__data_load__+0x594>
    13a4:	0b0b0113 	bleq	2c17f8 <_bsl_base_address+0xbf7f8>
    13a8:	053b0b3a 	ldreq	r0, [fp, #-2874]!	; 0xfffff4c6
    13ac:	13010b39 	movwne	r0, #6969	; 0x1b39
    13b0:	171b0000 	ldrne	r0, [fp, -r0]
    13b4:	3a0b0b01 	bcc	2c3fc0 <_bsl_base_address+0xc1fc0>
    13b8:	39053b0b 	stmdbcc	r5, {r0, r1, r3, r8, r9, fp, ip, sp}
    13bc:	0013010b 	andseq	r0, r3, fp, lsl #2
    13c0:	000d1c00 	andeq	r1, sp, r0, lsl #24
    13c4:	0b3a0e03 	bleq	e84bd8 <_bsl_base_address+0xc82bd8>
    13c8:	0b39053b 	bleq	e428bc <_bsl_base_address+0xc408bc>
    13cc:	00001349 	andeq	r1, r0, r9, asr #6
    13d0:	0300131d 	movweq	r1, #797	; 0x31d
    13d4:	00193c0e 	andseq	r3, r9, lr, lsl #24
    13d8:	01151e00 	tsteq	r5, r0, lsl #28
    13dc:	13011927 	movwne	r1, #6439	; 0x1927
    13e0:	341f0000 	ldrcc	r0, [pc], #-0	; 13e8 <__data_load__+0x588>
    13e4:	3a0e0300 	bcc	381fec <_bsl_base_address+0x17ffec>
    13e8:	39053b0b 	stmdbcc	r5, {r0, r1, r3, r8, r9, fp, ip, sp}
    13ec:	3f13490b 	svccc	0x0013490b
    13f0:	00193c19 	andseq	r3, r9, r9, lsl ip
    13f4:	00342000 	eorseq	r2, r4, r0
    13f8:	0b3a0e03 	bleq	e84c0c <_bsl_base_address+0xc82c0c>
    13fc:	0b390b3b 	bleq	e440f0 <_bsl_base_address+0xc420f0>
    1400:	0b1c1349 	bleq	70612c <_bsl_base_address+0x50412c>
    1404:	34210000 	strtcc	r0, [r1], #-0
    1408:	3a0e0300 	bcc	382010 <_bsl_base_address+0x180010>
    140c:	390b3b0b 	stmdbcc	fp, {r0, r1, r3, r8, r9, fp, ip, sp}
    1410:	3f13490b 	svccc	0x0013490b
    1414:	00193c19 	andseq	r3, r9, r9, lsl ip
    1418:	012e2200 			; <UNDEFINED> instruction: 0x012e2200
    141c:	0e03193f 			; <UNDEFINED> instruction: 0x0e03193f
    1420:	0b3b0b3a 	bleq	ec4110 <_bsl_base_address+0xcc2110>
    1424:	19270b39 	stmdbne	r7!, {r0, r3, r4, r5, r8, r9, fp}
    1428:	06120111 			; <UNDEFINED> instruction: 0x06120111
    142c:	42961840 	addsmi	r1, r6, #64, 16	; 0x400000
    1430:	00130119 	andseq	r0, r3, r9, lsl r1
    1434:	00052300 	andeq	r2, r5, r0, lsl #6
    1438:	0b3a0e03 	bleq	e84c4c <_bsl_base_address+0xc82c4c>
    143c:	0b390b3b 	bleq	e44130 <_bsl_base_address+0xc42130>
    1440:	17021349 	strne	r1, [r2, -r9, asr #6]
    1444:	001742b7 			; <UNDEFINED> instruction: 0x001742b7
    1448:	00052400 	andeq	r2, r5, r0, lsl #8
    144c:	0b3a0803 	bleq	e83460 <_bsl_base_address+0xc81460>
    1450:	0b390b3b 	bleq	e44144 <_bsl_base_address+0xc42144>
    1454:	17021349 	strne	r1, [r2, -r9, asr #6]
    1458:	001742b7 			; <UNDEFINED> instruction: 0x001742b7
    145c:	00342500 	eorseq	r2, r4, r0, lsl #10
    1460:	0b3a0803 	bleq	e83474 <_bsl_base_address+0xc81474>
    1464:	0b390b3b 	bleq	e44158 <_bsl_base_address+0xc42158>
    1468:	17021349 	strne	r1, [r2, -r9, asr #6]
    146c:	001742b7 			; <UNDEFINED> instruction: 0x001742b7
    1470:	00342600 	eorseq	r2, r4, r0, lsl #12
    1474:	0b3a0e03 	bleq	e84c88 <_bsl_base_address+0xc82c88>
    1478:	0b390b3b 	bleq	e4416c <_bsl_base_address+0xc4216c>
    147c:	17021349 	strne	r1, [r2, -r9, asr #6]
    1480:	001742b7 			; <UNDEFINED> instruction: 0x001742b7
    1484:	000a2700 	andeq	r2, sl, r0, lsl #14
    1488:	0b3a0e03 	bleq	e84c9c <_bsl_base_address+0xc82c9c>
    148c:	0b390b3b 	bleq	e44180 <_bsl_base_address+0xc42180>
    1490:	0b280000 	bleq	a01498 <_bsl_base_address+0x7ff498>
    1494:	00175501 	andseq	r5, r7, r1, lsl #10
    1498:	82892900 	addhi	r2, r9, #0, 18
    149c:	01110101 	tsteq	r1, r1, lsl #2
    14a0:	8a2a0000 	bhi	a814a8 <_bsl_base_address+0x87f4a8>
    14a4:	02000182 	andeq	r0, r0, #-2147483616	; 0x80000020
    14a8:	18429118 	stmdane	r2, {r3, r4, r8, ip, pc}^
    14ac:	2e2b0000 	cdpcs	0, 2, cr0, cr11, cr0, {0}
    14b0:	3a0e0301 	bcc	3820bc <_bsl_base_address+0x1800bc>
    14b4:	390b3b0b 	stmdbcc	fp, {r0, r1, r3, r8, r9, fp, ip, sp}
    14b8:	1119270b 	tstne	r9, fp, lsl #14
    14bc:	40061201 	andmi	r1, r6, r1, lsl #4
    14c0:	19429718 	stmdbne	r2, {r3, r4, r8, r9, sl, ip, pc}^
    14c4:	00001301 	andeq	r1, r0, r1, lsl #6
    14c8:	11010b2c 	tstne	r1, ip, lsr #22
    14cc:	00061201 	andeq	r1, r6, r1, lsl #4
    14d0:	002e2d00 	eoreq	r2, lr, r0, lsl #26
    14d4:	0e03193f 			; <UNDEFINED> instruction: 0x0e03193f
    14d8:	0b3b0b3a 	bleq	ec41c8 <_bsl_base_address+0xcc21c8>
    14dc:	19270b39 	stmdbne	r7!, {r0, r3, r4, r5, r8, r9, fp}
    14e0:	0000193c 	andeq	r1, r0, ip, lsr r9
    14e4:	0182892e 	orreq	r8, r2, lr, lsr #18
    14e8:	31011100 	mrscc	r1, (UNDEF: 17)
    14ec:	2f000013 	svccs	0x00000013
    14f0:	193f002e 	ldmdbne	pc!, {r1, r2, r3, r5}	; <UNPREDICTABLE>
    14f4:	0e6e193c 			; <UNDEFINED> instruction: 0x0e6e193c
    14f8:	0b3a0e03 	bleq	e84d0c <_bsl_base_address+0xc82d0c>
    14fc:	0b390b3b 	bleq	e441f0 <_bsl_base_address+0xc421f0>
    1500:	01000000 	mrseq	r0, (UNDEF: 0)
    1504:	0e250111 	mcreq	1, 1, r0, cr5, cr1, {0}
    1508:	0e030b13 	vmoveq.32	d3[0], r0
    150c:	01110e1b 	tsteq	r1, fp, lsl lr
    1510:	17100612 			; <UNDEFINED> instruction: 0x17100612
    1514:	24020000 	strcs	r0, [r2], #-0
    1518:	3e0b0b00 	vmlacc.f64	d0, d11, d0
    151c:	0008030b 	andeq	r0, r8, fp, lsl #6
    1520:	00160300 	andseq	r0, r6, r0, lsl #6
    1524:	0b3a0e03 	bleq	e84d38 <_bsl_base_address+0xc82d38>
    1528:	0b390b3b 	bleq	e4421c <_bsl_base_address+0xc4221c>
    152c:	00001349 	andeq	r1, r0, r9, asr #6
    1530:	0b002404 	bleq	a548 <__data_load__+0x96e8>
    1534:	030b3e0b 	movweq	r3, #48651	; 0xbe0b
    1538:	0500000e 	streq	r0, [r0, #-14]
    153c:	0b0b000f 	bleq	2c1580 <_bsl_base_address+0xbf580>
    1540:	16060000 	strne	r0, [r6], -r0
    1544:	3a0e0300 	bcc	38214c <_bsl_base_address+0x18014c>
    1548:	39053b0b 	stmdbcc	r5, {r0, r1, r3, r8, r9, fp, ip, sp}
    154c:	0013490b 	andseq	r4, r3, fp, lsl #18
    1550:	01170700 	tsteq	r7, r0, lsl #14
    1554:	0b3a0b0b 	bleq	e84188 <_bsl_base_address+0xc82188>
    1558:	0b390b3b 	bleq	e4424c <_bsl_base_address+0xc4224c>
    155c:	00001301 	andeq	r1, r0, r1, lsl #6
    1560:	03000d08 	movweq	r0, #3336	; 0xd08
    1564:	3b0b3a0e 	blcc	2cfda4 <_bsl_base_address+0xcdda4>
    1568:	490b390b 	stmdbmi	fp, {r0, r1, r3, r8, fp, ip, sp}
    156c:	09000013 	stmdbeq	r0, {r0, r1, r4}
    1570:	13490101 	movtne	r0, #37121	; 0x9101
    1574:	00001301 	andeq	r1, r0, r1, lsl #6
    1578:	4900210a 	stmdbmi	r0, {r1, r3, r8, sp}
    157c:	000b2f13 	andeq	r2, fp, r3, lsl pc
    1580:	01130b00 	tsteq	r3, r0, lsl #22
    1584:	0b3a0b0b 	bleq	e841b8 <_bsl_base_address+0xc821b8>
    1588:	0b390b3b 	bleq	e4427c <_bsl_base_address+0xc4227c>
    158c:	00001301 	andeq	r1, r0, r1, lsl #6
    1590:	03000d0c 	movweq	r0, #3340	; 0xd0c
    1594:	3b0b3a0e 	blcc	2cfdd4 <_bsl_base_address+0xcddd4>
    1598:	490b390b 	stmdbmi	fp, {r0, r1, r3, r8, fp, ip, sp}
    159c:	000b3813 	andeq	r3, fp, r3, lsl r8
    15a0:	01130d00 	tsteq	r3, r0, lsl #26
    15a4:	0b0b0e03 	bleq	2c4db8 <_bsl_base_address+0xc2db8>
    15a8:	0b3b0b3a 	bleq	ec4298 <_bsl_base_address+0xcc2298>
    15ac:	13010b39 	movwne	r0, #6969	; 0x1b39
    15b0:	0d0e0000 	stceq	0, cr0, [lr, #-0]
    15b4:	3a080300 	bcc	2021bc <_bsl_base_address+0x1bc>
    15b8:	390b3b0b 	stmdbcc	fp, {r0, r1, r3, r8, r9, fp, ip, sp}
    15bc:	3813490b 	ldmdacc	r3, {r0, r1, r3, r8, fp, lr}
    15c0:	0f00000b 	svceq	0x0000000b
    15c4:	0b0b000f 	bleq	2c1608 <_bsl_base_address+0xbf608>
    15c8:	00001349 	andeq	r1, r0, r9, asr #6
    15cc:	03011310 	movweq	r1, #4880	; 0x1310
    15d0:	3a050b0e 	bcc	144210 <__data_load__+0x1433b0>
    15d4:	390b3b0b 	stmdbcc	fp, {r0, r1, r3, r8, r9, fp, ip, sp}
    15d8:	0013010b 	andseq	r0, r3, fp, lsl #2
    15dc:	000d1100 	andeq	r1, sp, r0, lsl #2
    15e0:	0b3a0e03 	bleq	e84df4 <_bsl_base_address+0xc82df4>
    15e4:	0b390b3b 	bleq	e442d8 <_bsl_base_address+0xc422d8>
    15e8:	05381349 	ldreq	r1, [r8, #-841]!	; 0xfffffcb7
    15ec:	15120000 	ldrne	r0, [r2, #-0]
    15f0:	00192700 	andseq	r2, r9, r0, lsl #14
    15f4:	01151300 	tsteq	r5, r0, lsl #6
    15f8:	13491927 	movtne	r1, #39207	; 0x9927
    15fc:	00001301 	andeq	r1, r0, r1, lsl #6
    1600:	49000514 	stmdbmi	r0, {r2, r4, r8, sl}
    1604:	15000013 	strne	r0, [r0, #-19]	; 0xffffffed
    1608:	0e030113 	mcreq	1, 0, r0, cr3, cr3, {0}
    160c:	0b3a050b 	bleq	e82a40 <_bsl_base_address+0xc80a40>
    1610:	0b39053b 	bleq	e42b04 <_bsl_base_address+0xc40b04>
    1614:	00001301 	andeq	r1, r0, r1, lsl #6
    1618:	03000d16 	movweq	r0, #3350	; 0xd16
    161c:	3b0b3a0e 	blcc	2cfe5c <_bsl_base_address+0xcde5c>
    1620:	490b3905 	stmdbmi	fp, {r0, r2, r8, fp, ip, sp}
    1624:	000b3813 	andeq	r3, fp, r3, lsl r8
    1628:	000d1700 	andeq	r1, sp, r0, lsl #14
    162c:	0b3a0e03 	bleq	e84e40 <_bsl_base_address+0xc82e40>
    1630:	0b39053b 	bleq	e42b24 <_bsl_base_address+0xc40b24>
    1634:	05381349 	ldreq	r1, [r8, #-841]!	; 0xfffffcb7
    1638:	26180000 	ldrcs	r0, [r8], -r0
    163c:	00134900 	andseq	r4, r3, r0, lsl #18
    1640:	01131900 	tsteq	r3, r0, lsl #18
    1644:	0b0b0e03 	bleq	2c4e58 <_bsl_base_address+0xc2e58>
    1648:	053b0b3a 	ldreq	r0, [fp, #-2874]!	; 0xfffff4c6
    164c:	13010b39 	movwne	r0, #6969	; 0x1b39
    1650:	131a0000 	tstne	sl, #0
    1654:	3a0b0b01 	bcc	2c4260 <_bsl_base_address+0xc2260>
    1658:	39053b0b 	stmdbcc	r5, {r0, r1, r3, r8, r9, fp, ip, sp}
    165c:	0013010b 	andseq	r0, r3, fp, lsl #2
    1660:	01171b00 	tsteq	r7, r0, lsl #22
    1664:	0b3a0b0b 	bleq	e84298 <_bsl_base_address+0xc82298>
    1668:	0b39053b 	bleq	e42b5c <_bsl_base_address+0xc40b5c>
    166c:	00001301 	andeq	r1, r0, r1, lsl #6
    1670:	03000d1c 	movweq	r0, #3356	; 0xd1c
    1674:	3b0b3a0e 	blcc	2cfeb4 <_bsl_base_address+0xcdeb4>
    1678:	490b3905 	stmdbmi	fp, {r0, r2, r8, fp, ip, sp}
    167c:	1d000013 	stcne	0, cr0, [r0, #-76]	; 0xffffffb4
    1680:	0e030013 	mcreq	0, 0, r0, cr3, cr3, {0}
    1684:	0000193c 	andeq	r1, r0, ip, lsr r9
    1688:	2701151e 	smladcs	r1, lr, r5, r1
    168c:	00130119 	andseq	r0, r3, r9, lsl r1
    1690:	000d1f00 	andeq	r1, sp, r0, lsl #30
    1694:	0b3a0803 	bleq	e836a8 <_bsl_base_address+0xc816a8>
    1698:	0b39053b 	bleq	e42b8c <_bsl_base_address+0xc40b8c>
    169c:	0b381349 	bleq	e063c8 <_bsl_base_address+0xc043c8>
    16a0:	21200000 			; <UNDEFINED> instruction: 0x21200000
    16a4:	2f134900 	svccs	0x00134900
    16a8:	21000005 	tstcs	r0, r5
    16ac:	0e030034 	mcreq	0, 0, r0, cr3, cr4, {1}
    16b0:	053b0b3a 	ldreq	r0, [fp, #-2874]!	; 0xfffff4c6
    16b4:	13490b39 	movtne	r0, #39737	; 0x9b39
    16b8:	193c193f 	ldmdbne	ip!, {r0, r1, r2, r3, r4, r5, r8, fp, ip}
    16bc:	2e220000 	cdpcs	0, 2, cr0, cr2, cr0, {0}
    16c0:	03193f01 	tsteq	r9, #1, 30
    16c4:	3b0b3a0e 	blcc	2cff04 <_bsl_base_address+0xcdf04>
    16c8:	270b3905 	strcs	r3, [fp, -r5, lsl #18]
    16cc:	11134919 	tstne	r3, r9, lsl r9
    16d0:	40061201 	andmi	r1, r6, r1, lsl #4
    16d4:	19429718 	stmdbne	r2, {r3, r4, r8, r9, sl, ip, pc}^
    16d8:	00001301 	andeq	r1, r0, r1, lsl #6
    16dc:	03000523 	movweq	r0, #1315	; 0x523
    16e0:	3b0b3a0e 	blcc	2cff20 <_bsl_base_address+0xcdf20>
    16e4:	490b3905 	stmdbmi	fp, {r0, r2, r8, fp, ip, sp}
    16e8:	b7170213 			; <UNDEFINED> instruction: 0xb7170213
    16ec:	00001742 	andeq	r1, r0, r2, asr #14
    16f0:	03000524 	movweq	r0, #1316	; 0x524
    16f4:	3b0b3a08 	blcc	2cff1c <_bsl_base_address+0xcdf1c>
    16f8:	490b3905 	stmdbmi	fp, {r0, r2, r8, fp, ip, sp}
    16fc:	b7170213 			; <UNDEFINED> instruction: 0xb7170213
    1700:	00001742 	andeq	r1, r0, r2, asr #14
    1704:	03003425 	movweq	r3, #1061	; 0x425
    1708:	3b0b3a0e 	blcc	2cff48 <_bsl_base_address+0xcdf48>
    170c:	490b3905 	stmdbmi	fp, {r0, r2, r8, fp, ip, sp}
    1710:	b7170213 			; <UNDEFINED> instruction: 0xb7170213
    1714:	00001742 	andeq	r1, r0, r2, asr #14
    1718:	03003426 	movweq	r3, #1062	; 0x426
    171c:	3b0b3a0e 	blcc	2cff5c <_bsl_base_address+0xcdf5c>
    1720:	490b3905 	stmdbmi	fp, {r0, r2, r8, fp, ip, sp}
    1724:	00051c13 	andeq	r1, r5, r3, lsl ip
    1728:	82892700 	addhi	r2, r9, #0, 14
    172c:	01110101 	tsteq	r1, r1, lsl #2
    1730:	13011331 	movwne	r1, #4913	; 0x1331
    1734:	8a280000 	bhi	a0173c <_bsl_base_address+0x7ff73c>
    1738:	02000182 	andeq	r0, r0, #-2147483616	; 0x80000020
    173c:	18429118 	stmdane	r2, {r3, r4, r8, ip, pc}^
    1740:	89290000 	stmdbhi	r9!, {}	; <UNPREDICTABLE>
    1744:	11010182 	smlabbne	r1, r2, r1, r0
    1748:	00133101 	andseq	r3, r3, r1, lsl #2
    174c:	012e2a00 			; <UNDEFINED> instruction: 0x012e2a00
    1750:	0e03193f 			; <UNDEFINED> instruction: 0x0e03193f
    1754:	053b0b3a 	ldreq	r0, [fp, #-2874]!	; 0xfffff4c6
    1758:	19270b39 	stmdbne	r7!, {r0, r3, r4, r5, r8, r9, fp}
    175c:	06120111 			; <UNDEFINED> instruction: 0x06120111
    1760:	42971840 	addsmi	r1, r7, #64, 16	; 0x400000
    1764:	00130119 	andseq	r0, r3, r9, lsl r1
    1768:	00342b00 	eorseq	r2, r4, r0, lsl #22
    176c:	0b3a0803 	bleq	e83780 <_bsl_base_address+0xc81780>
    1770:	0b39053b 	bleq	e42c64 <_bsl_base_address+0xc40c64>
    1774:	17021349 	strne	r1, [r2, -r9, asr #6]
    1778:	001742b7 			; <UNDEFINED> instruction: 0x001742b7
    177c:	002e2c00 	eoreq	r2, lr, r0, lsl #24
    1780:	193c193f 	ldmdbne	ip!, {r0, r1, r2, r3, r4, r5, r8, fp, ip}
    1784:	0e030e6e 	cdpeq	14, 0, cr0, cr3, cr14, {3}
    1788:	053b0b3a 	ldreq	r0, [fp, #-2874]!	; 0xfffff4c6
    178c:	00000b39 	andeq	r0, r0, r9, lsr fp
    1790:	3f002e2d 	svccc	0x00002e2d
    1794:	6e193c19 	mrcvs	12, 0, r3, cr9, cr9, {0}
    1798:	3a0e030e 	bcc	3823d8 <_bsl_base_address+0x1803d8>
    179c:	390b3b0b 	stmdbcc	fp, {r0, r1, r3, r8, r9, fp, ip, sp}
    17a0:	0000000b 	andeq	r0, r0, fp
    17a4:	25011101 	strcs	r1, [r1, #-257]	; 0xfffffeff
    17a8:	030b130e 	movweq	r1, #45838	; 0xb30e
    17ac:	110e1b0e 	tstne	lr, lr, lsl #22
    17b0:	10061201 	andne	r1, r6, r1, lsl #4
    17b4:	02000017 	andeq	r0, r0, #23
    17b8:	0b0b0024 	bleq	2c1850 <_bsl_base_address+0xbf850>
    17bc:	0e030b3e 	vmoveq.16	d3[0], r0
    17c0:	24030000 	strcs	r0, [r3], #-0
    17c4:	3e0b0b00 	vmlacc.f64	d0, d11, d0
    17c8:	0008030b 	andeq	r0, r8, fp, lsl #6
    17cc:	00160400 	andseq	r0, r6, r0, lsl #8
    17d0:	0b3a0e03 	bleq	e84fe4 <_bsl_base_address+0xc82fe4>
    17d4:	0b39053b 	bleq	e42cc8 <_bsl_base_address+0xc40cc8>
    17d8:	00001349 	andeq	r1, r0, r9, asr #6
    17dc:	03001605 	movweq	r1, #1541	; 0x605
    17e0:	3b0b3a0e 	blcc	2d0020 <_bsl_base_address+0xce020>
    17e4:	490b390b 	stmdbmi	fp, {r0, r1, r3, r8, fp, ip, sp}
    17e8:	06000013 			; <UNDEFINED> instruction: 0x06000013
    17ec:	0b0b0117 	bleq	2c1c50 <_bsl_base_address+0xbfc50>
    17f0:	0b3b0b3a 	bleq	ec44e0 <_bsl_base_address+0xcc24e0>
    17f4:	13010b39 	movwne	r0, #6969	; 0x1b39
    17f8:	0d070000 	stceq	0, cr0, [r7, #-0]
    17fc:	3a0e0300 	bcc	382404 <_bsl_base_address+0x180404>
    1800:	390b3b0b 	stmdbcc	fp, {r0, r1, r3, r8, r9, fp, ip, sp}
    1804:	0013490b 	andseq	r4, r3, fp, lsl #18
    1808:	01010800 	tsteq	r1, r0, lsl #16
    180c:	13011349 	movwne	r1, #4937	; 0x1349
    1810:	21090000 	mrscs	r0, (UNDEF: 9)
    1814:	2f134900 	svccs	0x00134900
    1818:	0a00000b 	beq	184c <__data_load__+0x9ec>
    181c:	0b0b0113 	bleq	2c1c70 <_bsl_base_address+0xbfc70>
    1820:	0b3b0b3a 	bleq	ec4510 <_bsl_base_address+0xcc2510>
    1824:	13010b39 	movwne	r0, #6969	; 0x1b39
    1828:	0d0b0000 	stceq	0, cr0, [fp, #-0]
    182c:	3a0e0300 	bcc	382434 <_bsl_base_address+0x180434>
    1830:	390b3b0b 	stmdbcc	fp, {r0, r1, r3, r8, r9, fp, ip, sp}
    1834:	3813490b 	ldmdacc	r3, {r0, r1, r3, r8, fp, lr}
    1838:	0c00000b 	stceq	0, cr0, [r0], {11}
    183c:	0b0b000f 	bleq	2c1880 <_bsl_base_address+0xbf880>
    1840:	130d0000 	movwne	r0, #53248	; 0xd000
    1844:	0b0e0301 	bleq	382450 <_bsl_base_address+0x180450>
    1848:	3b0b3a0b 	blcc	2d007c <_bsl_base_address+0xce07c>
    184c:	010b390b 	tsteq	fp, fp, lsl #18
    1850:	0e000013 	mcreq	0, 0, r0, cr0, cr3, {0}
    1854:	0803000d 	stmdaeq	r3, {r0, r2, r3}
    1858:	0b3b0b3a 	bleq	ec4548 <_bsl_base_address+0xcc2548>
    185c:	13490b39 	movtne	r0, #39737	; 0x9b39
    1860:	00000b38 	andeq	r0, r0, r8, lsr fp
    1864:	0b000f0f 	bleq	54a8 <__data_load__+0x4648>
    1868:	0013490b 	andseq	r4, r3, fp, lsl #18
    186c:	01131000 	tsteq	r3, r0
    1870:	050b0e03 	streq	r0, [fp, #-3587]	; 0xfffff1fd
    1874:	0b3b0b3a 	bleq	ec4564 <_bsl_base_address+0xcc2564>
    1878:	13010b39 	movwne	r0, #6969	; 0x1b39
    187c:	0d110000 	ldceq	0, cr0, [r1, #-0]
    1880:	3a0e0300 	bcc	382488 <_bsl_base_address+0x180488>
    1884:	390b3b0b 	stmdbcc	fp, {r0, r1, r3, r8, r9, fp, ip, sp}
    1888:	3813490b 	ldmdacc	r3, {r0, r1, r3, r8, fp, lr}
    188c:	12000005 	andne	r0, r0, #5
    1890:	19270015 	stmdbne	r7!, {r0, r2, r4}
    1894:	15130000 	ldrne	r0, [r3, #-0]
    1898:	49192701 	ldmdbmi	r9, {r0, r8, r9, sl, sp}
    189c:	00130113 	andseq	r0, r3, r3, lsl r1
    18a0:	00051400 	andeq	r1, r5, r0, lsl #8
    18a4:	00001349 	andeq	r1, r0, r9, asr #6
    18a8:	03011315 	movweq	r1, #4885	; 0x1315
    18ac:	3a050b0e 	bcc	1444ec <__data_load__+0x14368c>
    18b0:	39053b0b 	stmdbcc	r5, {r0, r1, r3, r8, r9, fp, ip, sp}
    18b4:	0013010b 	andseq	r0, r3, fp, lsl #2
    18b8:	000d1600 	andeq	r1, sp, r0, lsl #12
    18bc:	0b3a0e03 	bleq	e850d0 <_bsl_base_address+0xc830d0>
    18c0:	0b39053b 	bleq	e42db4 <_bsl_base_address+0xc40db4>
    18c4:	0b381349 	bleq	e065f0 <_bsl_base_address+0xc045f0>
    18c8:	0d170000 	ldceq	0, cr0, [r7, #-0]
    18cc:	3a0e0300 	bcc	3824d4 <_bsl_base_address+0x1804d4>
    18d0:	39053b0b 	stmdbcc	r5, {r0, r1, r3, r8, r9, fp, ip, sp}
    18d4:	3813490b 	ldmdacc	r3, {r0, r1, r3, r8, fp, lr}
    18d8:	18000005 	stmdane	r0, {r0, r2}
    18dc:	13490026 	movtne	r0, #36902	; 0x9026
    18e0:	13190000 	tstne	r9, #0
    18e4:	0b0e0301 	bleq	3824f0 <_bsl_base_address+0x1804f0>
    18e8:	3b0b3a0b 	blcc	2d011c <_bsl_base_address+0xce11c>
    18ec:	010b3905 	tsteq	fp, r5, lsl #18
    18f0:	1a000013 	bne	1944 <__data_load__+0xae4>
    18f4:	0b0b0113 	bleq	2c1d48 <_bsl_base_address+0xbfd48>
    18f8:	053b0b3a 	ldreq	r0, [fp, #-2874]!	; 0xfffff4c6
    18fc:	13010b39 	movwne	r0, #6969	; 0x1b39
    1900:	171b0000 	ldrne	r0, [fp, -r0]
    1904:	3a0b0b01 	bcc	2c4510 <_bsl_base_address+0xc2510>
    1908:	39053b0b 	stmdbcc	r5, {r0, r1, r3, r8, r9, fp, ip, sp}
    190c:	0013010b 	andseq	r0, r3, fp, lsl #2
    1910:	000d1c00 	andeq	r1, sp, r0, lsl #24
    1914:	0b3a0e03 	bleq	e85128 <_bsl_base_address+0xc83128>
    1918:	0b39053b 	bleq	e42e0c <_bsl_base_address+0xc40e0c>
    191c:	00001349 	andeq	r1, r0, r9, asr #6
    1920:	0300131d 	movweq	r1, #797	; 0x31d
    1924:	00193c0e 	andseq	r3, r9, lr, lsl #24
    1928:	01151e00 	tsteq	r5, r0, lsl #28
    192c:	13011927 	movwne	r1, #6439	; 0x1927
    1930:	341f0000 	ldrcc	r0, [pc], #-0	; 1938 <__data_load__+0xad8>
    1934:	3a0e0300 	bcc	38253c <_bsl_base_address+0x18053c>
    1938:	39053b0b 	stmdbcc	r5, {r0, r1, r3, r8, r9, fp, ip, sp}
    193c:	3f13490b 	svccc	0x0013490b
    1940:	00193c19 	andseq	r3, r9, r9, lsl ip
    1944:	00342000 	eorseq	r2, r4, r0
    1948:	0b3a0e03 	bleq	e8515c <_bsl_base_address+0xc8315c>
    194c:	0b390b3b 	bleq	e44640 <_bsl_base_address+0xc42640>
    1950:	193f1349 	ldmdbne	pc!, {r0, r3, r6, r8, r9, ip}	; <UNPREDICTABLE>
    1954:	00001802 	andeq	r1, r0, r2, lsl #16
    1958:	3f012e21 	svccc	0x00012e21
    195c:	3a0e0319 	bcc	3825c8 <_bsl_base_address+0x1805c8>
    1960:	39053b0b 	stmdbcc	r5, {r0, r1, r3, r8, r9, fp, ip, sp}
    1964:	1119270b 	tstne	r9, fp, lsl #14
    1968:	40061201 	andmi	r1, r6, r1, lsl #4
    196c:	19429718 	stmdbne	r2, {r3, r4, r8, r9, sl, ip, pc}^
    1970:	00001301 	andeq	r1, r0, r1, lsl #6
    1974:	03000522 	movweq	r0, #1314	; 0x522
    1978:	3b0b3a08 	blcc	2d01a0 <_bsl_base_address+0xce1a0>
    197c:	490b390b 	stmdbmi	fp, {r0, r1, r3, r8, fp, ip, sp}
    1980:	b7170213 			; <UNDEFINED> instruction: 0xb7170213
    1984:	00001742 	andeq	r1, r0, r2, asr #14
    1988:	11010b23 	tstne	r1, r3, lsr #22
    198c:	01061201 	tsteq	r6, r1, lsl #4
    1990:	24000013 	strcs	r0, [r0], #-19	; 0xffffffed
    1994:	08030034 	stmdaeq	r3, {r2, r4, r5}
    1998:	0b3b0b3a 	bleq	ec4688 <_bsl_base_address+0xcc2688>
    199c:	13490b39 	movtne	r0, #39737	; 0x9b39
    19a0:	34250000 	strtcc	r0, [r5], #-0
    19a4:	3a0e0300 	bcc	3825ac <_bsl_base_address+0x1805ac>
    19a8:	390b3b0b 	stmdbcc	fp, {r0, r1, r3, r8, r9, fp, ip, sp}
    19ac:	0213490b 	andseq	r4, r3, #180224	; 0x2c000
    19b0:	1742b717 	smlaldne	fp, r2, r7, r7
    19b4:	89260000 	stmdbhi	r6!, {}	; <UNPREDICTABLE>
    19b8:	11010182 	smlabbne	r1, r2, r1, r0
    19bc:	00133101 	andseq	r3, r3, r1, lsl #2
    19c0:	828a2700 	addhi	r2, sl, #0, 14
    19c4:	18020001 	stmdane	r2, {r0}
    19c8:	00184291 	mulseq	r8, r1, r2
    19cc:	00342800 	eorseq	r2, r4, r0, lsl #16
    19d0:	0b3a0803 	bleq	e839e4 <_bsl_base_address+0xc819e4>
    19d4:	0b390b3b 	bleq	e446c8 <_bsl_base_address+0xc426c8>
    19d8:	17021349 	strne	r1, [r2, -r9, asr #6]
    19dc:	001742b7 			; <UNDEFINED> instruction: 0x001742b7
    19e0:	011d2900 	tsteq	sp, r0, lsl #18
    19e4:	01521331 	cmpeq	r2, r1, lsr r3
    19e8:	110b42b8 			; <UNDEFINED> instruction: 0x110b42b8
    19ec:	58061201 	stmdapl	r6, {r0, r9, ip}
    19f0:	570b590b 	strpl	r5, [fp, -fp, lsl #18]
    19f4:	0013010b 	andseq	r0, r3, fp, lsl #2
    19f8:	00052a00 	andeq	r2, r5, r0, lsl #20
    19fc:	17021331 	smladxne	r2, r1, r3, r1
    1a00:	001742b7 			; <UNDEFINED> instruction: 0x001742b7
    1a04:	82892b00 	addhi	r2, r9, #0, 22
    1a08:	01110101 	tsteq	r1, r1, lsl #2
    1a0c:	13011331 	movwne	r1, #4913	; 0x1331
    1a10:	892c0000 	stmdbhi	ip!, {}	; <UNPREDICTABLE>
    1a14:	11010182 	smlabbne	r1, r2, r1, r0
    1a18:	2d000001 	stccs	0, cr0, [r0, #-4]
    1a1c:	193f012e 	ldmdbne	pc!, {r1, r2, r3, r5, r8}	; <UNPREDICTABLE>
    1a20:	0b3a0e03 	bleq	e85234 <_bsl_base_address+0xc83234>
    1a24:	0b390b3b 	bleq	e44718 <_bsl_base_address+0xc42718>
    1a28:	0b201927 	bleq	807ecc <_bsl_base_address+0x605ecc>
    1a2c:	00001301 	andeq	r1, r0, r1, lsl #6
    1a30:	0300052e 	movweq	r0, #1326	; 0x52e
    1a34:	3b0b3a08 	blcc	2d025c <_bsl_base_address+0xce25c>
    1a38:	490b390b 	stmdbmi	fp, {r0, r1, r3, r8, fp, ip, sp}
    1a3c:	2f000013 	svccs	0x00000013
    1a40:	0e030005 	cdpeq	0, 0, cr0, cr3, cr5, {0}
    1a44:	0b3b0b3a 	bleq	ec4734 <_bsl_base_address+0xcc2734>
    1a48:	13490b39 	movtne	r0, #39737	; 0x9b39
    1a4c:	2e300000 	cdpcs	0, 3, cr0, cr0, cr0, {0}
    1a50:	11133101 	tstne	r3, r1, lsl #2
    1a54:	40061201 	andmi	r1, r6, r1, lsl #4
    1a58:	19429718 	stmdbne	r2, {r3, r4, r8, r9, sl, ip, pc}^
    1a5c:	00001301 	andeq	r1, r0, r1, lsl #6
    1a60:	3f002e31 	svccc	0x00002e31
    1a64:	6e193c19 	mrcvs	12, 0, r3, cr9, cr9, {0}
    1a68:	3a0e030e 	bcc	3826a8 <_bsl_base_address+0x1806a8>
    1a6c:	39053b0b 	stmdbcc	r5, {r0, r1, r3, r8, r9, fp, ip, sp}
    1a70:	0000000b 	andeq	r0, r0, fp
    1a74:	25011101 	strcs	r1, [r1, #-257]	; 0xfffffeff
    1a78:	030b130e 	movweq	r1, #45838	; 0xb30e
    1a7c:	110e1b0e 	tstne	lr, lr, lsl #22
    1a80:	10061201 	andne	r1, r6, r1, lsl #4
    1a84:	02000017 	andeq	r0, r0, #23
    1a88:	193f012e 	ldmdbne	pc!, {r1, r2, r3, r5, r8}	; <UNPREDICTABLE>
    1a8c:	0b3a0e03 	bleq	e852a0 <_bsl_base_address+0xc832a0>
    1a90:	0b390b3b 	bleq	e44784 <_bsl_base_address+0xc42784>
    1a94:	01111349 	tsteq	r1, r9, asr #6
    1a98:	18400612 	stmdane	r0, {r1, r4, r9, sl}^
    1a9c:	01194297 			; <UNDEFINED> instruction: 0x01194297
    1aa0:	03000013 	movweq	r0, #19
    1aa4:	0e030005 	cdpeq	0, 0, cr0, cr3, cr5, {0}
    1aa8:	0b3b0b3a 	bleq	ec4798 <_bsl_base_address+0xcc2798>
    1aac:	13490b39 	movtne	r0, #39737	; 0x9b39
    1ab0:	42b71702 	adcsmi	r1, r7, #524288	; 0x80000
    1ab4:	04000017 	streq	r0, [r0], #-23	; 0xffffffe9
    1ab8:	08030034 	stmdaeq	r3, {r2, r4, r5}
    1abc:	0b3b0b3a 	bleq	ec47ac <_bsl_base_address+0xcc27ac>
    1ac0:	13490b39 	movtne	r0, #39737	; 0x9b39
    1ac4:	193c193f 	ldmdbne	ip!, {r0, r1, r2, r3, r4, r5, r8, fp, ip}
    1ac8:	34050000 	strcc	r0, [r5], #-0
    1acc:	3a0e0300 	bcc	3826d4 <_bsl_base_address+0x1806d4>
    1ad0:	390b3b0b 	stmdbcc	fp, {r0, r1, r3, r8, r9, fp, ip, sp}
    1ad4:	0213490b 	andseq	r4, r3, #180224	; 0x2c000
    1ad8:	06000018 			; <UNDEFINED> instruction: 0x06000018
    1adc:	0e030034 	mcreq	0, 0, r0, cr3, cr4, {1}
    1ae0:	0b3b0b3a 	bleq	ec47d0 <_bsl_base_address+0xcc27d0>
    1ae4:	13490b39 	movtne	r0, #39737	; 0x9b39
    1ae8:	42b71702 	adcsmi	r1, r7, #524288	; 0x80000
    1aec:	07000017 	smladeq	r0, r7, r0, r0
    1af0:	0b0b000f 	bleq	2c1b34 <_bsl_base_address+0xbfb34>
    1af4:	24080000 	strcs	r0, [r8], #-0
    1af8:	3e0b0b00 	vmlacc.f64	d0, d11, d0
    1afc:	0008030b 	andeq	r0, r8, fp, lsl #6
    1b00:	00240900 	eoreq	r0, r4, r0, lsl #18
    1b04:	0b3e0b0b 	bleq	f84738 <_bsl_base_address+0xd82738>
    1b08:	00000e03 	andeq	r0, r0, r3, lsl #28
    1b0c:	0b000f0a 	bleq	573c <__data_load__+0x48dc>
    1b10:	0013490b 	andseq	r4, r3, fp, lsl #18
    1b14:	11010000 	mrsne	r0, (UNDEF: 1)
    1b18:	130e2501 	movwne	r2, #58625	; 0xe501
    1b1c:	1b0e030b 	blne	382750 <_bsl_base_address+0x180750>
    1b20:	1201110e 	andne	r1, r1, #-2147483645	; 0x80000003
    1b24:	00171006 	andseq	r1, r7, r6
    1b28:	00240200 	eoreq	r0, r4, r0, lsl #4
    1b2c:	0b3e0b0b 	bleq	f84760 <_bsl_base_address+0xd82760>
    1b30:	00000e03 	andeq	r0, r0, r3, lsl #28
    1b34:	0b002403 	bleq	ab48 <__data_load__+0x9ce8>
    1b38:	030b3e0b 	movweq	r3, #48651	; 0xbe0b
    1b3c:	04000008 	streq	r0, [r0], #-8
    1b40:	193f012e 	ldmdbne	pc!, {r1, r2, r3, r5, r8}	; <UNPREDICTABLE>
    1b44:	0b3a0e03 	bleq	e85358 <_bsl_base_address+0xc83358>
    1b48:	0b390b3b 	bleq	e4483c <_bsl_base_address+0xc4283c>
    1b4c:	01871927 	orreq	r1, r7, r7, lsr #18
    1b50:	12011119 	andne	r1, r1, #1073741830	; 0x40000006
    1b54:	97184006 	ldrls	r4, [r8, -r6]
    1b58:	00001942 	andeq	r1, r0, r2, asr #18
    1b5c:	03000505 	movweq	r0, #1285	; 0x505
    1b60:	3b0b3a08 	blcc	2d0388 <_bsl_base_address+0xce388>
    1b64:	490b390b 	stmdbmi	fp, {r0, r1, r3, r8, fp, ip, sp}
    1b68:	b7170213 			; <UNDEFINED> instruction: 0xb7170213
    1b6c:	00001742 	andeq	r1, r0, r2, asr #14
    1b70:	03003406 	movweq	r3, #1030	; 0x406
    1b74:	3b0b3a08 	blcc	2d039c <_bsl_base_address+0xce39c>
    1b78:	490b390b 	stmdbmi	fp, {r0, r1, r3, r8, fp, ip, sp}
    1b7c:	00000013 	andeq	r0, r0, r3, lsl r0

Disassembly of section .debug_aranges:

00000000 <.debug_aranges>:
   0:	0000001c 	andeq	r0, r0, ip, lsl r0
   4:	00000002 	andeq	r0, r0, r2
   8:	00040000 	andeq	r0, r4, r0
   c:	00000000 	andeq	r0, r0, r0
  10:	00000098 	muleq	r0, r8, r0
  14:	00000074 	andeq	r0, r0, r4, ror r0
	...
  20:	0000001c 	andeq	r0, r0, ip, lsl r0
  24:	00260002 	eoreq	r0, r6, r2
  28:	00040000 	andeq	r0, r4, r0
  2c:	00000000 	andeq	r0, r0, r0
  30:	000001d4 	ldrdeq	r0, [r0], -r4
  34:	00000010 	andeq	r0, r0, r0, lsl r0
	...
  40:	0000001c 	andeq	r0, r0, ip, lsl r0
  44:	01260002 			; <UNDEFINED> instruction: 0x01260002
  48:	00040000 	andeq	r0, r4, r0
  4c:	00000000 	andeq	r0, r0, r0
  50:	000001e4 	andeq	r0, r0, r4, ror #3
  54:	00000020 	andeq	r0, r0, r0, lsr #32
	...
  60:	0000001c 	andeq	r0, r0, ip, lsl r0
  64:	0a8f0002 	beq	fe3c0074 <__stack+0xde3bf79c>
  68:	00040000 	andeq	r0, r4, r0
  6c:	00000000 	andeq	r0, r0, r0
  70:	00000204 	andeq	r0, r0, r4, lsl #4
  74:	00000028 	andeq	r0, r0, r8, lsr #32
	...
  80:	00000014 	andeq	r0, r0, r4, lsl r0
  84:	0b910002 	bleq	fe440094 <__stack+0xde43f7bc>
  88:	00040000 	andeq	r0, r4, r0
	...
  98:	0000001c 	andeq	r0, r0, ip, lsl r0
  9c:	14bb0002 	ldrtne	r0, [fp], #2
  a0:	00040000 	andeq	r0, r4, r0
  a4:	00000000 	andeq	r0, r0, r0
  a8:	0000022c 	andeq	r0, r0, ip, lsr #4
  ac:	00000044 	andeq	r0, r0, r4, asr #32
	...
  b8:	0000001c 	andeq	r0, r0, ip, lsl r0
  bc:	15d50002 	ldrbne	r0, [r5, #2]
  c0:	00040000 	andeq	r0, r4, r0
  c4:	00000000 	andeq	r0, r0, r0
  c8:	00000270 	andeq	r0, r0, r0, ror r2
  cc:	00000028 	andeq	r0, r0, r8, lsr #32
	...
  d8:	0000001c 	andeq	r0, r0, ip, lsl r0
  dc:	1f6d0002 	svcne	0x006d0002
  e0:	00040000 	andeq	r0, r4, r0
  e4:	00000000 	andeq	r0, r0, r0
  e8:	00000298 	muleq	r0, r8, r2
  ec:	00000574 	andeq	r0, r0, r4, ror r5
	...
  f8:	0000001c 	andeq	r0, r0, ip, lsl r0
  fc:	2ded0002 	stclcs	0, cr0, [sp, #8]!
 100:	00040000 	andeq	r0, r4, r0
 104:	00000000 	andeq	r0, r0, r0
 108:	0000080c 	andeq	r0, r0, ip, lsl #16
 10c:	000000a6 	andeq	r0, r0, r6, lsr #1
	...
 118:	0000001c 	andeq	r0, r0, ip, lsl r0
 11c:	2f2a0002 	svccs	0x002a0002
 120:	00040000 	andeq	r0, r4, r0
 124:	00000000 	andeq	r0, r0, r0
 128:	000008b4 			; <UNDEFINED> instruction: 0x000008b4
 12c:	00000006 	andeq	r0, r0, r6
	...
 138:	0000001c 	andeq	r0, r0, ip, lsl r0
 13c:	386c0002 	stmdacc	ip!, {r1}^
 140:	00040000 	andeq	r0, r4, r0
 144:	00000000 	andeq	r0, r0, r0
 148:	000008bc 			; <UNDEFINED> instruction: 0x000008bc
 14c:	00000024 	andeq	r0, r0, r4, lsr #32
	...
 158:	0000001c 	andeq	r0, r0, ip, lsl r0
 15c:	41fa0002 	mvnsmi	r0, r2
 160:	00040000 	andeq	r0, r4, r0
 164:	00000000 	andeq	r0, r0, r0
 168:	000008e0 	andeq	r0, r0, r0, ror #17
 16c:	00000088 	andeq	r0, r0, r8, lsl #1
	...
 178:	00000024 	andeq	r0, r0, r4, lsr #32
 17c:	4baa0002 	blmi	fea8018c <__stack+0xdea7f8b4>
 180:	00040000 	andeq	r0, r4, r0
 184:	00000000 	andeq	r0, r0, r0
 188:	00000968 	andeq	r0, r0, r8, ror #18
 18c:	000000e0 	andeq	r0, r0, r0, ror #1
 190:	00000db8 			; <UNDEFINED> instruction: 0x00000db8
 194:	00000018 	andeq	r0, r0, r8, lsl r0
	...
 1a0:	0000001c 	andeq	r0, r0, ip, lsl r0
 1a4:	55e70002 	strbpl	r0, [r7, #2]!
 1a8:	00040000 	andeq	r0, r4, r0
 1ac:	00000000 	andeq	r0, r0, r0
 1b0:	00000a48 	andeq	r0, r0, r8, asr #20
 1b4:	00000260 	andeq	r0, r0, r0, ror #4
	...
 1c0:	0000001c 	andeq	r0, r0, ip, lsl r0
 1c4:	62cc0002 	sbcvs	r0, ip, #2
 1c8:	00040000 	andeq	r0, r4, r0
 1cc:	00000000 	andeq	r0, r0, r0
 1d0:	00000ca8 	andeq	r0, r0, r8, lsr #25
 1d4:	000000f0 	strdeq	r0, [r0], -r0	; <UNPREDICTABLE>
	...
 1e0:	0000001c 	andeq	r0, r0, ip, lsl r0
 1e4:	6ead0002 	cdpvs	0, 10, cr0, cr13, cr2, {0}
 1e8:	00040000 	andeq	r0, r4, r0
 1ec:	00000000 	andeq	r0, r0, r0
 1f0:	00000d98 	muleq	r0, r8, sp
 1f4:	0000001c 	andeq	r0, r0, ip, lsl r0
	...
 200:	0000001c 	andeq	r0, r0, ip, lsl r0
 204:	6f4a0002 	svcvs	0x004a0002
 208:	00040000 	andeq	r0, r4, r0
 20c:	00000000 	andeq	r0, r0, r0
 210:	00000db4 			; <UNDEFINED> instruction: 0x00000db4
 214:	00000002 	andeq	r0, r0, r2
	...

Disassembly of section .debug_str:

00000000 <.debug_str>:
   0:	2e2f2e2e 	cdpcs	14, 2, cr2, cr15, cr14, {1}
   4:	2e2e2f2e 	cdpcs	15, 2, cr2, cr14, cr14, {1}
   8:	2f2e2e2f 	svccs	0x002e2e2f
   c:	2e2f2e2e 	cdpcs	14, 2, cr2, cr15, cr14, {1}
  10:	2e2e2f2e 	cdpcs	15, 2, cr2, cr14, cr14, {1}
  14:	2f2e2e2f 	svccs	0x002e2e2f
  18:	6762696c 	strbvs	r6, [r2, -ip, ror #18]!
  1c:	73736f6c 	cmnvc	r3, #108, 30	; 0x1b0
  20:	6d72612f 	ldfvse	f6, [r2, #-188]!	; 0xffffff44
  24:	7472632f 	ldrbtvc	r6, [r2], #-815	; 0xfffffcd1
  28:	00532e30 	subseq	r2, r3, r0, lsr lr
  2c:	6975622f 	ldmdbvs	r5!, {r0, r1, r2, r3, r5, r9, sp, lr}^
  30:	6e2f646c 	cdpvs	4, 2, cr6, cr15, cr12, {3}
  34:	696c7765 	stmdbvs	ip!, {r0, r2, r5, r6, r8, r9, sl, ip, sp, lr}^
  38:	42702d62 	rsbsmi	r2, r0, #6272	; 0x1880
  3c:	65643033 	strbvs	r3, [r4, #-51]!	; 0xffffffcd
  40:	77656e2f 	strbvc	r6, [r5, -pc, lsr #28]!
  44:	2d62696c 			; <UNDEFINED> instruction: 0x2d62696c
  48:	2e332e33 	mrccs	14, 1, r2, cr3, cr3, {1}
  4c:	75622f30 	strbvc	r2, [r2, #-3888]!	; 0xfffff0d0
  50:	2f646c69 	svccs	0x00646c69
  54:	2d6d7261 	sfmcs	f7, 2, [sp, #-388]!	; 0xfffffe7c
  58:	656e6f6e 	strbvs	r6, [lr, #-3950]!	; 0xfffff092
  5c:	6261652d 	rsbvs	r6, r1, #188743680	; 0xb400000
  60:	68742f69 	ldmdavs	r4!, {r0, r3, r5, r6, r8, r9, sl, fp, sp}^
  64:	2f626d75 	svccs	0x00626d75
  68:	6d2d3676 	stcvs	6, cr3, [sp, #-472]!	; 0xfffffe28
  6c:	666f6e2f 	strbtvs	r6, [pc], -pc, lsr #28
  70:	696c2f70 	stmdbvs	ip!, {r4, r5, r6, r8, r9, sl, fp, sp}^
  74:	6f6c6762 	svcvs	0x006c6762
  78:	612f7373 			; <UNDEFINED> instruction: 0x612f7373
  7c:	732f6d72 			; <UNDEFINED> instruction: 0x732f6d72
  80:	68696d65 	stmdavs	r9!, {r0, r2, r5, r6, r8, sl, fp, sp, lr}^
  84:	006d3276 	rsbeq	r3, sp, r6, ror r2
  88:	20554e47 	subscs	r4, r5, r7, asr #28
  8c:	32205341 	eorcc	r5, r0, #67108865	; 0x4000001
  90:	0037332e 	eorseq	r3, r7, lr, lsr #6
  94:	676e6f6c 	strbvs	r6, [lr, -ip, ror #30]!
  98:	6e6f6c20 	cdpvs	12, 6, cr6, cr15, cr0, {1}
  9c:	6e692067 	cdpvs	0, 6, cr2, cr9, cr7, {3}
  a0:	5f5f0074 	svcpl	0x005f0074
  a4:	78657461 	stmdavc	r5!, {r0, r5, r6, sl, ip, sp, lr}^
  a8:	745f7469 	ldrbvc	r7, [pc], #-1129	; b0 <_mainCRTStartup+0xc>
  ac:	73657079 	cmnvc	r5, #121	; 0x79
  b0:	736e7500 	cmnvc	lr, #0, 10
  b4:	656e6769 	strbvs	r6, [lr, #-1897]!	; 0xfffff897
  b8:	68632064 	stmdavs	r3!, {r2, r5, r6, sp}^
  bc:	2e007261 	cdpcs	2, 0, cr7, cr0, cr1, {3}
  c0:	2e2e2f2e 	cdpcs	15, 2, cr2, cr14, cr14, {1}
  c4:	2f2e2e2f 	svccs	0x002e2e2f
  c8:	2e2f2e2e 	cdpcs	14, 2, cr2, cr15, cr14, {1}
  cc:	2e2e2f2e 	cdpcs	15, 2, cr2, cr14, cr14, {1}
  d0:	2f2e2e2f 	svccs	0x002e2e2f
  d4:	6e2f2e2e 	cdpvs	14, 2, cr2, cr15, cr14, {1}
  d8:	696c7765 	stmdbvs	ip!, {r0, r2, r5, r6, r8, r9, sl, ip, sp, lr}^
  dc:	696c2f62 	stmdbvs	ip!, {r1, r5, r6, r8, r9, sl, fp, sp}^
  e0:	732f6362 			; <UNDEFINED> instruction: 0x732f6362
  e4:	696c6474 	stmdbvs	ip!, {r2, r4, r5, r6, sl, sp, lr}^
  e8:	74612f62 	strbtvc	r2, [r1], #-3938	; 0xfffff09e
  ec:	74697865 	strbtvc	r7, [r9], #-2149	; 0xfffff79b
  f0:	2f00632e 	svccs	0x0000632e
  f4:	6c697562 	cfstr64vs	mvdx7, [r9], #-392	; 0xfffffe78
  f8:	656e2f64 	strbvs	r2, [lr, #-3940]!	; 0xfffff09c
  fc:	62696c77 	rsbvs	r6, r9, #30464	; 0x7700
 100:	3342702d 	movtcc	r7, #8237	; 0x202d
 104:	2f656430 	svccs	0x00656430
 108:	6c77656e 	cfldr64vs	mvdx6, [r7], #-440	; 0xfffffe48
 10c:	332d6269 			; <UNDEFINED> instruction: 0x332d6269
 110:	302e332e 	eorcc	r3, lr, lr, lsr #6
 114:	6975622f 	ldmdbvs	r5!, {r0, r1, r2, r3, r5, r9, sp, lr}^
 118:	612f646c 			; <UNDEFINED> instruction: 0x612f646c
 11c:	6e2d6d72 	mcrvs	13, 1, r6, cr13, cr2, {3}
 120:	2d656e6f 	stclcs	14, cr6, [r5, #-444]!	; 0xfffffe44
 124:	69626165 	stmdbvs	r2!, {r0, r2, r5, r6, r8, sp, lr}^
 128:	7568742f 	strbvc	r7, [r8, #-1071]!	; 0xfffffbd1
 12c:	762f626d 	strtvc	r6, [pc], -sp, ror #4
 130:	2f6d2d36 	svccs	0x006d2d36
 134:	70666f6e 	rsbvc	r6, r6, lr, ror #30
 138:	77656e2f 	strbvc	r6, [r5, -pc, lsr #28]!
 13c:	2f62696c 	svccs	0x0062696c
 140:	6362696c 	cmnvs	r2, #108, 18	; 0x1b0000
 144:	6474732f 	ldrbtvs	r7, [r4], #-815	; 0xfffffcd1
 148:	0062696c 	rsbeq	r6, r2, ip, ror #18
 14c:	676e6f6c 	strbvs	r6, [lr, -ip, ror #30]!
 150:	6e6f6c20 	cdpvs	12, 6, cr6, cr15, cr0, {1}
 154:	6e752067 	cdpvs	0, 7, cr2, cr5, cr7, {3}
 158:	6e676973 			; <UNDEFINED> instruction: 0x6e676973
 15c:	69206465 	stmdbvs	r0!, {r0, r2, r5, r6, sl, sp, lr}
 160:	5f00746e 	svcpl	0x0000746e
 164:	5f74655f 	svcpl	0x0074655f
 168:	00617863 	rsbeq	r7, r1, r3, ror #16
 16c:	20554e47 	subscs	r4, r5, r7, asr #28
 170:	20373143 	eorscs	r3, r7, r3, asr #2
 174:	332e3031 			; <UNDEFINED> instruction: 0x332e3031
 178:	3220312e 	eorcc	r3, r0, #-2147483637	; 0x8000000b
 17c:	30313230 	eorscc	r3, r1, r0, lsr r2
 180:	20313236 	eorscs	r3, r1, r6, lsr r2
 184:	6c657228 	sfmvs	f7, 2, [r5], #-160	; 0xffffff60
 188:	65736165 	ldrbvs	r6, [r3, #-357]!	; 0xfffffe9b
 18c:	6d2d2029 	stcvs	0, cr2, [sp, #-164]!	; 0xffffff5c
 190:	616f6c66 	cmnvs	pc, r6, ror #24
 194:	62612d74 	rsbvs	r2, r1, #116, 26	; 0x1d00
 198:	6f733d69 	svcvs	0x00733d69
 19c:	2d207466 	cfstrscs	mvf7, [r0, #-408]!	; 0xfffffe68
 1a0:	7568746d 	strbvc	r7, [r8, #-1133]!	; 0xfffffb93
 1a4:	2d20626d 	sfmcs	f6, 4, [r0, #-436]!	; 0xfffffe4c
 1a8:	6f6c666d 	svcvs	0x006c666d
 1ac:	612d7461 			; <UNDEFINED> instruction: 0x612d7461
 1b0:	733d6962 	teqvc	sp, #1605632	; 0x188000
 1b4:	2074666f 	rsbscs	r6, r4, pc, ror #12
 1b8:	72616d2d 	rsbvc	r6, r1, #2880	; 0xb40
 1bc:	613d6863 	teqvs	sp, r3, ror #16
 1c0:	36766d72 			; <UNDEFINED> instruction: 0x36766d72
 1c4:	206d2d73 	rsbcs	r2, sp, r3, ror sp
 1c8:	2d20672d 	stccs	7, cr6, [r0, #-180]!	; 0xffffff4c
 1cc:	2d20324f 	sfmcs	f3, 4, [r0, #-316]!	; 0xfffffec4
 1d0:	2d6f6e66 	stclcs	14, cr6, [pc, #-408]!	; 40 <register_tm_clones+0x20>
 1d4:	6c697562 	cfstr64vs	mvdx7, [r9], #-392	; 0xfffffe78
 1d8:	006e6974 	rsbeq	r6, lr, r4, ror r9
 1dc:	65725f5f 	ldrbvs	r5, [r2, #-3935]!	; 0xfffff0a1
 1e0:	74736967 	ldrbtvc	r6, [r3], #-2407	; 0xfffff699
 1e4:	655f7265 	ldrbvs	r7, [pc, #-613]	; ffffff87 <__stack+0xdffff6af>
 1e8:	70746978 	rsbsvc	r6, r4, r8, ror r9
 1ec:	00636f72 	rsbeq	r6, r3, r2, ror pc
 1f0:	726f6873 	rsbvc	r6, pc, #7536640	; 0x730000
 1f4:	6e752074 	mrcvs	0, 3, r2, cr5, cr4, {3}
 1f8:	6e676973 			; <UNDEFINED> instruction: 0x6e676973
 1fc:	69206465 	stmdbvs	r0!, {r0, r2, r5, r6, sl, sp, lr}
 200:	6c00746e 	cfstrsvs	mvf7, [r0], {110}	; 0x6e
 204:	20676e6f 	rsbcs	r6, r7, pc, ror #28
 208:	62756f64 	rsbsvs	r6, r5, #100, 30	; 0x190
 20c:	7300656c 	movwvc	r6, #1388	; 0x56c
 210:	74726f68 	ldrbtvc	r6, [r2], #-3944	; 0xfffff098
 214:	746e6920 	strbtvc	r6, [lr], #-2336	; 0xfffff6e0
 218:	655f5f00 	ldrbvs	r5, [pc, #-3840]	; fffff320 <__stack+0xdfffea48>
 21c:	74615f74 	strbtvc	r5, [r1], #-3956	; 0xfffff08c
 220:	74697865 	strbtvc	r7, [r9], #-2149	; 0xfffff79b
 224:	655f5f00 	ldrbvs	r5, [pc, #-3840]	; fffff32c <__stack+0xdfffea54>
 228:	6e6f5f74 	mcrvs	15, 3, r5, cr15, cr4, {3}
 22c:	74697865 	strbtvc	r7, [r9], #-2149	; 0xfffff79b
 230:	73645f00 	cmnvc	r4, #0, 30
 234:	61685f6f 	cmnvs	r8, pc, ror #30
 238:	656c646e 	strbvs	r6, [ip, #-1134]!	; 0xfffffb92
 23c:	61725f00 	cmnvs	r2, r0, lsl #30
 240:	3834646e 	ldmdacc	r4!, {r1, r2, r3, r5, r6, sl, sp, lr}
 244:	6d655f00 	stclvs	15, cr5, [r5, #-0]
 248:	65677265 	strbvs	r7, [r7, #-613]!	; 0xfffffd9b
 24c:	0079636e 	rsbseq	r6, r9, lr, ror #6
 250:	7263775f 	rsbvc	r7, r3, #24903680	; 0x17c0000
 254:	626d6f74 	rsbvs	r6, sp, #116, 30	; 0x1d0
 258:	6174735f 	cmnvs	r4, pc, asr r3
 25c:	5f006574 	svcpl	0x00006574
 260:	72736377 	rsbsvc	r6, r3, #-603979775	; 0xdc000001
 264:	626d6f74 	rsbvs	r6, sp, #116, 30	; 0x1d0
 268:	74735f73 	ldrbtvc	r5, [r3], #-3955	; 0xfffff08d
 26c:	00657461 	rsbeq	r7, r5, r1, ror #8
 270:	66626c5f 			; <UNDEFINED> instruction: 0x66626c5f
 274:	657a6973 	ldrbvs	r6, [sl, #-2419]!	; 0xfffff68d
 278:	6c5f5f00 	mrrcvs	15, 0, r5, pc, cr0	; <UNPREDICTABLE>
 27c:	6c61636f 	stclvs	3, cr6, [r1], #-444	; 0xfffffe44
 280:	00745f65 	rsbseq	r5, r4, r5, ror #30
 284:	72626d5f 	rsbvc	r6, r2, #6080	; 0x17c0
 288:	63776f74 	cmnvs	r7, #116, 30	; 0x1d0
 28c:	6174735f 	cmnvs	r4, pc, asr r3
 290:	5f006574 	svcpl	0x00006574
 294:	6f746377 	svcvs	0x00746377
 298:	735f626d 	cmpvc	pc, #-805306362	; 0xd0000006
 29c:	65746174 	ldrbvs	r6, [r4, #-372]!	; 0xfffffe8c
 2a0:	745f5f00 	ldrbvc	r5, [pc], #-3840	; 2a8 <_malloc_r+0x10>
 2a4:	65735f6d 	ldrbvs	r5, [r3, #-3949]!	; 0xfffff093
 2a8:	655f0063 	ldrbvs	r0, [pc, #-99]	; 24d <__libc_init_array+0x21>
 2ac:	00746978 	rsbseq	r6, r4, r8, ror r9
 2b0:	7562755f 	strbvc	r7, [r2, #-1375]!	; 0xfffffaa1
 2b4:	5f5f0066 	svcpl	0x005f0066
 2b8:	685f6d74 	ldmdavs	pc, {r2, r4, r5, r6, r8, sl, fp, sp, lr}^	; <UNPREDICTABLE>
 2bc:	0072756f 	rsbseq	r7, r2, pc, ror #10
 2c0:	66735f5f 	uhsaxvs	r5, r3, pc	; <UNPREDICTABLE>
 2c4:	6e6f5f00 	cdpvs	15, 6, cr5, cr15, cr0, {0}
 2c8:	6978655f 	ldmdbvs	r8!, {r0, r1, r2, r3, r4, r6, r8, sl, sp, lr}^
 2cc:	72615f74 	rsbvc	r5, r1, #116, 30	; 0x1d0
 2d0:	5f007367 	svcpl	0x00007367
 2d4:	6b6f6f63 	blvs	1bdc068 <_bsl_base_address+0x19da068>
 2d8:	5f006569 	svcpl	0x00006569
 2dc:	6c67735f 	stclvs	3, cr7, [r7], #-380	; 0xfffffe84
 2e0:	5f006575 	svcpl	0x00006575
 2e4:	67616c66 	strbvs	r6, [r1, -r6, ror #24]!
 2e8:	695f0073 	ldmdbvs	pc, {r0, r1, r4, r5, r6}^	; <UNPREDICTABLE>
 2ec:	78635f73 	stmdavc	r3!, {r0, r1, r4, r5, r6, r8, r9, sl, fp, ip, lr}^
 2f0:	735f0061 	cmpvc	pc, #97	; 0x61
 2f4:	6e696474 	mcrvs	4, 3, r6, cr9, cr4, {3}
 2f8:	6c625f00 	stclvs	15, cr5, [r2], #-0
 2fc:	7a69736b 	bvc	1a5d0b0 <_bsl_base_address+0x185b0b0>
 300:	635f0065 	cmpvs	pc, #101	; 0x65
 304:	75627476 	strbvc	r7, [r2, #-1142]!	; 0xfffffb8a
 308:	6f5f0066 	svcvs	0x005f0066
 30c:	65736666 	ldrbvs	r6, [r3, #-1638]!	; 0xfffff99a
 310:	6d5f0074 	ldclvs	0, cr0, [pc, #-464]	; 148 <main+0x3c>
 314:	74727362 	ldrbtvc	r7, [r2], #-866	; 0xfffffc9e
 318:	7363776f 	cmnvc	r3, #29097984	; 0x1bc0000
 31c:	6174735f 	cmnvs	r4, pc, asr r3
 320:	5f006574 	svcpl	0x00006574
 324:	6c72626d 	lfmvs	f6, 2, [r2], #-436	; 0xfffffe4c
 328:	735f6e65 	cmpvc	pc, #1616	; 0x650
 32c:	65746174 	ldrbvs	r6, [r4, #-372]!	; 0xfffffe8c
 330:	6e665f00 	cdpvs	15, 6, cr5, cr6, cr0, {0}
 334:	73677261 	cmnvc	r7, #268435462	; 0x10000006
 338:	6e665f00 	cdpvs	15, 6, cr5, cr6, cr0, {0}
 33c:	735f0073 	cmpvc	pc, #115	; 0x73
 340:	006e6769 	rsbeq	r6, lr, r9, ror #14
 344:	6f6c665f 	svcvs	0x006c665f
 348:	745f6b63 	ldrbvc	r6, [pc], #-2915	; 350 <_malloc_r+0xb8>
 34c:	74735f00 	ldrbtvc	r5, [r3], #-3840	; 0xfffff100
 350:	72726564 	rsbsvc	r6, r2, #100, 10	; 0x19000000
 354:	69425f00 	stmdbvs	r2, {r8, r9, sl, fp, ip, lr}^
 358:	746e6967 	strbtvc	r6, [lr], #-2407	; 0xfffff699
 35c:	61675f00 	cmnvs	r7, r0, lsl #30
 360:	5f616d6d 	svcpl	0x00616d6d
 364:	6e676973 			; <UNDEFINED> instruction: 0x6e676973
 368:	006d6167 	rsbeq	r6, sp, r7, ror #2
 36c:	6165725f 	cmnvs	r5, pc, asr r2
 370:	725f0064 	subsvc	r0, pc, #100	; 0x64
 374:	6c757365 	ldclvs	3, cr7, [r5], #-404	; 0xfffffe6c
 378:	006b5f74 	rsbeq	r5, fp, r4, ror pc
 37c:	6d745f5f 	ldclvs	15, cr5, [r4, #-380]!	; 0xfffffe84
 380:	775f5f00 	ldrbvc	r5, [pc, -r0, lsl #30]
 384:	00626863 	rsbeq	r6, r2, r3, ror #16
 388:	6474735f 	ldrbtvs	r7, [r4], #-863	; 0xfffffca1
 38c:	0074756f 	rsbseq	r7, r4, pc, ror #10
 390:	7476635f 	ldrbtvc	r6, [r6], #-863	; 0xfffffca1
 394:	006e656c 	rsbeq	r6, lr, ip, ror #10
 398:	6c69665f 	stclvs	6, cr6, [r9], #-380	; 0xfffffe84
 39c:	6e5f0065 	cdpvs	0, 5, cr0, cr15, cr5, {3}
 3a0:	73626f69 	cmnvc	r2, #420	; 0x1a4
 3a4:	74615f00 	strbtvc	r5, [r1], #-3840	; 0xfffff100
 3a8:	74697865 	strbtvc	r7, [r9], #-2149	; 0xfffff79b
 3ac:	735f0030 	cmpvc	pc, #48	; 0x30
 3b0:	616e6769 	cmnvs	lr, r9, ror #14
 3b4:	75625f6c 	strbvc	r5, [r2, #-3948]!	; 0xfffff094
 3b8:	615f0066 	cmpvs	pc, r6, rrx
 3bc:	69746373 	ldmdbvs	r4!, {r0, r1, r4, r5, r6, r8, r9, sp, lr}^
 3c0:	625f656d 	subsvs	r6, pc, #457179136	; 0x1b400000
 3c4:	5f006675 	svcpl	0x00006675
 3c8:	75736572 	ldrbvc	r6, [r3, #-1394]!	; 0xfffffa8e
 3cc:	5f00746c 	svcpl	0x0000746c
 3d0:	6863775f 	stmdavs	r3!, {r0, r1, r2, r3, r4, r6, r8, r9, sl, ip, sp, lr}^
 3d4:	6e697700 	cdpvs	7, 6, cr7, cr9, cr0, {0}
 3d8:	00745f74 	rsbseq	r5, r4, r4, ror pc
 3dc:	616c665f 	cmnvs	ip, pc, asr r6
 3e0:	00327367 	eorseq	r7, r2, r7, ror #6
 3e4:	6972775f 	ldmdbvs	r2!, {r0, r1, r2, r3, r4, r6, r8, r9, sl, ip, sp, lr}^
 3e8:	5f006574 	svcpl	0x00006574
 3ec:	5f6d745f 	svcpl	0x006d745f
 3f0:	72616579 	rsbvc	r6, r1, #507510784	; 0x1e400000
 3f4:	656e5f00 	strbvs	r5, [lr, #-3840]!	; 0xfffff100
 3f8:	00667478 	rsbeq	r7, r6, r8, ror r4
 3fc:	6d745f5f 	ldclvs	15, cr5, [r4, #-380]!	; 0xfffffe84
 400:	6e6f6d5f 	mcrvs	13, 3, r6, cr15, cr15, {2}
 404:	735f5f00 	cmpvc	pc, #0, 30
 408:	69646964 	stmdbvs	r4!, {r2, r5, r6, r8, fp, sp, lr}^
 40c:	0074696e 	rsbseq	r6, r4, lr, ror #18
 410:	66666f5f 	uqsaxvs	r6, r6, pc	; <UNPREDICTABLE>
 414:	5f00745f 	svcpl	0x0000745f
 418:	6c61635f 	stclvs	3, cr6, [r1], #-380	; 0xfffffe84
 41c:	78655f6c 	stmdavc	r5!, {r2, r3, r5, r6, r8, r9, sl, fp, ip, lr}^
 420:	72707469 	rsbsvc	r7, r0, #1761607680	; 0x69000000
 424:	0073636f 	rsbseq	r6, r3, pc, ror #6
 428:	6572665f 	ldrbvs	r6, [r2, #-1631]!	; 0xfffff9a1
 42c:	73696c65 	cmnvc	r9, #25856	; 0x6500
 430:	4c5f0074 	mrrcmi	0, 7, r0, pc, cr4	; <UNPREDICTABLE>
 434:	5f4b434f 	svcpl	0x004b434f
 438:	55434552 	strbpl	r4, [r3, #-1362]	; 0xfffffaae
 43c:	56495352 			; <UNDEFINED> instruction: 0x56495352
 440:	00545f45 	subseq	r5, r4, r5, asr #30
 444:	6c626d5f 	stclvs	13, cr6, [r2], #-380	; 0xfffffe84
 448:	735f6e65 	cmpvc	pc, #1616	; 0x650
 44c:	65746174 	ldrbvs	r6, [r4, #-372]!	; 0xfffffe8c
 450:	656e5f00 	strbvs	r5, [lr, #-3840]!	; 0xfffff100
 454:	685f0077 	ldmdavs	pc, {r0, r1, r2, r4, r5, r6}^	; <UNPREDICTABLE>
 458:	7272655f 	rsbsvc	r6, r2, #398458880	; 0x17c00000
 45c:	5f006f6e 	svcpl	0x00006f6e
 460:	5f6d745f 	svcpl	0x006d745f
 464:	79616479 	stmdbvc	r1!, {r0, r3, r4, r5, r6, sl, sp, lr}^
 468:	735f5f00 	cmpvc	pc, #0, 30
 46c:	00667562 	rsbeq	r7, r6, r2, ror #10
 470:	2e2f2e2e 	cdpcs	14, 2, cr2, cr15, cr14, {1}
 474:	2e2e2f2e 	cdpcs	15, 2, cr2, cr14, cr14, {1}
 478:	2f2e2e2f 	svccs	0x002e2e2f
 47c:	2e2f2e2e 	cdpcs	14, 2, cr2, cr15, cr14, {1}
 480:	2e2e2f2e 	cdpcs	15, 2, cr2, cr14, cr14, {1}
 484:	2f2e2e2f 	svccs	0x002e2e2f
 488:	6c77656e 	cfldr64vs	mvdx6, [r7], #-440	; 0xfffffe48
 48c:	6c2f6269 	sfmvs	f6, 4, [pc], #-420	; 2f0 <_malloc_r+0x58>
 490:	2f636269 	svccs	0x00636269
 494:	6c647473 	cfstrdvs	mvd7, [r4], #-460	; 0xfffffe34
 498:	652f6269 	strvs	r6, [pc, #-617]!	; 237 <__libc_init_array+0xb>
 49c:	2e746978 			; <UNDEFINED> instruction: 0x2e746978
 4a0:	5f5f0063 	svcpl	0x005f0063
 4a4:	454c4946 	strbmi	r4, [ip, #-2374]	; 0xfffff6ba
 4a8:	626d5f00 	rsbvs	r5, sp, #0, 30
 4ac:	74617473 	strbtvc	r7, [r1], #-1139	; 0xfffffb8d
 4b0:	00745f65 	rsbseq	r5, r4, r5, ror #30
 4b4:	46735f5f 	uhsaxmi	r5, r3, pc	; <UNPREDICTABLE>
 4b8:	00454c49 	subeq	r4, r5, r9, asr #24
 4bc:	73626d5f 	cmnvc	r2, #6080	; 0x17c0
 4c0:	65746174 	ldrbvs	r6, [r4, #-372]!	; 0xfffffe8c
 4c4:	61725f00 	cmnvs	r2, r0, lsl #30
 4c8:	6e5f646e 	cdpvs	4, 5, cr6, cr15, cr14, {3}
 4cc:	00747865 	rsbseq	r7, r4, r5, ror #16
 4d0:	626f695f 	rsbvs	r6, pc, #1556480	; 0x17c000
 4d4:	695f0073 	ldmdbvs	pc, {r0, r1, r4, r5, r6}^	; <UNPREDICTABLE>
 4d8:	5f00636e 	svcpl	0x0000636e
 4dc:	00646e69 	rsbeq	r6, r4, r9, ror #28
 4e0:	636f6c5f 	cmnvs	pc, #24320	; 0x5f00
 4e4:	00656c61 	rsbeq	r6, r5, r1, ror #24
 4e8:	6c635f5f 	stclvs	15, cr5, [r3], #-380	; 0xfffffe84
 4ec:	756e6165 	strbvc	r6, [lr, #-357]!	; 0xfffffe9b
 4f0:	755f0070 	ldrbvc	r0, [pc, #-112]	; 488 <_malloc_r+0x1f0>
 4f4:	6570736e 	ldrbvs	r7, [r0, #-878]!	; 0xfffffc92
 4f8:	69666963 	stmdbvs	r6!, {r0, r1, r5, r6, r8, fp, sp, lr}^
 4fc:	6c5f6465 	cfldrdvs	mvd6, [pc], {101}	; 0x65
 500:	6c61636f 	stclvs	3, cr6, [r1], #-444	; 0xfffffe44
 504:	6e695f65 	cdpvs	15, 6, cr5, cr9, cr5, {3}
 508:	5f006f66 	svcpl	0x00006f66
 50c:	7778616d 	ldrbvc	r6, [r8, -sp, ror #2]!
 510:	5f007364 	svcpl	0x00007364
 514:	64656573 	strbtvs	r6, [r5], #-1395	; 0xfffffa8d
 518:	635f5f00 	cmpvs	pc, #0, 30
 51c:	746e756f 	strbtvc	r7, [lr], #-1391	; 0xfffffa91
 520:	765f5f00 	ldrbvc	r5, [pc], -r0, lsl #30
 524:	65756c61 	ldrbvs	r6, [r5, #-3169]!	; 0xfffff39f
 528:	65735f00 	ldrbvs	r5, [r3, #-3840]!	; 0xfffff100
 52c:	5f006b65 	svcpl	0x00006b65
 530:	736f7066 	cmnvc	pc, #102	; 0x66
 534:	5f00745f 	svcpl	0x0000745f
 538:	5f6d745f 	svcpl	0x006d745f
 53c:	006e696d 	rsbeq	r6, lr, sp, ror #18
 540:	6c756d5f 	ldclvs	13, cr6, [r5], #-380	; 0xfffffe84
 544:	735f0074 	cmpvc	pc, #116	; 0x74
 548:	6f747274 	svcvs	0x00747274
 54c:	616c5f6b 	cmnvs	ip, fp, ror #30
 550:	5f007473 	svcpl	0x00007473
 554:	79746e66 	ldmdbvc	r4!, {r1, r2, r5, r6, r9, sl, fp, sp, lr}^
 558:	00736570 	rsbseq	r6, r3, r0, ror r5
 55c:	6464615f 	strbtvs	r6, [r4], #-351	; 0xfffffea1
 560:	555f5f00 	ldrbpl	r5, [pc, #-3840]	; fffff668 <__stack+0xdfffed90>
 564:	676e6f4c 	strbvs	r6, [lr, -ip, asr #30]!
 568:	65675f00 	strbvs	r5, [r7, #-3840]!	; 0xfffff100
 56c:	74616474 	strbtvc	r6, [r1], #-1140	; 0xfffffb8c
 570:	72655f65 	rsbvc	r5, r5, #404	; 0x194
 574:	675f0072 			; <UNDEFINED> instruction: 0x675f0072
 578:	61626f6c 	cmnvs	r2, ip, ror #30
 57c:	6d695f6c 	stclvs	15, cr5, [r9, #-432]!	; 0xfffffe50
 580:	65727570 	ldrbvs	r7, [r2, #-1392]!	; 0xfffffa90
 584:	7274705f 	rsbsvc	r7, r4, #95	; 0x5f
 588:	646f6300 	strbtvs	r6, [pc], #-768	; 590 <_malloc_r+0x2f8>
 58c:	755f0065 	ldrbvc	r0, [pc, #-101]	; 52f <_malloc_r+0x297>
 590:	6573756e 	ldrbvs	r7, [r3, #-1390]!	; 0xfffffa92
 594:	61725f64 	cmnvs	r2, r4, ror #30
 598:	5f00646e 	svcpl	0x0000646e
 59c:	00736477 	rsbseq	r6, r3, r7, ror r4
 5a0:	6d745f5f 	ldclvs	15, cr5, [r4, #-380]!	; 0xfffffe84
 5a4:	6164775f 	cmnvs	r4, pc, asr r7
 5a8:	6e5f0079 	mrcvs	0, 2, r0, cr15, cr9, {3}
 5ac:	6c6c616d 	stfvse	f6, [ip], #-436	; 0xfffffe4c
 5b0:	5f00636f 	svcpl	0x0000636f
 5b4:	6134366c 	teqvs	r4, ip, ror #12
 5b8:	6675625f 			; <UNDEFINED> instruction: 0x6675625f
 5bc:	69735f00 	ldmdbvs	r3!, {r8, r9, sl, fp, ip, lr}^
 5c0:	75665f67 	strbvc	r5, [r6, #-3943]!	; 0xfffff099
 5c4:	5f00636e 	svcpl	0x0000636e
 5c8:	6675626e 	ldrbtvs	r6, [r5], -lr, ror #4
 5cc:	6e755f00 	cdpvs	15, 7, cr5, cr5, cr0, {0}
 5d0:	64657375 	strbtvs	r7, [r5], #-885	; 0xfffffc8b
 5d4:	745f5f00 	ldrbvc	r5, [pc], #-3840	; 5dc <_malloc_r+0x344>
 5d8:	73695f6d 	cmnvc	r9, #436	; 0x1b4
 5dc:	00747364 	rsbseq	r7, r4, r4, ror #6
 5e0:	636f6c5f 	cmnvs	pc, #24320	; 0x5f00
 5e4:	69746c61 	ldmdbvs	r4!, {r0, r5, r6, sl, fp, sp, lr}^
 5e8:	625f656d 	subsvs	r6, pc, #457179136	; 0x1b400000
 5ec:	5f006675 	svcpl	0x00006675
 5f0:	736f6c63 	cmnvc	pc, #25344	; 0x6300
 5f4:	725f0065 	subsvc	r0, pc, #101	; 0x65
 5f8:	5f003834 	svcpl	0x00003834
 5fc:	6f74626d 	svcvs	0x0074626d
 600:	735f6377 	cmpvc	pc, #-603979775	; 0xdc000001
 604:	65746174 	ldrbvs	r6, [r4, #-372]!	; 0xfffffe8c
 608:	35705f00 	ldrbcc	r5, [r0, #-3840]!	; 0xfffff100
 60c:	5f5f0073 	svcpl	0x005f0073
 610:	6d5f6d74 	ldclvs	13, cr6, [pc, #-464]	; 448 <_malloc_r+0x1b0>
 614:	00796164 	rsbseq	r6, r9, r4, ror #2
 618:	657a6973 	ldrbvs	r6, [sl, #-2419]!	; 0xfffff68d
 61c:	5f00745f 	svcpl	0x0000745f
 620:	6e69665f 	mcrvs	6, 3, r6, cr9, cr15, {2}
 624:	72615f69 	rsbvc	r5, r1, #420	; 0x1a4
 628:	5f796172 	svcpl	0x00796172
 62c:	72617473 	rsbvc	r7, r1, #1929379840	; 0x73000000
 630:	2e2e0074 	mcrcs	0, 1, r0, cr14, cr4, {3}
 634:	2f2e2e2f 	svccs	0x002e2e2f
 638:	2e2f2e2e 	cdpcs	14, 2, cr2, cr15, cr14, {1}
 63c:	2e2e2f2e 	cdpcs	15, 2, cr2, cr14, cr14, {1}
 640:	2f2e2e2f 	svccs	0x002e2e2f
 644:	2e2f2e2e 	cdpcs	14, 2, cr2, cr15, cr14, {1}
 648:	656e2f2e 	strbvs	r2, [lr, #-3886]!	; 0xfffff0d2
 64c:	62696c77 	rsbvs	r6, r9, #30464	; 0x7700
 650:	62696c2f 	rsbvs	r6, r9, #12032	; 0x2f00
 654:	696d2f63 	stmdbvs	sp!, {r0, r1, r5, r6, r8, r9, sl, fp, sp}^
 658:	662f6373 			; <UNDEFINED> instruction: 0x662f6373
 65c:	2e696e69 	cdpcs	14, 6, cr6, cr9, cr9, {3}
 660:	5f5f0063 	svcpl	0x005f0063
 664:	696e6966 	stmdbvs	lr!, {r1, r2, r5, r6, r8, fp, sp, lr}^
 668:	7272615f 	rsbsvc	r6, r2, #-1073741801	; 0xc0000017
 66c:	655f7961 	ldrbvs	r7, [pc, #-2401]	; fffffd13 <__stack+0xdffff43b>
 670:	5f00646e 	svcpl	0x0000646e
 674:	62696c5f 	rsbvs	r6, r9, #24320	; 0x5f00
 678:	69665f63 	stmdbvs	r6!, {r0, r1, r5, r6, r8, r9, sl, fp, ip, lr}^
 67c:	615f696e 	cmpvs	pc, lr, ror #18
 680:	79617272 	stmdbvc	r1!, {r1, r4, r5, r6, r9, ip, sp, lr}^
 684:	75622f00 	strbvc	r2, [r2, #-3840]!	; 0xfffff100
 688:	2f646c69 	svccs	0x00646c69
 68c:	6c77656e 	cfldr64vs	mvdx6, [r7], #-440	; 0xfffffe48
 690:	702d6269 	eorvc	r6, sp, r9, ror #4
 694:	64303342 	ldrtvs	r3, [r0], #-834	; 0xfffffcbe
 698:	656e2f65 	strbvs	r2, [lr, #-3941]!	; 0xfffff09b
 69c:	62696c77 	rsbvs	r6, r9, #30464	; 0x7700
 6a0:	332e332d 			; <UNDEFINED> instruction: 0x332e332d
 6a4:	622f302e 	eorvs	r3, pc, #46	; 0x2e
 6a8:	646c6975 	strbtvs	r6, [ip], #-2421	; 0xfffff68b
 6ac:	6d72612f 	ldfvse	f6, [r2, #-188]!	; 0xffffff44
 6b0:	6e6f6e2d 	cdpvs	14, 6, cr6, cr15, cr13, {1}
 6b4:	61652d65 	cmnvs	r5, r5, ror #26
 6b8:	742f6962 	strtvc	r6, [pc], #-2402	; 6c0 <_malloc_r+0x428>
 6bc:	626d7568 	rsbvs	r7, sp, #104, 10	; 0x1a000000
 6c0:	2d36762f 	ldccs	6, cr7, [r6, #-188]!	; 0xffffff44
 6c4:	6f6e2f6d 	svcvs	0x006e2f6d
 6c8:	6e2f7066 	cdpvs	0, 2, cr7, cr15, cr6, {3}
 6cc:	696c7765 	stmdbvs	ip!, {r0, r2, r5, r6, r8, r9, sl, ip, sp, lr}^
 6d0:	696c2f62 	stmdbvs	ip!, {r1, r5, r6, r8, r9, sl, fp, sp}^
 6d4:	6d2f6362 	stcvs	3, cr6, [pc, #-392]!	; 554 <_malloc_r+0x2bc>
 6d8:	00637369 	rsbeq	r7, r3, r9, ror #6
 6dc:	6975622f 	ldmdbvs	r5!, {r0, r1, r2, r3, r5, r9, sp, lr}^
 6e0:	6e2f646c 	cdpvs	4, 2, cr6, cr15, cr12, {3}
 6e4:	696c7765 	stmdbvs	ip!, {r0, r2, r5, r6, r8, r9, sl, ip, sp, lr}^
 6e8:	42702d62 	rsbsmi	r2, r0, #6272	; 0x1880
 6ec:	65643033 	strbvs	r3, [r4, #-51]!	; 0xffffffcd
 6f0:	77656e2f 	strbvc	r6, [r5, -pc, lsr #28]!
 6f4:	2d62696c 			; <UNDEFINED> instruction: 0x2d62696c
 6f8:	2e332e33 	mrccs	14, 1, r2, cr3, cr3, {1}
 6fc:	75622f30 	strbvc	r2, [r2, #-3888]!	; 0xfffff0d0
 700:	2f646c69 	svccs	0x00646c69
 704:	2d6d7261 	sfmcs	f7, 2, [sp, #-388]!	; 0xfffffe7c
 708:	656e6f6e 	strbvs	r6, [lr, #-3950]!	; 0xfffff092
 70c:	6261652d 	rsbvs	r6, r1, #188743680	; 0xb400000
 710:	68742f69 	ldmdavs	r4!, {r0, r3, r5, r6, r8, r9, sl, fp, sp}^
 714:	2f626d75 	svccs	0x00626d75
 718:	6d2d3676 	stcvs	6, cr3, [sp, #-472]!	; 0xfffffe28
 71c:	666f6e2f 	strbtvs	r6, [pc], -pc, lsr #28
 720:	656e2f70 	strbvs	r2, [lr, #-3952]!	; 0xfffff090
 724:	62696c77 	rsbvs	r6, r9, #30464	; 0x7700
 728:	62696c2f 	rsbvs	r6, r9, #12032	; 0x2f00
 72c:	65722f63 	ldrbvs	r2, [r2, #-3939]!	; 0xfffff09d
 730:	00746e65 	rsbseq	r6, r4, r5, ror #28
 734:	75706d69 	ldrbvc	r6, [r0, #-3433]!	; 0xfffff297
 738:	645f6572 	ldrbvs	r6, [pc], #-1394	; 740 <_malloc_r+0x4a8>
 73c:	00617461 	rsbeq	r7, r1, r1, ror #8
 740:	2e2f2e2e 	cdpcs	14, 2, cr2, cr15, cr14, {1}
 744:	2e2e2f2e 	cdpcs	15, 2, cr2, cr14, cr14, {1}
 748:	2f2e2e2f 	svccs	0x002e2e2f
 74c:	2e2f2e2e 	cdpcs	14, 2, cr2, cr15, cr14, {1}
 750:	2e2e2f2e 	cdpcs	15, 2, cr2, cr14, cr14, {1}
 754:	2f2e2e2f 	svccs	0x002e2e2f
 758:	6c77656e 	cfldr64vs	mvdx6, [r7], #-440	; 0xfffffe48
 75c:	6c2f6269 	sfmvs	f6, 4, [pc], #-420	; 5c0 <_malloc_r+0x328>
 760:	2f636269 	svccs	0x00636269
 764:	6e656572 	mcrvs	5, 3, r6, cr5, cr2, {3}
 768:	6d692f74 	stclvs	15, cr2, [r9, #-464]!	; 0xfffffe30
 76c:	65727570 	ldrbvs	r7, [r2, #-1392]!	; 0xfffffa90
 770:	5f00632e 	svcpl	0x0000632e
 774:	696e695f 	stmdbvs	lr!, {r0, r1, r2, r3, r4, r6, r8, fp, sp, lr}^
 778:	72615f74 	rsbvc	r5, r1, #116, 30	; 0x1d0
 77c:	5f796172 	svcpl	0x00796172
 780:	72617473 	rsbvc	r7, r1, #1929379840	; 0x73000000
 784:	5f5f0074 	svcpl	0x005f0074
 788:	6362696c 	cmnvs	r2, #108, 18	; 0x1b0000
 78c:	696e695f 	stmdbvs	lr!, {r0, r1, r2, r3, r4, r6, r8, fp, sp, lr}^
 790:	72615f74 	rsbvc	r5, r1, #116, 30	; 0x1d0
 794:	00796172 	rsbseq	r6, r9, r2, ror r1
 798:	72705f5f 	rsbsvc	r5, r0, #380	; 0x17c
 79c:	696e6965 	stmdbvs	lr!, {r0, r2, r5, r6, r8, fp, sp, lr}^
 7a0:	72615f74 	rsbvc	r5, r1, #116, 30	; 0x1d0
 7a4:	5f796172 	svcpl	0x00796172
 7a8:	72617473 	rsbvc	r7, r1, #1929379840	; 0x73000000
 7ac:	695f0074 	ldmdbvs	pc, {r2, r4, r5, r6}^	; <UNPREDICTABLE>
 7b0:	0074696e 	rsbseq	r6, r4, lr, ror #18
 7b4:	72705f5f 	rsbsvc	r5, r0, #380	; 0x17c
 7b8:	696e6965 	stmdbvs	lr!, {r0, r2, r5, r6, r8, fp, sp, lr}^
 7bc:	72615f74 	rsbvc	r5, r1, #116, 30	; 0x1d0
 7c0:	5f796172 	svcpl	0x00796172
 7c4:	00646e65 	rsbeq	r6, r4, r5, ror #28
 7c8:	6e695f5f 	mcrvs	15, 3, r5, cr9, cr15, {2}
 7cc:	615f7469 	cmpvs	pc, r9, ror #8
 7d0:	79617272 	stmdbvc	r1!, {r1, r4, r5, r6, r9, ip, sp, lr}^
 7d4:	646e655f 	strbtvs	r6, [lr], #-1375	; 0xfffffaa1
 7d8:	2f2e2e00 	svccs	0x002e2e00
 7dc:	2e2f2e2e 	cdpcs	14, 2, cr2, cr15, cr14, {1}
 7e0:	2e2e2f2e 	cdpcs	15, 2, cr2, cr14, cr14, {1}
 7e4:	2f2e2e2f 	svccs	0x002e2e2f
 7e8:	2e2f2e2e 	cdpcs	14, 2, cr2, cr15, cr14, {1}
 7ec:	2e2e2f2e 	cdpcs	15, 2, cr2, cr14, cr14, {1}
 7f0:	77656e2f 	strbvc	r6, [r5, -pc, lsr #28]!
 7f4:	2f62696c 	svccs	0x0062696c
 7f8:	6362696c 	cmnvs	r2, #108, 18	; 0x1b0000
 7fc:	73696d2f 	cmnvc	r9, #3008	; 0xbc0
 800:	6e692f63 	cdpvs	15, 6, cr2, cr9, cr3, {3}
 804:	632e7469 			; <UNDEFINED> instruction: 0x632e7469
 808:	74706100 	ldrbtvc	r6, [r0], #-256	; 0xffffff00
 80c:	72660072 	rsbvc	r0, r6, #114	; 0x72
 810:	6e006565 	cfsh32vs	mvfx6, mvfx0, #53
 814:	65747962 	ldrbvs	r7, [r4, #-2402]!	; 0xfffff69e
 818:	2e2e0073 	mcrcs	0, 1, r0, cr14, cr3, {3}
 81c:	2f2e2e2f 	svccs	0x002e2e2f
 820:	2e2f2e2e 	cdpcs	14, 2, cr2, cr15, cr14, {1}
 824:	2e2e2f2e 	cdpcs	15, 2, cr2, cr14, cr14, {1}
 828:	2f2e2e2f 	svccs	0x002e2e2f
 82c:	2e2f2e2e 	cdpcs	14, 2, cr2, cr15, cr14, {1}
 830:	656e2f2e 	strbvs	r2, [lr, #-3886]!	; 0xfffff0d2
 834:	62696c77 	rsbvs	r6, r9, #30464	; 0x7700
 838:	62696c2f 	rsbvs	r6, r9, #12032	; 0x2f00
 83c:	74732f63 	ldrbtvc	r2, [r3], #-3939	; 0xfffff09d
 840:	62696c64 	rsbvs	r6, r9, #100, 24	; 0x6400
 844:	6c616d2f 	stclvs	13, cr6, [r1], #-188	; 0xffffff44
 848:	2e636f6c 	cdpcs	15, 6, cr6, cr3, cr12, {3}
 84c:	665f0063 	ldrbvs	r0, [pc], -r3, rrx
 850:	5f656572 	svcpl	0x00656572
 854:	6d5f0072 	ldclvs	0, cr0, [pc, #-456]	; 694 <_malloc_r+0x3fc>
 858:	6f6c6c61 	svcvs	0x006c6c61
 85c:	00725f63 	rsbseq	r5, r2, r3, ror #30
 860:	76657270 			; <UNDEFINED> instruction: 0x76657270
 864:	7a69735f 	bvc	1a5d5e8 <_bsl_base_address+0x185b5e8>
 868:	5f5f0065 	svcpl	0x005f0065
 86c:	6c6c616d 	stfvse	f6, [ip], #-436	; 0xfffffe4c
 870:	745f636f 	ldrbvc	r6, [pc], #-879	; 878 <memset+0x6c>
 874:	705f706f 	subsvc	r7, pc, pc, rrx
 878:	68006461 	stmdavs	r0, {r0, r5, r6, sl, sp, lr}
 87c:	736b6c62 	cmnvc	fp, #25088	; 0x6200
 880:	63697600 	cmnvs	r9, #0, 12
 884:	006d6974 	rsbeq	r6, sp, r4, ror r9
 888:	6e657261 	cdpvs	2, 6, cr7, cr5, cr1, {3}
 88c:	65720061 	ldrbvs	r0, [r2, #-97]!	; 0xffffff9f
 890:	6e69616d 	powvsez	f6, f1, #5.0
 894:	5f726564 	svcpl	0x00726564
 898:	657a6973 	ldrbvs	r6, [sl, #-2419]!	; 0xfffff68d
 89c:	646c6f00 	strbtvs	r6, [ip], #-3840	; 0xfffff100
 8a0:	646e655f 	strbtvs	r6, [lr], #-1375	; 0xfffffaa1
 8a4:	6f6c6200 	svcvs	0x006c6200
 8a8:	5f006b63 	svcpl	0x00006b63
 8ac:	6c616d5f 	stclvs	13, cr6, [r1], #-380	; 0xfffffe84
 8b0:	5f636f6c 	svcpl	0x00636f6c
 8b4:	6f6c6e75 	svcvs	0x006c6e75
 8b8:	6d006b63 	vstrvs	d6, [r0, #-396]	; 0xfffffe74
 8bc:	706e6962 	rsbvc	r6, lr, r2, ror #18
 8c0:	6e007274 	mcrvs	2, 0, r7, cr0, cr4, {3}
 8c4:	625f7765 	subsvs	r7, pc, #26476544	; 0x1940000
 8c8:	6d006b72 	vstrvs	d6, [r0, #-456]	; 0xfffffe38
 8cc:	6f6c6c61 	svcvs	0x006c6c61
 8d0:	78655f63 	stmdavc	r5!, {r0, r1, r5, r6, r8, r9, sl, fp, ip, lr}^
 8d4:	646e6574 	strbtvs	r6, [lr], #-1396	; 0xfffffa8c
 8d8:	706f745f 	rsbvc	r7, pc, pc, asr r4	; <UNPREDICTABLE>
 8dc:	726f6600 	rsbvc	r6, pc, #0, 12
 8e0:	6b6c6264 	blvs	1b19278 <_bsl_base_address+0x1917278>
 8e4:	72660073 	rsbvc	r0, r6, #115	; 0x73
 8e8:	5f746e6f 	svcpl	0x00746e6f
 8ec:	6173696d 	cmnvs	r3, sp, ror #18
 8f0:	6e67696c 	vnmulvs.f16	s13, s14, s25	; <UNPREDICTABLE>
 8f4:	6d5f5f00 	ldclvs	15, cr5, [pc, #-0]	; 8fc <__register_exitproc+0x1c>
 8f8:	6f6c6c61 	svcvs	0x006c6c61
 8fc:	6f6c5f63 	svcvs	0x006c5f63
 900:	5f006b63 	svcpl	0x00006b63
 904:	6c616d5f 	stclvs	13, cr6, [r1], #-380	; 0xfffffe84
 908:	5f636f6c 	svcpl	0x00636f6c
 90c:	5f78616d 	svcpl	0x0078616d
 910:	6b726273 	blvs	1c992e4 <_bsl_base_address+0x1a972e4>
 914:	6d5f6465 	cfldrdvs	mvd6, [pc, #-404]	; 788 <_malloc_r+0x4f0>
 918:	75006d65 	strvc	r6, [r0, #-3429]	; 0xfffff29b
 91c:	6264726f 	rsbvs	r7, r4, #-268435450	; 0xf0000006
 920:	00736b6c 	rsbseq	r6, r3, ip, ror #22
 924:	6b726273 	blvs	1c992f8 <_bsl_base_address+0x1a972f8>
 928:	7a69735f 	bvc	1a5d6ac <_bsl_base_address+0x185b6ac>
 92c:	65720065 	ldrbvs	r0, [r2, #-101]!	; 0xffffff9b
 930:	6e69616d 	powvsez	f6, f1, #5.0
 934:	5f726564 	svcpl	0x00726564
 938:	65646e69 	strbvs	r6, [r4, #-3689]!	; 0xfffff197
 93c:	5f5f0078 	svcpl	0x005f0078
 940:	6c6c616d 	stfvse	f6, [ip], #-436	; 0xfffffe4c
 944:	6d5f636f 	ldclvs	3, cr6, [pc, #-444]	; 790 <_malloc_r+0x4f8>
 948:	745f7861 	ldrbvc	r7, [pc], #-2145	; 950 <__register_exitproc+0x70>
 94c:	6c61746f 	cfstrdvs	mvd7, [r1], #-444	; 0xfffffe44
 950:	6d656d5f 	stclvs	13, cr6, [r5, #-380]!	; 0xfffffe84
 954:	61747300 	cmnvs	r4, r0, lsl #6
 958:	64697472 	strbtvs	r7, [r9], #-1138	; 0xfffffb8e
 95c:	69760078 	ldmdbvs	r6!, {r3, r4, r5, r6}^
 960:	6d697463 	cfstrdvs	mvd7, [r9, #-396]!	; 0xfffffe74
 964:	7a69735f 	bvc	1a5d6e8 <_bsl_base_address+0x185b6e8>
 968:	73660065 	cmnvc	r6, #101	; 0x65
 96c:	6b6c626d 	blvs	1b19328 <_bsl_base_address+0x1917328>
 970:	616d0073 	smcvs	53251	; 0xd003
 974:	636f6c6c 	cmnvs	pc, #108, 24	; 0x6c00
 978:	7568635f 	strbvc	r6, [r8, #-863]!	; 0xfffffca1
 97c:	5f006b6e 	svcpl	0x00006b6e
 980:	6c616d5f 	stclvs	13, cr6, [r1], #-380	; 0xfffffe84
 984:	5f636f6c 	svcpl	0x00636f6c
 988:	6d697274 	sfmvs	f7, 2, [r9, #-464]!	; 0xfffffe30
 98c:	7268745f 	rsbvc	r7, r8, #1593835520	; 0x5f000000
 990:	6f687365 	svcvs	0x00687365
 994:	7500646c 	strvc	r6, [r0, #-1132]	; 0xfffffb94
 998:	6c626d73 	stclvs	13, cr6, [r2], #-460	; 0xfffffe34
 99c:	7000736b 	andvc	r7, r0, fp, ror #6
 9a0:	73656761 	cmnvc	r5, #25427968	; 0x1840000
 9a4:	5f5f007a 	svcpl	0x005f007a
 9a8:	6c6c616d 	stfvse	f6, [ip], #-436	; 0xfffffe4c
 9ac:	635f636f 	cmpvs	pc, #-1140850687	; 0xbc000001
 9b0:	65727275 	ldrbvs	r7, [r2, #-629]!	; 0xfffffd8b
 9b4:	6d5f746e 	cfldrdvs	mvd7, [pc, #-440]	; 804 <_malloc_r+0x56c>
 9b8:	696c6c61 	stmdbvs	ip!, {r0, r5, r6, sl, fp, sp, lr}^
 9bc:	006f666e 	rsbeq	r6, pc, lr, ror #12
 9c0:	616d6572 	smcvs	54866	; 0xd652
 9c4:	65646e69 	strbvs	r6, [r4, #-3689]!	; 0xfffff197
 9c8:	6c6f0072 	stclvs	0, cr0, [pc], #-456	; 808 <_malloc_r+0x570>
 9cc:	6f745f64 	svcvs	0x00745f64
 9d0:	5f5f0070 	svcpl	0x005f0070
 9d4:	6c6c616d 	stfvse	f6, [ip], #-436	; 0xfffffe4c
 9d8:	615f636f 	cmpvs	pc, pc, ror #6
 9dc:	72005f76 	andvc	r5, r0, #472	; 0x1d8
 9e0:	746e6565 	strbtvc	r6, [lr], #-1381	; 0xfffffa9b
 9e4:	7274705f 	rsbsvc	r7, r4, #95	; 0x5f
 9e8:	2f2e2e00 	svccs	0x002e2e00
 9ec:	2e2f2e2e 	cdpcs	14, 2, cr2, cr15, cr14, {1}
 9f0:	2e2e2f2e 	cdpcs	15, 2, cr2, cr14, cr14, {1}
 9f4:	2f2e2e2f 	svccs	0x002e2e2f
 9f8:	2e2f2e2e 	cdpcs	14, 2, cr2, cr15, cr14, {1}
 9fc:	2e2e2f2e 	cdpcs	15, 2, cr2, cr14, cr14, {1}
 a00:	77656e2f 	strbvc	r6, [r5, -pc, lsr #28]!
 a04:	2f62696c 	svccs	0x0062696c
 a08:	6362696c 	cmnvs	r2, #108, 18	; 0x1b0000
 a0c:	6474732f 	ldrbtvs	r7, [r4], #-815	; 0xfffffcd1
 a10:	2f62696c 	svccs	0x0062696c
 a14:	6c6c616d 	stfvse	f6, [ip], #-436	; 0xfffffe4c
 a18:	2e72636f 	cdpcs	3, 7, cr6, cr2, cr15, {3}
 a1c:	735f0063 	cmpvc	pc, #99	; 0x63
 a20:	5f6b7262 	svcpl	0x006b7262
 a24:	6f630072 	svcvs	0x00630072
 a28:	63657272 	cmnvs	r5, #536870919	; 0x20000007
 a2c:	6e6f6974 			; <UNDEFINED> instruction: 0x6e6f6974
 a30:	6961665f 	stmdbvs	r1!, {r0, r1, r2, r3, r4, r6, r9, sl, sp, lr}^
 a34:	0064656c 	rsbeq	r6, r4, ip, ror #10
 a38:	7568636d 	strbvc	r6, [r8, #-877]!	; 0xfffffc93
 a3c:	74706b6e 	ldrbtvc	r6, [r0], #-2926	; 0xfffff492
 a40:	6c6f0072 	stclvs	0, cr0, [pc], #-456	; 880 <memset+0x74>
 a44:	6f745f64 	svcvs	0x00745f64
 a48:	69735f70 	ldmdbvs	r3!, {r4, r5, r6, r8, r9, sl, fp, ip, lr}^
 a4c:	6b00657a 	blvs	1a03c <__data_load__+0x191dc>
 a50:	63706565 	cmnvs	r0, #423624704	; 0x19400000
 a54:	0074736f 	rsbseq	r7, r4, pc, ror #6
 a58:	616d5f5f 	cmnvs	sp, pc, asr pc
 a5c:	636f6c6c 	cmnvs	pc, #108, 24	; 0x6c00
 a60:	7262735f 	rsbvc	r7, r2, #2080374785	; 0x7c000001
 a64:	61625f6b 	cmnvs	r2, fp, ror #30
 a68:	63006573 	movwvs	r6, #1395	; 0x573
 a6c:	6572726f 	ldrbvs	r7, [r2, #-623]!	; 0xfffffd91
 a70:	6f697463 	svcvs	0x00697463
 a74:	6268006e 	rsbvs	r0, r8, #110	; 0x6e
 a78:	64686b6c 	strbtvs	r6, [r8], #-2924	; 0xfffff494
 a7c:	696c6100 	stmdbvs	ip!, {r8, sp, lr}^
 a80:	64656e67 	strbtvs	r6, [r5], #-3687	; 0xfffff199
 a84:	6464615f 	strbtvs	r6, [r4], #-351	; 0xfffffea1
 a88:	2e2e0072 	mcrcs	0, 1, r0, cr14, cr2, {3}
 a8c:	2f2e2e2f 	svccs	0x002e2e2f
 a90:	2e2f2e2e 	cdpcs	14, 2, cr2, cr15, cr14, {1}
 a94:	2e2e2f2e 	cdpcs	15, 2, cr2, cr14, cr14, {1}
 a98:	2f2e2e2f 	svccs	0x002e2e2f
 a9c:	2e2f2e2e 	cdpcs	14, 2, cr2, cr15, cr14, {1}
 aa0:	656e2f2e 	strbvs	r2, [lr, #-3886]!	; 0xfffff0d2
 aa4:	62696c77 	rsbvs	r6, r9, #30464	; 0x7700
 aa8:	62696c2f 	rsbvs	r6, r9, #12032	; 0x2f00
 aac:	74732f63 	ldrbtvc	r2, [r3], #-3939	; 0xfffff09d
 ab0:	676e6972 			; <UNDEFINED> instruction: 0x676e6972
 ab4:	6d656d2f 	stclvs	13, cr6, [r5, #-188]!	; 0xffffff44
 ab8:	2e746573 	mrccs	5, 3, r6, cr4, cr3, {3}
 abc:	622f0063 	eorvs	r0, pc, #99	; 0x63
 ac0:	646c6975 	strbtvs	r6, [ip], #-2421	; 0xfffff68b
 ac4:	77656e2f 	strbvc	r6, [r5, -pc, lsr #28]!
 ac8:	2d62696c 			; <UNDEFINED> instruction: 0x2d62696c
 acc:	30334270 	eorscc	r4, r3, r0, ror r2
 ad0:	6e2f6564 	cfsh64vs	mvdx6, mvdx15, #52
 ad4:	696c7765 	stmdbvs	ip!, {r0, r2, r5, r6, r8, r9, sl, ip, sp, lr}^
 ad8:	2e332d62 	cdpcs	13, 3, cr2, cr3, cr2, {3}
 adc:	2f302e33 	svccs	0x00302e33
 ae0:	6c697562 	cfstr64vs	mvdx7, [r9], #-392	; 0xfffffe78
 ae4:	72612f64 	rsbvc	r2, r1, #100, 30	; 0x190
 ae8:	6f6e2d6d 	svcvs	0x006e2d6d
 aec:	652d656e 	strvs	r6, [sp, #-1390]!	; 0xfffffa92
 af0:	2f696261 	svccs	0x00696261
 af4:	6d756874 	ldclvs	8, cr6, [r5, #-464]!	; 0xfffffe30
 af8:	36762f62 	ldrbtcc	r2, [r6], -r2, ror #30
 afc:	6e2f6d2d 	cdpvs	13, 2, cr6, cr15, cr13, {1}
 b00:	2f70666f 	svccs	0x0070666f
 b04:	6c77656e 	cfldr64vs	mvdx6, [r7], #-440	; 0xfffffe48
 b08:	6c2f6269 	sfmvs	f6, 4, [pc], #-420	; 96c <__call_exitprocs+0x4>
 b0c:	2f636269 	svccs	0x00636269
 b10:	69727473 	ldmdbvs	r2!, {r0, r1, r4, r5, r6, sl, ip, sp, lr}^
 b14:	6d00676e 	stcvs	7, cr6, [r0, #-440]	; 0xfffffe48
 b18:	65736d65 	ldrbvs	r6, [r3, #-3429]!	; 0xfffff29b
 b1c:	75620074 	strbvc	r0, [r2, #-116]!	; 0xffffff8c
 b20:	72656666 	rsbvc	r6, r5, #106954752	; 0x6600000
 b24:	6d5f5f00 	ldclvs	15, cr5, [pc, #-0]	; b2c <_free_r+0x48>
 b28:	6f6c6c61 	svcvs	0x006c6c61
 b2c:	65725f63 	ldrbvs	r5, [r2, #-3939]!	; 0xfffff09d
 b30:	73727563 	cmnvc	r2, #415236096	; 0x18c00000
 b34:	5f657669 	svcpl	0x00657669
 b38:	6574756d 	ldrbvs	r7, [r4, #-1389]!	; 0xfffffa93
 b3c:	2e2e0078 	mcrcs	0, 1, r0, cr14, cr8, {3}
 b40:	2f2e2e2f 	svccs	0x002e2e2f
 b44:	2e2f2e2e 	cdpcs	14, 2, cr2, cr15, cr14, {1}
 b48:	2e2e2f2e 	cdpcs	15, 2, cr2, cr14, cr14, {1}
 b4c:	2f2e2e2f 	svccs	0x002e2e2f
 b50:	2e2f2e2e 	cdpcs	14, 2, cr2, cr15, cr14, {1}
 b54:	656e2f2e 	strbvs	r2, [lr, #-3886]!	; 0xfffff0d2
 b58:	62696c77 	rsbvs	r6, r9, #30464	; 0x7700
 b5c:	62696c2f 	rsbvs	r6, r9, #12032	; 0x2f00
 b60:	74732f63 	ldrbtvc	r2, [r3], #-3939	; 0xfffff09d
 b64:	62696c64 	rsbvs	r6, r9, #100, 24	; 0x6400
 b68:	6f6c6d2f 	svcvs	0x006c6d2f
 b6c:	632e6b63 			; <UNDEFINED> instruction: 0x632e6b63
 b70:	636e6900 	cmnvs	lr, #0, 18
 b74:	74700072 	ldrbtvc	r0, [r0], #-114	; 0xffffff8e
 b78:	66696472 			; <UNDEFINED> instruction: 0x66696472
 b7c:	00745f66 	rsbseq	r5, r4, r6, ror #30
 b80:	2e2f2e2e 	cdpcs	14, 2, cr2, cr15, cr14, {1}
 b84:	2e2e2f2e 	cdpcs	15, 2, cr2, cr14, cr14, {1}
 b88:	2f2e2e2f 	svccs	0x002e2e2f
 b8c:	2e2f2e2e 	cdpcs	14, 2, cr2, cr15, cr14, {1}
 b90:	2e2e2f2e 	cdpcs	15, 2, cr2, cr14, cr14, {1}
 b94:	2f2e2e2f 	svccs	0x002e2e2f
 b98:	6c77656e 	cfldr64vs	mvdx6, [r7], #-440	; 0xfffffe48
 b9c:	6c2f6269 	sfmvs	f6, 4, [pc], #-420	; a00 <__call_exitprocs+0x98>
 ba0:	2f636269 	svccs	0x00636269
 ba4:	6e656572 	mcrvs	5, 3, r6, cr5, cr2, {3}
 ba8:	62732f74 	rsbsvs	r2, r3, #116, 30	; 0x1d0
 bac:	2e726b72 	vmovcs.s8	r6, d2[7]
 bb0:	735f0063 	cmpvc	pc, #99	; 0x63
 bb4:	006b7262 	rsbeq	r7, fp, r2, ror #4
 bb8:	65707974 	ldrbvs	r7, [r0, #-2420]!	; 0xfffff68c
 bbc:	2f2e2e00 	svccs	0x002e2e00
 bc0:	2e2f2e2e 	cdpcs	14, 2, cr2, cr15, cr14, {1}
 bc4:	2e2e2f2e 	cdpcs	15, 2, cr2, cr14, cr14, {1}
 bc8:	2f2e2e2f 	svccs	0x002e2e2f
 bcc:	2e2f2e2e 	cdpcs	14, 2, cr2, cr15, cr14, {1}
 bd0:	2e2e2f2e 	cdpcs	15, 2, cr2, cr14, cr14, {1}
 bd4:	77656e2f 	strbvc	r6, [r5, -pc, lsr #28]!
 bd8:	2f62696c 	svccs	0x0062696c
 bdc:	6362696c 	cmnvs	r2, #108, 18	; 0x1b0000
 be0:	6474732f 	ldrbtvs	r7, [r4], #-815	; 0xfffffcd1
 be4:	2f62696c 	svccs	0x0062696c
 be8:	74615f5f 	strbtvc	r5, [r1], #-3935	; 0xfffff0a1
 bec:	74697865 	strbtvc	r7, [r9], #-2149	; 0xfffff79b
 bf0:	5f00632e 	svcpl	0x0000632e
 bf4:	62696c5f 	rsbvs	r6, r9, #24320	; 0x5f00
 bf8:	69665f63 	stmdbvs	r6!, {r0, r1, r5, r6, r8, r9, sl, fp, ip, lr}^
 bfc:	6c00696e 			; <UNDEFINED> instruction: 0x6c00696e
 c00:	70747361 	rsbsvc	r7, r4, r1, ror #6
 c04:	73657200 	cmnvc	r5, #0, 4
 c08:	74726174 	ldrbtvc	r6, [r2], #-372	; 0xfffffe8c
 c0c:	67657200 	strbvs	r7, [r5, -r0, lsl #4]!
 c10:	65747369 	ldrbvs	r7, [r4, #-873]!	; 0xfffffc97
 c14:	69665f72 	stmdbvs	r6!, {r1, r4, r5, r6, r8, r9, sl, fp, ip, lr}^
 c18:	2e00696e 	vmlscs.f16	s12, s0, s29	; <UNPREDICTABLE>
 c1c:	2e2e2f2e 	cdpcs	15, 2, cr2, cr14, cr14, {1}
 c20:	2f2e2e2f 	svccs	0x002e2e2f
 c24:	2e2f2e2e 	cdpcs	14, 2, cr2, cr15, cr14, {1}
 c28:	2e2e2f2e 	cdpcs	15, 2, cr2, cr14, cr14, {1}
 c2c:	2f2e2e2f 	svccs	0x002e2e2f
 c30:	6e2f2e2e 	cdpvs	14, 2, cr2, cr15, cr14, {1}
 c34:	696c7765 	stmdbvs	ip!, {r0, r2, r5, r6, r8, r9, sl, ip, sp, lr}^
 c38:	696c2f62 	stmdbvs	ip!, {r1, r5, r6, r8, r9, sl, fp, sp}^
 c3c:	732f6362 			; <UNDEFINED> instruction: 0x732f6362
 c40:	696c6474 	stmdbvs	ip!, {r2, r4, r5, r6, sl, sp, lr}^
 c44:	5f5f2f62 	svcpl	0x005f2f62
 c48:	6c6c6163 	stfvse	f6, [ip], #-396	; 0xfffffe74
 c4c:	6574615f 	ldrbvs	r6, [r4, #-351]!	; 0xfffffea1
 c50:	2e746978 			; <UNDEFINED> instruction: 0x2e746978
 c54:	5f5f0063 	svcpl	0x005f0063
 c58:	78657461 	stmdavc	r5!, {r0, r5, r6, sl, ip, sp, lr}^
 c5c:	725f7469 	subsvc	r7, pc, #1761607680	; 0x69000000
 c60:	72756365 	rsbsvc	r6, r5, #-1811939327	; 0x94000001
 c64:	65766973 	ldrbvs	r6, [r6, #-2419]!	; 0xfffff68d
 c68:	74756d5f 	ldrbtvc	r6, [r5], #-3423	; 0xfffff2a1
 c6c:	65007865 	strvs	r7, [r0, #-2149]	; 0xfffff79b
 c70:	61727478 	cmnvs	r2, r8, ror r4
 c74:	6c736900 			; <UNDEFINED> instruction: 0x6c736900
 c78:	75630072 	strbvc	r0, [r3, #-114]!	; 0xffffff8e
 c7c:	6e657272 	mcrvs	2, 3, r7, cr5, cr2, {3}
 c80:	72625f74 	rsbvc	r5, r2, #116, 30	; 0x1d0
 c84:	656e006b 	strbvs	r0, [lr, #-107]!	; 0xffffff95
 c88:	7a737478 	bvc	1cdde70 <_bsl_base_address+0x1adbe70>
 c8c:	65727000 	ldrbvs	r7, [r2, #-0]!
 c90:	007a7376 	rsbseq	r7, sl, r6, ror r3
 c94:	6c616d5f 	stclvs	13, cr6, [r1], #-380	; 0xfffffe84
 c98:	5f636f6c 	svcpl	0x00636f6c
 c9c:	6d697274 	sfmvs	f7, 2, [r9, #-464]!	; 0xfffffe30
 ca0:	5f00725f 	svcpl	0x0000725f
 ca4:	6c636572 	cfstr64vs	mvdx6, [r3], #-456	; 0xfffffe38
 ca8:	5f6d6961 	svcpl	0x006d6961
 cac:	6e656572 	mcrvs	5, 3, r6, cr5, cr2, {3}
 cb0:	68740074 	ldmdavs	r4!, {r2, r4, r5, r6}^
 cb4:	6e6f7369 	cdpvs	3, 6, cr7, cr15, cr9, {3}
 cb8:	6c630065 	stclvs	0, cr0, [r3], #-404	; 0xfffffe6c
 cbc:	756e6165 	strbvc	r6, [lr, #-357]!	; 0xfffffe9b
 cc0:	6c675f70 	stclvs	15, cr5, [r7], #-448	; 0xfffffe40
 cc4:	2e006575 	cfrshl64cs	mvdx0, mvdx5, r6
 cc8:	2e2e2f2e 	cdpcs	15, 2, cr2, cr14, cr14, {1}
 ccc:	2f2e2e2f 	svccs	0x002e2e2f
 cd0:	2e2f2e2e 	cdpcs	14, 2, cr2, cr15, cr14, {1}
 cd4:	2e2e2f2e 	cdpcs	15, 2, cr2, cr14, cr14, {1}
 cd8:	2f2e2e2f 	svccs	0x002e2e2f
 cdc:	6e2f2e2e 	cdpvs	14, 2, cr2, cr15, cr14, {1}
 ce0:	696c7765 	stmdbvs	ip!, {r0, r2, r5, r6, r8, r9, sl, ip, sp, lr}^
 ce4:	696c2f62 	stmdbvs	ip!, {r1, r5, r6, r8, r9, sl, fp, sp}^
 ce8:	722f6362 	eorvc	r6, pc, #-2013265919	; 0x88000001
 cec:	746e6565 	strbtvc	r6, [lr], #-1381	; 0xfffffa9b
 cf0:	6565722f 	strbvs	r7, [r5, #-559]!	; 0xfffffdd1
 cf4:	632e746e 			; <UNDEFINED> instruction: 0x632e746e
 cf8:	78656e00 	stmdavc	r5!, {r9, sl, fp, sp, lr}^
 cfc:	656e6f74 	strbvs	r6, [lr, #-3956]!	; 0xfffff08c
 d00:	554e4700 	strbpl	r4, [lr, #-1792]	; 0xfffff900
 d04:	37314320 	ldrcc	r4, [r1, -r0, lsr #6]!
 d08:	2e303120 	rsfcssp	f3, f0, f0
 d0c:	20312e33 	eorscs	r2, r1, r3, lsr lr
 d10:	31323032 	teqcc	r2, r2, lsr r0
 d14:	31323630 	teqcc	r2, r0, lsr r6
 d18:	65722820 	ldrbvs	r2, [r2, #-2080]!	; 0xfffff7e0
 d1c:	7361656c 	cmnvc	r1, #108, 10	; 0x1b000000
 d20:	2d202965 			; <UNDEFINED> instruction: 0x2d202965
 d24:	7568746d 	strbvc	r7, [r8, #-1133]!	; 0xfffffb93
 d28:	2d20626d 	sfmcs	f6, 4, [r0, #-436]!	; 0xfffffe4c
 d2c:	6f6c666d 	svcvs	0x006c666d
 d30:	612d7461 			; <UNDEFINED> instruction: 0x612d7461
 d34:	733d6962 	teqvc	sp, #1605632	; 0x188000
 d38:	2074666f 	rsbscs	r6, r4, pc, ror #12
 d3c:	72616d2d 	rsbvc	r6, r1, #2880	; 0xb40
 d40:	613d6863 	teqvs	sp, r3, ror #16
 d44:	36766d72 			; <UNDEFINED> instruction: 0x36766d72
 d48:	206d2d73 	rsbcs	r2, sp, r3, ror sp
 d4c:	2d20672d 	stccs	7, cr6, [r0, #-180]!	; 0xffffff4c
 d50:	4f2d2067 	svcmi	0x002d2067
 d54:	4f2d2032 	svcmi	0x002d2032
 d58:	4f2d2032 	svcmi	0x002d2032
 d5c:	622f0032 	eorvs	r0, pc, #50	; 0x32
 d60:	646c6975 	strbtvs	r6, [ip], #-2421	; 0xfffff68b
 d64:	77656e2f 	strbvc	r6, [r5, -pc, lsr #28]!
 d68:	2d62696c 			; <UNDEFINED> instruction: 0x2d62696c
 d6c:	30334270 	eorscc	r4, r3, r0, ror r2
 d70:	6e2f6564 	cfsh64vs	mvdx6, mvdx15, #52
 d74:	696c7765 	stmdbvs	ip!, {r0, r2, r5, r6, r8, r9, sl, ip, sp, lr}^
 d78:	2e332d62 	cdpcs	13, 3, cr2, cr3, cr2, {3}
 d7c:	2f302e33 	svccs	0x00302e33
 d80:	6c697562 	cfstr64vs	mvdx7, [r9], #-392	; 0xfffffe78
 d84:	72612f64 	rsbvc	r2, r1, #100, 30	; 0x190
 d88:	6f6e2d6d 	svcvs	0x006e2d6d
 d8c:	652d656e 	strvs	r6, [sp, #-1390]!	; 0xfffffa92
 d90:	2f696261 	svccs	0x00696261
 d94:	6d756874 	ldclvs	8, cr6, [r5, #-464]!	; 0xfffffe30
 d98:	36762f62 	ldrbtcc	r2, [r6], -r2, ror #30
 d9c:	6e2f6d2d 	cdpvs	13, 2, cr6, cr15, cr13, {1}
 da0:	2f70666f 	svccs	0x0070666f
 da4:	6762696c 	strbvs	r6, [r2, -ip, ror #18]!
 da8:	73736f6c 	cmnvc	r3, #108, 30	; 0x1b0
 dac:	62696c2f 	rsbvs	r6, r9, #12032	; 0x2f00
 db0:	79736f6e 	ldmdbvc	r3!, {r1, r2, r3, r5, r6, r8, r9, sl, fp, sp, lr}^
 db4:	2e2e0073 	mcrcs	0, 1, r0, cr14, cr3, {3}
 db8:	2f2e2e2f 	svccs	0x002e2e2f
 dbc:	2e2f2e2e 	cdpcs	14, 2, cr2, cr15, cr14, {1}
 dc0:	2e2e2f2e 	cdpcs	15, 2, cr2, cr14, cr14, {1}
 dc4:	2f2e2e2f 	svccs	0x002e2e2f
 dc8:	6c2f2e2e 	stcvs	14, cr2, [pc], #-184	; d18 <_reclaim_reent+0x20>
 dcc:	6c676269 	sfmvs	f6, 2, [r7], #-420	; 0xfffffe5c
 dd0:	2f73736f 	svccs	0x0073736f
 dd4:	6e62696c 	vnmulvs.f16	s13, s4, s25	; <UNPREDICTABLE>
 dd8:	7379736f 	cmnvc	r9, #-1140850687	; 0xbc000001
 ddc:	7262732f 	rsbvc	r7, r2, #-1140850688	; 0xbc000000
 de0:	00632e6b 	rsbeq	r2, r3, fp, ror #28
 de4:	76657270 			; <UNDEFINED> instruction: 0x76657270
 de8:	6165685f 	cmnvs	r5, pc, asr r8
 dec:	6e655f70 	mcrvs	15, 3, r5, cr5, cr0, {3}
 df0:	2e2e0064 	cdpcs	0, 2, cr0, cr14, cr4, {3}
 df4:	2f2e2e2f 	svccs	0x002e2e2f
 df8:	2e2f2e2e 	cdpcs	14, 2, cr2, cr15, cr14, {1}
 dfc:	2e2e2f2e 	cdpcs	15, 2, cr2, cr14, cr14, {1}
 e00:	2f2e2e2f 	svccs	0x002e2e2f
 e04:	6c2f2e2e 	stcvs	14, cr2, [pc], #-184	; d54 <_reclaim_reent+0x5c>
 e08:	6c676269 	sfmvs	f6, 2, [r7], #-420	; 0xfffffe5c
 e0c:	2f73736f 	svccs	0x0073736f
 e10:	6e62696c 	vnmulvs.f16	s13, s4, s25	; <UNPREDICTABLE>
 e14:	7379736f 	cmnvc	r9, #-1140850687	; 0xbc000001
 e18:	78655f2f 	stmdavc	r5!, {r0, r1, r2, r3, r5, r8, r9, sl, fp, ip, lr}^
 e1c:	632e7469 			; <UNDEFINED> instruction: 0x632e7469
	...

Disassembly of section .debug_loc:

00000000 <.debug_loc>:
	...
       8:	000a0000 	andeq	r0, sl, r0
       c:	00010000 	andeq	r0, r1, r0
      10:	00000a50 	andeq	r0, r0, r0, asr sl
      14:	00000d00 	andeq	r0, r0, r0, lsl #26
      18:	51000100 	mrspl	r0, (UNDEF: 16)
      1c:	0000000d 	andeq	r0, r0, sp
      20:	00000010 	andeq	r0, r0, r0, lsl r0
      24:	01f30004 	mvnseq	r0, r4
      28:	00009f50 	andeq	r9, r0, r0, asr pc
	...
      38:	00090000 	andeq	r0, r9, r0
      3c:	00010000 	andeq	r0, r1, r0
      40:	00000950 	andeq	r0, r0, r0, asr r9
      44:	00002000 	andeq	r2, r0, r0
      48:	54000100 	strpl	r0, [r0], #-256	; 0xffffff00
	...
      54:	000a0000 	andeq	r0, sl, r0
      58:	000c0000 	andeq	r0, ip, r0
      5c:	00010000 	andeq	r0, r1, r0
      60:	00000054 	andeq	r0, r0, r4, asr r0
      64:	00000000 	andeq	r0, r0, r0
      68:	00000100 	andeq	r0, r0, r0, lsl #2
      6c:	0a000101 	beq	478 <_malloc_r+0x1e0>
      70:	0e000000 	cdpeq	0, 0, cr0, cr0, cr0, {0}
      74:	01000000 	mrseq	r0, (UNDEF: 0)
      78:	000e5400 	andeq	r5, lr, r0, lsl #8
      7c:	00140000 	andseq	r0, r4, r0
      80:	00030000 	andeq	r0, r3, r0
      84:	149f0174 	ldrne	r0, [pc], #372	; 8c <frame_dummy+0x18>
      88:	1c000000 	stcne	0, cr0, [r0], {-0}
      8c:	01000000 	mrseq	r0, (UNDEF: 0)
      90:	00005400 	andeq	r5, r0, r0, lsl #8
	...
      9c:	000a0100 	andeq	r0, sl, r0, lsl #2
      a0:	00200000 	eoreq	r0, r0, r0
      a4:	00010000 	andeq	r0, r1, r0
      a8:	00002456 	andeq	r2, r0, r6, asr r4
      ac:	00003200 	andeq	r3, r0, r0, lsl #4
      b0:	56000100 	strpl	r0, [r0], -r0, lsl #2
	...
      bc:	00000001 	andeq	r0, r0, r1
      c0:	00010100 	andeq	r0, r1, r0, lsl #2
      c4:	00000001 	andeq	r0, r0, r1
      c8:	00010100 	andeq	r0, r1, r0, lsl #2
      cc:	0000000a 	andeq	r0, r0, sl
      d0:	0000000e 	andeq	r0, r0, lr
      d4:	9f300002 	svcls	0x00300002
      d8:	0000000e 	andeq	r0, r0, lr
      dc:	00000012 	andeq	r0, r0, r2, lsl r0
      e0:	12540001 	subsne	r0, r4, #1
      e4:	14000000 	strne	r0, [r0], #-0
      e8:	03000000 	movweq	r0, #0
      ec:	9f7f7400 	svcls	0x007f7400
      f0:	00000014 	andeq	r0, r0, r4, lsl r0
      f4:	00000018 	andeq	r0, r0, r8, lsl r0
      f8:	24540001 	ldrbcs	r0, [r4], #-1
      fc:	28000000 	stmdacs	r0, {}	; <UNPREDICTABLE>
     100:	02000000 	andeq	r0, r0, #0
     104:	289f3000 	ldmcs	pc, {ip, sp}	; <UNPREDICTABLE>
     108:	2c000000 	stccs	0, cr0, [r0], {-0}
     10c:	01000000 	mrseq	r0, (UNDEF: 0)
     110:	002c5400 	eoreq	r5, ip, r0, lsl #8
     114:	002e0000 	eoreq	r0, lr, r0
     118:	00030000 	andeq	r0, r3, r0
     11c:	2e9f7f74 	mrccs	15, 4, r7, cr15, cr4, {3}
     120:	32000000 	andcc	r0, r0, #0
     124:	01000000 	mrseq	r0, (UNDEF: 0)
     128:	00005400 	andeq	r5, r0, r0, lsl #8
	...
     138:	00000014 	andeq	r0, r0, r4, lsl r0
     13c:	0000001c 	andeq	r0, r0, ip, lsl r0
     140:	1c500001 	mrrcne	0, 0, r0, r0, cr1	; <UNPREDICTABLE>
     144:	1f000000 	svcne	0x00000000
     148:	01000000 	mrseq	r0, (UNDEF: 0)
     14c:	001f5100 	andseq	r5, pc, r0, lsl #2
     150:	00280000 	eoreq	r0, r8, r0
     154:	00040000 	andeq	r0, r4, r0
     158:	9f5001f3 	svcls	0x005001f3
	...
     16c:	00080000 	andeq	r0, r8, r0
     170:	00010000 	andeq	r0, r1, r0
     174:	00000850 	andeq	r0, r0, r0, asr r8
     178:	00000b00 	andeq	r0, r0, r0, lsl #22
     17c:	51000100 	mrspl	r0, (UNDEF: 16)
     180:	0000000b 	andeq	r0, r0, fp
     184:	00000014 	andeq	r0, r0, r4, lsl r0
     188:	01f30004 	mvnseq	r0, r4
     18c:	00009f50 	andeq	r9, r0, r0, asr pc
	...
     1a8:	00210000 	eoreq	r0, r1, r0
     1ac:	00010000 	andeq	r0, r1, r0
     1b0:	00002150 	andeq	r2, r0, r0, asr r1
     1b4:	00005e00 	andeq	r5, r0, r0, lsl #28
     1b8:	56000100 	strpl	r0, [r0], -r0, lsl #2
     1bc:	0000005e 	andeq	r0, r0, lr, asr r0
     1c0:	0000006f 	andeq	r0, r0, pc, rrx
     1c4:	6f500001 	svcvs	0x00500001
     1c8:	84000000 	strhi	r0, [r0], #-0
     1cc:	01000001 	tsteq	r0, r1
     1d0:	01845600 	orreq	r5, r4, r0, lsl #12
     1d4:	01880000 	orreq	r0, r8, r0
     1d8:	00010000 	andeq	r0, r1, r0
     1dc:	00018850 	andeq	r8, r1, r0, asr r8
     1e0:	00018c00 	andeq	r8, r1, r0, lsl #24
     1e4:	56000100 	strpl	r0, [r0], -r0, lsl #2
     1e8:	0000018c 	andeq	r0, r0, ip, lsl #3
     1ec:	00000198 	muleq	r0, r8, r1
     1f0:	01f30004 	mvnseq	r0, r4
     1f4:	01989f50 	orrseq	r9, r8, r0, asr pc
     1f8:	05740000 	ldrbeq	r0, [r4, #-0]!
     1fc:	00010000 	andeq	r0, r1, r0
     200:	00000056 	andeq	r0, r0, r6, asr r0
	...
     214:	00000101 	andeq	r0, r0, r1, lsl #2
     218:	21000000 	mrscs	r0, (UNDEF: 0)
     21c:	01000000 	mrseq	r0, (UNDEF: 0)
     220:	00215100 	eoreq	r5, r1, r0, lsl #2
     224:	00240000 	eoreq	r0, r4, r0
     228:	00030000 	andeq	r0, r3, r0
     22c:	249f7575 	ldrcs	r7, [pc], #1397	; 234 <__libc_init_array+0x8>
     230:	5e000000 	cdppl	0, 0, cr0, cr0, cr0, {0}
     234:	04000000 	streq	r0, [r0], #-0
     238:	5101f300 	mrspl	pc, SP_irq	; <UNPREDICTABLE>
     23c:	00005e9f 	muleq	r0, pc, lr	; <UNPREDICTABLE>
     240:	00006f00 	andeq	r6, r0, r0, lsl #30
     244:	51000100 	mrspl	r0, (UNDEF: 16)
     248:	0000006f 	andeq	r0, r0, pc, rrx
     24c:	00000184 	andeq	r0, r0, r4, lsl #3
     250:	01f30004 	mvnseq	r0, r4
     254:	01849f51 	orreq	r9, r4, r1, asr pc
     258:	018a0000 	orreq	r0, sl, r0
     25c:	00010000 	andeq	r0, r1, r0
     260:	00018a51 	andeq	r8, r1, r1, asr sl
     264:	00057400 	andeq	r7, r5, r0, lsl #8
     268:	f3000400 	vshl.u8	d0, d0, d0
     26c:	009f5101 	addseq	r5, pc, r1, lsl #2
	...
     278:	00000100 	andeq	r0, r0, r0, lsl #2
     27c:	00000200 	andeq	r0, r0, r0, lsl #4
	...
     290:	00003200 	andeq	r3, r0, r0, lsl #4
     294:	00005e00 	andeq	r5, r0, r0, lsl #28
     298:	54000100 	strpl	r0, [r0], #-256	; 0xffffff00
     29c:	0000009a 	muleq	r0, sl, r0
     2a0:	00000184 	andeq	r0, r0, r4, lsl #3
     2a4:	a4540001 	ldrbge	r0, [r4], #-1
     2a8:	ca000001 	bgt	2b4 <_malloc_r+0x1c>
     2ac:	01000001 	tsteq	r0, r1
     2b0:	02f25400 	rscseq	r5, r2, #0, 8
     2b4:	03020000 	movweq	r0, #8192	; 0x2000
     2b8:	00050000 	andeq	r0, r5, r0
     2bc:	00047003 	andeq	r7, r4, r3
     2c0:	00030e20 	andeq	r0, r3, r0, lsr #28
     2c4:	00037000 	andeq	r7, r3, r0
     2c8:	54000100 	strpl	r0, [r0], #-256	; 0xffffff00
     2cc:	00000388 	andeq	r0, r0, r8, lsl #7
     2d0:	000003be 			; <UNDEFINED> instruction: 0x000003be
     2d4:	c6540001 	ldrbgt	r0, [r4], -r1
     2d8:	f8000003 			; <UNDEFINED> instruction: 0xf8000003
     2dc:	01000003 	tsteq	r0, r3
     2e0:	04265400 	strteq	r5, [r6], #-1024	; 0xfffffc00
     2e4:	04640000 	strbteq	r0, [r4], #-0
     2e8:	00010000 	andeq	r0, r1, r0
     2ec:	00046a54 	andeq	r6, r4, r4, asr sl
     2f0:	00047800 	andeq	r7, r4, r0, lsl #16
     2f4:	54000100 	strpl	r0, [r0], #-256	; 0xffffff00
     2f8:	00000498 	muleq	r0, r8, r4
     2fc:	000004a8 	andeq	r0, r0, r8, lsr #9
     300:	f2540001 	vhadd.s16	d16, d4, d1
     304:	06000004 	streq	r0, [r0], -r4
     308:	01000005 	tsteq	r0, r5
     30c:	05445400 	strbeq	r5, [r4, #-1024]	; 0xfffffc00
     310:	05560000 	ldrbeq	r0, [r6, #-0]
     314:	00010000 	andeq	r0, r1, r0
     318:	00056254 	andeq	r6, r5, r4, asr r2
     31c:	00057400 	andeq	r7, r5, r0, lsl #8
     320:	54000100 	strpl	r0, [r0], #-256	; 0xffffff00
	...
     32c:	00010100 	andeq	r0, r1, r0, lsl #2
     330:	01000000 	mrseq	r0, (UNDEF: 0)
	...
     354:	00400000 	subeq	r0, r0, r0
     358:	00400000 	subeq	r0, r0, r0
     35c:	00010000 	andeq	r0, r1, r0
     360:	00004052 	andeq	r4, r0, r2, asr r0
     364:	00004c00 	andeq	r4, r0, r0, lsl #24
     368:	53000100 	movwpl	r0, #256	; 0x100
     36c:	000000a4 	andeq	r0, r0, r4, lsr #1
     370:	000000ae 	andeq	r0, r0, lr, lsr #1
     374:	b4530001 	ldrblt	r0, [r3], #-1
     378:	bc000000 	stclt	0, cr0, [r0], {-0}
     37c:	01000000 	mrseq	r0, (UNDEF: 0)
     380:	00d05300 	sbcseq	r5, r0, r0, lsl #6
     384:	00d40000 	sbcseq	r0, r4, r0
     388:	00010000 	andeq	r0, r1, r0
     38c:	0000d451 	andeq	sp, r0, r1, asr r4
     390:	0000f200 	andeq	pc, r0, r0, lsl #4
     394:	53000100 	movwpl	r0, #256	; 0x100
     398:	000000f2 	strdeq	r0, [r0], -r2
     39c:	00000112 	andeq	r0, r0, r2, lsl r1
     3a0:	3a590001 	bcc	16403ac <_bsl_base_address+0x143e3ac>
     3a4:	48000001 	stmdami	r0, {r0}
     3a8:	01000001 	tsteq	r0, r1
     3ac:	014e5300 	mrseq	r5, SPSR_hyp
     3b0:	017d0000 	cmneq	sp, r0
     3b4:	00010000 	andeq	r0, r1, r0
     3b8:	00030e53 	andeq	r0, r3, r3, asr lr
     3bc:	00032400 	andeq	r2, r3, r0, lsl #8
     3c0:	53000100 	movwpl	r0, #256	; 0x100
     3c4:	00000324 	andeq	r0, r0, r4, lsr #6
     3c8:	00000370 	andeq	r0, r0, r0, ror r3
     3cc:	a0590001 	subsge	r0, r9, r1
     3d0:	a4000003 	strge	r0, [r0], #-3
     3d4:	01000003 	tsteq	r0, r3
     3d8:	03a45300 			; <UNDEFINED> instruction: 0x03a45300
     3dc:	03ac0000 			; <UNDEFINED> instruction: 0x03ac0000
     3e0:	00080000 	andeq	r0, r8, r0
     3e4:	74200078 	strtvc	r0, [r0], #-120	; 0xffffff88
     3e8:	9f1a0604 	svcls	0x001a0604
     3ec:	000003c6 	andeq	r0, r0, r6, asr #7
     3f0:	000003c8 	andeq	r0, r0, r8, asr #7
     3f4:	c8530001 	ldmdagt	r3, {r0}^
     3f8:	ec000003 	stc	0, cr0, [r0], {3}
     3fc:	01000003 	tsteq	r0, r3
     400:	03ec5900 	mvneq	r5, #0, 18
     404:	03f80000 	mvnseq	r0, #0
     408:	00010000 	andeq	r0, r1, r0
     40c:	00046a53 	andeq	r6, r4, r3, asr sl
     410:	00047800 	andeq	r7, r4, r0, lsl #16
     414:	59000100 	stmdbpl	r0, {r8}
     418:	00000498 	muleq	r0, r8, r4
     41c:	000004a8 	andeq	r0, r0, r8, lsr #9
     420:	f2530001 	vhadd.s16	d16, d3, d1
     424:	06000004 	streq	r0, [r0], -r4
     428:	01000005 	tsteq	r0, r5
     42c:	05445300 	strbeq	r5, [r4, #-768]	; 0xfffffd00
     430:	05560000 	ldrbeq	r0, [r6, #-0]
     434:	00010000 	andeq	r0, r1, r0
     438:	00056253 	andeq	r6, r5, r3, asr r2
     43c:	00056a00 	andeq	r6, r5, r0, lsl #20
     440:	53000100 	movwpl	r0, #256	; 0x100
	...
     44c:	00010000 	andeq	r0, r1, r0
	...
     46c:	00920000 	addseq	r0, r2, r0
     470:	00bc0000 	adcseq	r0, ip, r0
     474:	00010000 	andeq	r0, r1, r0
     478:	0000bc58 	andeq	fp, r0, r8, asr ip
     47c:	00011a00 	andeq	r1, r1, r0, lsl #20
     480:	50000100 	andpl	r0, r0, r0, lsl #2
     484:	0000011e 	andeq	r0, r0, lr, lsl r1
     488:	00000130 	andeq	r0, r0, r0, lsr r1
     48c:	30500001 	subscc	r0, r0, r1
     490:	84000001 	strhi	r0, [r0], #-1
     494:	01000001 	tsteq	r0, r1
     498:	01ae5a00 			; <UNDEFINED> instruction: 0x01ae5a00
     49c:	01c60000 	biceq	r0, r6, r0
     4a0:	00010000 	andeq	r0, r1, r0
     4a4:	00030e50 	andeq	r0, r3, r0, asr lr
     4a8:	00037000 	andeq	r7, r3, r0
     4ac:	50000100 	andpl	r0, r0, r0, lsl #2
     4b0:	00000388 	andeq	r0, r0, r8, lsl #7
     4b4:	000003be 			; <UNDEFINED> instruction: 0x000003be
     4b8:	c65a0001 	ldrbgt	r0, [sl], -r1
     4bc:	ca000003 	bgt	4d0 <_malloc_r+0x238>
     4c0:	01000003 	tsteq	r0, r3
     4c4:	03ec5000 	mvneq	r5, #0
     4c8:	03f80000 	mvnseq	r0, #0
     4cc:	00010000 	andeq	r0, r1, r0
     4d0:	00042650 	andeq	r2, r4, r0, asr r6
     4d4:	00045400 	andeq	r5, r4, r0, lsl #8
     4d8:	52000100 	andpl	r0, r0, #0, 2
     4dc:	00000454 	andeq	r0, r0, r4, asr r4
     4e0:	00000464 	andeq	r0, r0, r4, ror #8
     4e4:	6a5a0001 	bvs	16804f0 <_bsl_base_address+0x147e4f0>
     4e8:	78000004 	stmdavc	r0, {r2}
     4ec:	01000004 	tsteq	r0, r4
     4f0:	04985000 	ldreq	r5, [r8], #0
     4f4:	04a80000 	strteq	r0, [r8], #0
     4f8:	00010000 	andeq	r0, r1, r0
     4fc:	0004f250 	andeq	pc, r4, r0, asr r2	; <UNPREDICTABLE>
     500:	00050600 	andeq	r0, r5, r0, lsl #12
     504:	50000100 	andpl	r0, r0, r0, lsl #2
     508:	00000544 	andeq	r0, r0, r4, asr #10
     50c:	00000556 	andeq	r0, r0, r6, asr r5
     510:	62500001 	subsvs	r0, r0, #1
     514:	6a000005 	bvs	530 <_malloc_r+0x298>
     518:	01000005 	tsteq	r0, r5
     51c:	056a5000 	strbeq	r5, [sl, #-0]!
     520:	05740000 	ldrbeq	r0, [r4, #-0]!
     524:	00010000 	andeq	r0, r1, r0
     528:	00000052 	andeq	r0, r0, r2, asr r0
	...
     53c:	00009a00 	andeq	r9, r0, r0, lsl #20
     540:	0000c800 	andeq	ip, r0, r0, lsl #16
     544:	51000100 	mrspl	r0, (UNDEF: 16)
     548:	0000012c 	andeq	r0, r0, ip, lsr #2
     54c:	00000130 	andeq	r0, r0, r0, lsr r1
     550:	30590001 	subscc	r0, r9, r1
     554:	38000001 	stmdacc	r0, {r0}
     558:	01000001 	tsteq	r0, r1
     55c:	01385c00 	teqeq	r8, r0, lsl #24
     560:	013a0000 	teqeq	sl, r0
     564:	00010000 	andeq	r0, r1, r0
     568:	00013a53 	andeq	r3, r1, r3, asr sl
     56c:	00017d00 	andeq	r7, r1, r0, lsl #26
     570:	5c000100 	stfpls	f0, [r0], {-0}
     574:	00000388 	andeq	r0, r0, r8, lsl #7
     578:	000003b7 			; <UNDEFINED> instruction: 0x000003b7
     57c:	005c0001 	subseq	r0, ip, r1
	...
     588:	5a000000 	bpl	590 <_malloc_r+0x2f8>
     58c:	7d000001 	stcvc	0, cr0, [r0, #-4]
     590:	01000001 	tsteq	r0, r1
     594:	03ca5100 	biceq	r5, sl, #0, 2
     598:	03e00000 	mvneq	r0, #0
     59c:	00010000 	andeq	r0, r1, r0
     5a0:	00000050 	andeq	r0, r0, r0, asr r0
	...
     5ac:	00000001 	andeq	r0, r0, r1
	...
     5d8:	a4000000 	strge	r0, [r0], #-0
     5dc:	ae000000 	cdpge	0, 0, cr0, cr0, cr0, {0}
     5e0:	01000000 	mrseq	r0, (UNDEF: 0)
     5e4:	00b65200 	adcseq	r5, r6, r0, lsl #4
     5e8:	00bc0000 	adcseq	r0, ip, r0
     5ec:	00010000 	andeq	r0, r1, r0
     5f0:	0000d452 	andeq	sp, r0, r2, asr r4
     5f4:	0000ee00 	andeq	lr, r0, r0, lsl #28
     5f8:	51000100 	mrspl	r0, (UNDEF: 16)
     5fc:	000000ee 	andeq	r0, r0, lr, ror #1
     600:	000000f2 	strdeq	r0, [r0], -r2
     604:	00730006 	rsbseq	r0, r3, r6
     608:	9f1c0075 	svcls	0x001c0075
     60c:	000000f2 	strdeq	r0, [r0], -r2
     610:	00000112 	andeq	r0, r0, r2, lsl r1
     614:	00790006 	rsbseq	r0, r9, r6
     618:	9f1c0075 	svcls	0x001c0075
     61c:	0000013a 	andeq	r0, r0, sl, lsr r1
     620:	00000148 	andeq	r0, r0, r8, asr #2
     624:	50520001 	subspl	r0, r2, r1
     628:	7d000001 	stcvc	0, cr0, [r0, #-4]
     62c:	01000001 	tsteq	r0, r1
     630:	02f25200 	rscseq	r5, r2, #0, 4
     634:	02f80000 	rscseq	r0, r8, #0
     638:	00010000 	andeq	r0, r1, r0
     63c:	00030e53 	andeq	r0, r3, r3, asr lr
     640:	00031c00 	andeq	r1, r3, r0, lsl #24
     644:	51000100 	mrspl	r0, (UNDEF: 16)
     648:	0000031c 	andeq	r0, r0, ip, lsl r3
     64c:	00000324 	andeq	r0, r0, r4, lsr #6
     650:	00730006 	rsbseq	r0, r3, r6
     654:	9f1c0075 	svcls	0x001c0075
     658:	00000324 	andeq	r0, r0, r4, lsr #6
     65c:	00000370 	andeq	r0, r0, r0, ror r3
     660:	00790006 	rsbseq	r0, r9, r6
     664:	9f1c0075 	svcls	0x001c0075
     668:	000003a0 	andeq	r0, r0, r0, lsr #7
     66c:	000003a2 	andeq	r0, r0, r2, lsr #7
     670:	a2520001 	subsge	r0, r2, #1
     674:	a4000003 	strge	r0, [r0], #-3
     678:	06000003 	streq	r0, [r0], -r3
     67c:	75007300 	strvc	r7, [r0, #-768]	; 0xfffffd00
     680:	a49f1c00 	ldrge	r1, [pc], #3072	; 688 <_malloc_r+0x3f0>
     684:	ac000003 	stcge	0, cr0, [r0], {3}
     688:	0b000003 	bleq	69c <_malloc_r+0x404>
     68c:	20007800 	andcs	r7, r0, r0, lsl #16
     690:	1a060474 	bne	181868 <__data_load__+0x180a08>
     694:	9f1c0075 	svcls	0x001c0075
     698:	000003c6 	andeq	r0, r0, r6, asr #7
     69c:	000003e5 	andeq	r0, r0, r5, ror #7
     6a0:	ec510001 	mrrc	0, 0, r0, r1, cr1
     6a4:	f0000003 			; <UNDEFINED> instruction: 0xf0000003
     6a8:	01000003 	tsteq	r0, r3
     6ac:	03f05100 	mvnseq	r5, #0, 2
     6b0:	03f80000 	mvnseq	r0, #0
     6b4:	00060000 	andeq	r0, r6, r0
     6b8:	00750073 	rsbseq	r0, r5, r3, ror r0
     6bc:	04069f1c 	streq	r9, [r6], #-3868	; 0xfffff0e4
     6c0:	04100000 	ldreq	r0, [r0], #-0
     6c4:	00010000 	andeq	r0, r1, r0
     6c8:	00046a53 	andeq	r6, r4, r3, asr sl
     6cc:	00047800 	andeq	r7, r4, r0, lsl #16
     6d0:	79000600 	stmdbvc	r0, {r9, sl}
     6d4:	1c007500 	cfstr32ne	mvfx7, [r0], {-0}
     6d8:	0004989f 	muleq	r4, pc, r8	; <UNPREDICTABLE>
     6dc:	0004a000 	andeq	sl, r4, r0
     6e0:	51000100 	mrspl	r0, (UNDEF: 16)
     6e4:	000004a0 	andeq	r0, r0, r0, lsr #9
     6e8:	000004a8 	andeq	r0, r0, r8, lsr #9
     6ec:	00730006 	rsbseq	r0, r3, r6
     6f0:	9f1c0075 	svcls	0x001c0075
     6f4:	000004f2 	strdeq	r0, [r0], -r2
     6f8:	000004f4 	strdeq	r0, [r0], -r4
     6fc:	f4510001 			; <UNDEFINED> instruction: 0xf4510001
     700:	06000004 	streq	r0, [r0], -r4
     704:	06000005 	streq	r0, [r0], -r5
     708:	75007300 	strvc	r7, [r0, #-768]	; 0xfffffd00
     70c:	449f1c00 	ldrmi	r1, [pc], #3072	; 714 <_malloc_r+0x47c>
     710:	56000005 	strpl	r0, [r0], -r5
     714:	06000005 	streq	r0, [r0], -r5
     718:	75007300 	strvc	r7, [r0, #-768]	; 0xfffffd00
     71c:	629f1c00 	addsvs	r1, pc, #0, 24
     720:	6a000005 	bvs	73c <_malloc_r+0x4a4>
     724:	06000005 	streq	r0, [r0], -r5
     728:	75007300 	strvc	r7, [r0, #-768]	; 0xfffffd00
     72c:	009f1c00 	addseq	r1, pc, r0, lsl #24
	...
     73c:	f0000000 			; <UNDEFINED> instruction: 0xf0000000
     740:	f6000000 			; <UNDEFINED> instruction: 0xf6000000
     744:	01000000 	mrseq	r0, (UNDEF: 0)
     748:	00f65200 	rscseq	r5, r6, r0, lsl #4
     74c:	01080000 	mrseq	r0, (UNDEF: 8)
     750:	00050000 	andeq	r0, r5, r0
     754:	25330079 	ldrcs	r0, [r3, #-121]!	; 0xffffff87
     758:	0003229f 	muleq	r3, pc, r2	; <UNPREDICTABLE>
     75c:	00033a00 	andeq	r3, r3, r0, lsl #20
     760:	51000100 	mrspl	r0, (UNDEF: 16)
     764:	0000046a 	andeq	r0, r0, sl, ror #8
     768:	0000046c 	andeq	r0, r0, ip, ror #8
     76c:	00510001 	subseq	r0, r1, r1
	...
     778:	00000100 	andeq	r0, r0, r0, lsl #2
     77c:	00000000 	andeq	r0, r0, r0
     780:	00000100 	andeq	r0, r0, r0, lsl #2
     784:	00010e00 	andeq	r0, r1, r0, lsl #28
     788:	00011c00 	andeq	r1, r1, r0, lsl #24
     78c:	51000100 	mrspl	r0, (UNDEF: 16)
     790:	0000011e 	andeq	r0, r0, lr, lsl r1
     794:	0000015a 	andeq	r0, r0, sl, asr r1
     798:	c2510001 	subsgt	r0, r1, #1
     79c:	06000001 	streq	r0, [r0], -r1
     7a0:	01000002 	tsteq	r0, r2
     7a4:	03885100 	orreq	r5, r8, #0, 2
     7a8:	03a60000 			; <UNDEFINED> instruction: 0x03a60000
     7ac:	00010000 	andeq	r0, r1, r0
     7b0:	00042651 	andeq	r2, r4, r1, asr r6
     7b4:	00045a00 	andeq	r5, r4, r0, lsl #20
     7b8:	51000100 	mrspl	r0, (UNDEF: 16)
     7bc:	0000045c 	andeq	r0, r0, ip, asr r4
     7c0:	0000046a 	andeq	r0, r0, sl, ror #8
     7c4:	6a510001 	bvs	14407d0 <_bsl_base_address+0x123e7d0>
     7c8:	74000005 	strvc	r0, [r0], #-5
     7cc:	01000005 	tsteq	r0, r5
     7d0:	00005100 	andeq	r5, r0, r0, lsl #2
     7d4:	00000000 	andeq	r0, r0, r0
     7d8:	00020000 	andeq	r0, r2, r0
     7dc:	00000000 	andeq	r0, r0, r0
     7e0:	01260000 			; <UNDEFINED> instruction: 0x01260000
     7e4:	01560000 	cmpeq	r6, r0
     7e8:	00010000 	andeq	r0, r1, r0
     7ec:	00038850 	andeq	r8, r3, r0, asr r8
     7f0:	0003a800 	andeq	sl, r3, r0, lsl #16
     7f4:	50000100 	andpl	r0, r0, r0, lsl #2
     7f8:	00000426 	andeq	r0, r0, r6, lsr #8
     7fc:	00000462 	andeq	r0, r0, r2, ror #8
     800:	6a500001 	bvs	140080c <_bsl_base_address+0x11fe80c>
     804:	74000005 	strvc	r0, [r0], #-5
     808:	01000005 	tsteq	r0, r5
     80c:	00005000 	andeq	r5, r0, r0
     810:	00000000 	andeq	r0, r0, r0
     814:	02000000 	andeq	r0, r0, #0
     818:	00010002 	andeq	r0, r1, r2
	...
     824:	00000044 	andeq	r0, r0, r4, asr #32
     828:	00000048 	andeq	r0, r0, r8, asr #32
     82c:	00510001 	subseq	r0, r1, r1
     830:	08000001 	stmdaeq	r0, {r0}
     834:	01000001 	tsteq	r0, r1
     838:	01625100 	cmneq	r2, r0, lsl #2
     83c:	016a0000 	cmneq	sl, r0
     840:	00010000 	andeq	r0, r1, r0
     844:	00016a50 	andeq	r6, r1, r0, asr sl
     848:	00017000 	andeq	r7, r1, r0
     84c:	75000200 	strvc	r0, [r0, #-512]	; 0xfffffe00
     850:	00033008 	andeq	r3, r3, r8
     854:	00037000 	andeq	r7, r3, r0
     858:	52000100 	andpl	r0, r0, #0, 2
     85c:	000003b0 			; <UNDEFINED> instruction: 0x000003b0
     860:	000003b7 			; <UNDEFINED> instruction: 0x000003b7
     864:	6a520001 	bvs	1480870 <_bsl_base_address+0x127e870>
     868:	78000004 	stmdavc	r0, {r2}
     86c:	01000004 	tsteq	r0, r4
     870:	00005200 	andeq	r5, r0, r0, lsl #4
     874:	00000000 	andeq	r0, r0, r0
     878:	02000000 	andeq	r0, r0, #0
     87c:	00000001 	andeq	r0, r0, r1
	...
     888:	00420000 	subeq	r0, r2, r0
     88c:	00480000 	subeq	r0, r8, r0
     890:	00010000 	andeq	r0, r1, r0
     894:	00010052 	andeq	r0, r1, r2, asr r0
     898:	00010800 	andeq	r0, r1, r0, lsl #16
     89c:	79000e00 	stmdbvc	r0, {r9, sl, fp}
     8a0:	23253300 			; <UNDEFINED> instruction: 0x23253300
     8a4:	77243301 	strvc	r3, [r4, -r1, lsl #6]!
     8a8:	1c382200 	lfmne	f2, 4, [r8], #-0
     8ac:	0001629f 	muleq	r1, pc, r2	; <UNPREDICTABLE>
     8b0:	00018400 	andeq	r8, r1, r0, lsl #8
     8b4:	55000100 	strpl	r0, [r0, #-256]	; 0xffffff00
     8b8:	0000032c 	andeq	r0, r0, ip, lsr #6
     8bc:	0000034e 	andeq	r0, r0, lr, asr #6
     8c0:	4e5c0001 	cdpmi	0, 5, cr0, cr12, cr1, {0}
     8c4:	50000003 	andpl	r0, r0, r3
     8c8:	01000003 	tsteq	r0, r3
     8cc:	03505300 	cmpeq	r0, #0, 6
     8d0:	03700000 	cmneq	r0, #0
     8d4:	00010000 	andeq	r0, r1, r0
     8d8:	0003ae5c 	andeq	sl, r3, ip, asr lr
     8dc:	0003b700 	andeq	fp, r3, r0, lsl #14
     8e0:	53000100 	movwpl	r0, #256	; 0x100
     8e4:	0000046a 	andeq	r0, r0, sl, ror #8
     8e8:	00000478 	andeq	r0, r0, r8, ror r4
     8ec:	005c0001 	subseq	r0, ip, r1
	...
     8fc:	01010000 	mrseq	r0, (UNDEF: 1)
     900:	00000000 	andeq	r0, r0, r0
     904:	01010000 	mrseq	r0, (UNDEF: 1)
     908:	2c000000 	stccs	0, cr0, [r0], {-0}
     90c:	32000000 	andcc	r0, r0, #0
     910:	03000000 	movweq	r0, #0
     914:	9f787300 	svcls	0x00787300
     918:	00000032 	andeq	r0, r0, r2, lsr r0
     91c:	00000038 	andeq	r0, r0, r8, lsr r0
     920:	2c520001 	mrrccs	0, 0, r0, r2, cr1
     924:	84000001 	strhi	r0, [r0], #-1
     928:	01000001 	tsteq	r0, r1
     92c:	01a45900 			; <UNDEFINED> instruction: 0x01a45900
     930:	01a40000 			; <UNDEFINED> instruction: 0x01a40000
     934:	00010000 	andeq	r0, r1, r0
     938:	0001a452 	andeq	sl, r1, r2, asr r4
     93c:	0001ba00 	andeq	fp, r1, r0, lsl #20
     940:	53000100 	movwpl	r0, #256	; 0x100
     944:	00000388 	andeq	r0, r0, r8, lsl #7
     948:	000003be 			; <UNDEFINED> instruction: 0x000003be
     94c:	26590001 	ldrbcs	r0, [r9], -r1
     950:	2e000004 	cdpcs	0, 0, cr0, cr0, cr4, {0}
     954:	01000004 	tsteq	r0, r4
     958:	042e5900 	strteq	r5, [lr], #-2304	; 0xfffff700
     95c:	04340000 	ldrteq	r0, [r4], #-0
     960:	00030000 	andeq	r0, r3, r0
     964:	349f0879 	ldrcc	r0, [pc], #2169	; 96c <__call_exitprocs+0x4>
     968:	64000004 	strvs	r0, [r0], #-4
     96c:	01000004 	tsteq	r0, r4
     970:	056a5900 	strbeq	r5, [sl, #-2304]!	; 0xfffff700
     974:	05740000 	ldrbeq	r0, [r4, #-0]!
     978:	00010000 	andeq	r0, r1, r0
     97c:	00000059 	andeq	r0, r0, r9, asr r0
	...
     998:	00001800 	andeq	r1, r0, r0, lsl #16
     99c:	00002800 	andeq	r2, r0, r0, lsl #16
     9a0:	40000200 	andmi	r0, r0, r0, lsl #4
     9a4:	0000629f 	muleq	r0, pc, r2	; <UNPREDICTABLE>
     9a8:	00006f00 	andeq	r6, r0, r0, lsl #30
     9ac:	71000600 	tstvc	r0, r0, lsl #12
     9b0:	1af8090b 	bne	ffe02de4 <__stack+0xdfe0250c>
     9b4:	00006f9f 	muleq	r0, pc, pc	; <UNPREDICTABLE>
     9b8:	0000c800 	andeq	ip, r0, r0, lsl #16
     9bc:	f3000900 	vmls.i8	d0, d0, d0
     9c0:	0b235101 	bleq	8d4dcc <_bsl_base_address+0x6d2dcc>
     9c4:	9f1af809 	svcls	0x001af809
     9c8:	00000198 	muleq	r0, r8, r1
     9cc:	000001a4 	andeq	r0, r0, r4, lsr #3
     9d0:	01f30009 	mvnseq	r0, r9
     9d4:	090b2351 	stmdbeq	fp, {r0, r4, r6, r8, r9, sp}
     9d8:	709f1af8 			; <UNDEFINED> instruction: 0x709f1af8
     9dc:	88000003 	stmdahi	r0, {r0, r1}
     9e0:	09000003 	stmdbeq	r0, {r0, r1}
     9e4:	5101f300 	mrspl	pc, SP_irq	; <UNPREDICTABLE>
     9e8:	f8090b23 			; <UNDEFINED> instruction: 0xf8090b23
     9ec:	03be9f1a 			; <UNDEFINED> instruction: 0x03be9f1a
     9f0:	03c60000 	biceq	r0, r6, #0
     9f4:	00090000 	andeq	r0, r9, r0
     9f8:	235101f3 	cmpcs	r1, #-1073741764	; 0xc000003c
     9fc:	1af8090b 	bne	ffe02e30 <__stack+0xdfe02558>
     a00:	00041a9f 	muleq	r4, pc, sl	; <UNPREDICTABLE>
     a04:	00042600 	andeq	r2, r4, r0, lsl #12
     a08:	f3000900 	vmls.i8	d0, d0, d0
     a0c:	0b235101 	bleq	8d4e18 <_bsl_base_address+0x6d2e18>
     a10:	9f1af809 	svcls	0x001af809
     a14:	000004a8 	andeq	r0, r0, r8, lsr #9
     a18:	000004be 			; <UNDEFINED> instruction: 0x000004be
     a1c:	01f30009 	mvnseq	r0, r9
     a20:	090b2351 	stmdbeq	fp, {r0, r4, r6, r8, r9, sp}
     a24:	069f1af8 			; <UNDEFINED> instruction: 0x069f1af8
     a28:	1a000005 	bne	a44 <__call_exitprocs+0xdc>
     a2c:	09000005 	stmdbeq	r0, {r0, r2}
     a30:	5101f300 	mrspl	pc, SP_irq	; <UNPREDICTABLE>
     a34:	f8090b23 			; <UNDEFINED> instruction: 0xf8090b23
     a38:	05569f1a 	ldrbeq	r9, [r6, #-3866]	; 0xfffff0e6
     a3c:	05620000 	strbeq	r0, [r2, #-0]!
     a40:	00090000 	andeq	r0, r9, r0
     a44:	235101f3 	cmpcs	r1, #-1073741764	; 0xc000003c
     a48:	1af8090b 	bne	ffe02e7c <__stack+0xdfe025a4>
     a4c:	0000009f 	muleq	r0, pc, r0	; <UNPREDICTABLE>
     a50:	00000000 	andeq	r0, r0, r0
     a54:	00000100 	andeq	r0, r0, r0, lsl #2
     a58:	00000001 	andeq	r0, r0, r1
     a5c:	00020000 	andeq	r0, r2, r0
     a60:	0001dc00 	andeq	sp, r1, r0, lsl #24
     a64:	0002f200 	andeq	pc, r2, r0, lsl #4
     a68:	56000100 	strpl	r0, [r0], -r0, lsl #2
     a6c:	000003f8 	strdeq	r0, [r0], -r8
     a70:	00000400 	andeq	r0, r0, r0, lsl #8
     a74:	64560001 	ldrbvs	r0, [r6], #-1
     a78:	6a000004 	bvs	a90 <_malloc_trim_r+0x48>
     a7c:	01000004 	tsteq	r0, r4
     a80:	04785600 	ldrbteq	r5, [r8], #-1536	; 0xfffffa00
     a84:	04980000 	ldreq	r0, [r8], #0
     a88:	00010000 	andeq	r0, r1, r0
     a8c:	0004be56 	andeq	fp, r4, r6, asr lr
     a90:	0004f000 	andeq	pc, r4, r0
     a94:	56000100 	strpl	r0, [r0], -r0, lsl #2
     a98:	0000051a 	andeq	r0, r0, sl, lsl r5
     a9c:	00000544 	andeq	r0, r0, r4, asr #10
     aa0:	00560001 	subseq	r0, r6, r1
	...
     ab8:	00010000 	andeq	r0, r1, r0
	...
     ac4:	0e000002 	cdpeq	0, 0, cr0, cr0, cr2, {0}
     ac8:	20000002 	andcs	r0, r0, r2
     acc:	01000002 	tsteq	r0, r2
     ad0:	02205000 	eoreq	r5, r0, #0
     ad4:	025c0000 	subseq	r0, ip, #0
     ad8:	00010000 	andeq	r0, r1, r0
     adc:	00025c58 	andeq	r5, r2, r8, asr ip
     ae0:	00026600 	andeq	r6, r2, r0, lsl #12
     ae4:	51000100 	mrspl	r0, (UNDEF: 16)
     ae8:	00000268 	andeq	r0, r0, r8, ror #4
     aec:	000002ac 	andeq	r0, r0, ip, lsr #5
     af0:	ac580001 	mrrcge	0, 0, r0, r8, cr1
     af4:	b6000002 	strlt	r0, [r0], -r2
     af8:	01000002 	tsteq	r0, r2
     afc:	02b65000 	adcseq	r5, r6, #0
     b00:	02f20000 	rscseq	r0, r2, #0
     b04:	00010000 	andeq	r0, r1, r0
     b08:	0003f858 	andeq	pc, r3, r8, asr r8	; <UNPREDICTABLE>
     b0c:	00040000 	andeq	r0, r4, r0
     b10:	50000100 	andpl	r0, r0, r0, lsl #2
     b14:	00000400 	andeq	r0, r0, r0, lsl #8
     b18:	00000400 	andeq	r0, r0, r0, lsl #8
     b1c:	78580001 	ldmdavc	r8, {r0}^
     b20:	86000004 	strhi	r0, [r0], -r4
     b24:	01000004 	tsteq	r0, r4
     b28:	04865100 	streq	r5, [r6], #256	; 0x100
     b2c:	04980000 	ldreq	r0, [r8], #0
     b30:	00010000 	andeq	r0, r1, r0
     b34:	0004be58 	andeq	fp, r4, r8, asr lr
     b38:	0004ce00 	andeq	ip, r4, r0, lsl #28
     b3c:	50000100 	andpl	r0, r0, r0, lsl #2
     b40:	000004ce 	andeq	r0, r0, lr, asr #9
     b44:	000004ea 	andeq	r0, r0, sl, ror #9
     b48:	ea580001 	b	1600b54 <_bsl_base_address+0x13feb54>
     b4c:	f0000004 			; <UNDEFINED> instruction: 0xf0000004
     b50:	01000004 	tsteq	r0, r4
     b54:	051a5000 	ldreq	r5, [sl, #-0]
     b58:	05440000 	strbeq	r0, [r4, #-0]
     b5c:	00010000 	andeq	r0, r1, r0
     b60:	00000058 	andeq	r0, r0, r8, asr r0
	...
     b70:	00020000 	andeq	r0, r2, r0
     b74:	00025600 	andeq	r5, r2, r0, lsl #12
     b78:	00027d00 	andeq	r7, r2, r0, lsl #26
     b7c:	52000100 	andpl	r0, r0, #0, 2
     b80:	0000027d 	andeq	r0, r0, sp, ror r2
     b84:	000002d6 	ldrdeq	r0, [r0], -r6
     b88:	54910002 	ldrpl	r0, [r1], #2
     b8c:	00000478 	andeq	r0, r0, r8, ror r4
     b90:	0000048b 	andeq	r0, r0, fp, lsl #9
     b94:	8b520001 	blhi	1480ba0 <_bsl_base_address+0x127eba0>
     b98:	98000004 	stmdals	r0, {r2}
     b9c:	02000004 	andeq	r0, r0, #4
     ba0:	ea549100 	b	1524fa8 <_bsl_base_address+0x1322fa8>
     ba4:	f0000004 			; <UNDEFINED> instruction: 0xf0000004
     ba8:	02000004 	andeq	r0, r0, #4
     bac:	1a549100 	bne	1524fb4 <_bsl_base_address+0x1322fb4>
     bb0:	44000005 	strmi	r0, [r0], #-5
     bb4:	02000005 	andeq	r0, r0, #5
     bb8:	00549100 	subseq	r9, r4, r0, lsl #2
     bbc:	00000000 	andeq	r0, r0, r0
     bc0:	01000000 	mrseq	r0, (UNDEF: 0)
     bc4:	00000000 	andeq	r0, r0, r0
     bc8:	01010000 	mrseq	r0, (UNDEF: 1)
     bcc:	00000000 	andeq	r0, r0, r0
     bd0:	01000000 	mrseq	r0, (UNDEF: 0)
     bd4:	00025c00 	andeq	r5, r2, r0, lsl #24
     bd8:	00027400 	andeq	r7, r2, r0, lsl #8
     bdc:	38000500 	stmdacc	r0, {r8, sl}
     be0:	9f1c0072 	svcls	0x001c0072
     be4:	00000274 	andeq	r0, r0, r4, ror r2
     be8:	00000278 	andeq	r0, r0, r8, ror r2
     bec:	080a000e 	stmdaeq	sl, {r1, r2, r3}
     bf0:	1c007210 	sfmne	f7, 4, [r0], {16}
     bf4:	ff0a0071 			; <UNDEFINED> instruction: 0xff0a0071
     bf8:	9f1c1a0f 	svcls	0x001c1a0f
     bfc:	00000278 	andeq	r0, r0, r8, ror r2
     c00:	0000027a 	andeq	r0, r0, sl, ror r2
     c04:	080a000f 	stmdaeq	sl, {r0, r1, r2, r3}
     c08:	1c007210 	sfmne	f7, 4, [r0], {16}
     c0c:	0a06007d 	beq	180e08 <__data_load__+0x17ffa8>
     c10:	1c1a0fff 	ldcne	15, cr0, [sl], {255}	; 0xff
     c14:	0004789f 	muleq	r4, pc, r8	; <UNPREDICTABLE>
     c18:	00047800 	andeq	r7, r4, r0, lsl #16
     c1c:	30000200 	andcc	r0, r0, r0, lsl #4
     c20:	0004789f 	muleq	r4, pc, r8	; <UNPREDICTABLE>
     c24:	00048600 	andeq	r8, r4, r0, lsl #12
     c28:	0a000f00 	beq	4830 <__data_load__+0x39d0>
     c2c:	00711000 	rsbseq	r1, r1, r0
     c30:	2206007d 	andcs	r0, r6, #125	; 0x7d
     c34:	1a0fff0a 	bne	400864 <_bsl_base_address+0x1fe864>
     c38:	04869f1c 	streq	r9, [r6], #3868	; 0xf1c
     c3c:	04880000 	streq	r0, [r8], #0
     c40:	000f0000 	andeq	r0, pc, r0
     c44:	7810000a 	ldmdavc	r0, {r1, r3}
     c48:	06007d00 	streq	r7, [r0], -r0, lsl #26
     c4c:	0fff0a22 	svceq	0x00ff0a22
     c50:	889f1c1a 	ldmhi	pc, {r1, r3, r4, sl, fp, ip}	; <UNPREDICTABLE>
     c54:	8b000004 	blhi	c6c <_free_r+0x188>
     c58:	01000004 	tsteq	r0, r4
     c5c:	048b5100 	streq	r5, [fp], #256	; 0x100
     c60:	04920000 	ldreq	r0, [r2], #0
     c64:	00010000 	andeq	r0, r1, r0
     c68:	00051a5b 	andeq	r1, r5, fp, asr sl
     c6c:	00053000 	andeq	r3, r5, r0
     c70:	30000200 	andcc	r0, r0, r0, lsl #4
     c74:	0000009f 	muleq	r0, pc, r0	; <UNPREDICTABLE>
     c78:	00000000 	andeq	r0, r0, r0
     c7c:	00000600 	andeq	r0, r0, r0, lsl #12
	...
     c88:	dc000202 	sfmle	f0, 4, [r0], {2}
     c8c:	8e000001 	cdphi	0, 0, cr0, cr0, cr1, {0}
     c90:	02000002 	andeq	r0, r0, #2
     c94:	f89f3000 			; <UNDEFINED> instruction: 0xf89f3000
     c98:	00000003 	andeq	r0, r0, r3
     c9c:	02000004 	andeq	r0, r0, #4
     ca0:	649f3000 	ldrvs	r3, [pc], #0	; ca8 <cleanup_glue>
     ca4:	6a000004 	bvs	cbc <cleanup_glue+0x14>
     ca8:	02000004 	andeq	r0, r0, #4
     cac:	789f3000 	ldmvc	pc, {ip, sp}	; <UNPREDICTABLE>
     cb0:	98000004 	stmdals	r0, {r2}
     cb4:	02000004 	andeq	r0, r0, #4
     cb8:	be9f3000 	cdplt	0, 9, cr3, cr15, cr0, {0}
     cbc:	ea000004 	b	cd4 <cleanup_glue+0x2c>
     cc0:	02000004 	andeq	r0, r0, #4
     cc4:	1a9f3000 	bne	fe7ccccc <__stack+0xde7cc3f4>
     cc8:	1a000005 	bne	ce4 <cleanup_glue+0x3c>
     ccc:	02000005 	andeq	r0, r0, #5
     cd0:	1a9f3000 	bne	fe7cccd8 <__stack+0xde7cc400>
     cd4:	30000005 	andcc	r0, r0, r5
     cd8:	02000005 	andeq	r0, r0, #5
     cdc:	009f3100 	addseq	r3, pc, r0, lsl #2
	...
     cec:	05050303 	streq	r0, [r5, #-771]	; 0xfffffcfd
     cf0:	7e000000 	cdpvc	0, 0, cr0, cr0, cr0, {0}
     cf4:	88000002 	stmdahi	r0, {r1}
     cf8:	01000002 	tsteq	r0, r2
     cfc:	048c5000 	streq	r5, [ip], #0
     d00:	04980000 	ldreq	r0, [r8], #0
     d04:	00010000 	andeq	r0, r1, r0
     d08:	00051a50 	andeq	r1, r5, r0, asr sl
     d0c:	00051a00 	andeq	r1, r5, r0, lsl #20
     d10:	50000100 	andpl	r0, r0, r0, lsl #2
     d14:	0000051a 	andeq	r0, r0, sl, lsl r5
     d18:	0000051a 	andeq	r0, r0, sl, lsl r5
     d1c:	007d0002 	rsbseq	r0, sp, r2
     d20:	0000051a 	andeq	r0, r0, sl, lsl r5
     d24:	0000052a 	andeq	r0, r0, sl, lsr #10
     d28:	007d000a 	rsbseq	r0, sp, sl
     d2c:	06549106 	ldrbeq	r9, [r4], -r6, lsl #2
     d30:	9f1c3822 	svcls	0x001c3822
     d34:	0000052a 	andeq	r0, r0, sl, lsr #10
     d38:	00000530 	andeq	r0, r0, r0, lsr r5
     d3c:	007c0009 	rsbseq	r0, ip, r9
     d40:	22065491 	andcs	r5, r6, #-1862270976	; 0x91000000
     d44:	009f1c38 	addseq	r1, pc, r8, lsr ip	; <UNPREDICTABLE>
     d48:	00000000 	andeq	r0, r0, r0
     d4c:	01000000 	mrseq	r0, (UNDEF: 0)
     d50:	00000000 	andeq	r0, r0, r0
     d54:	0004d400 	andeq	sp, r4, r0, lsl #8
     d58:	0004da00 	andeq	sp, r4, r0, lsl #20
     d5c:	79000600 	stmdbvc	r0, {r9, sl}
     d60:	22007000 	andcs	r7, r0, #0
     d64:	0004da9f 	muleq	r4, pc, sl	; <UNPREDICTABLE>
     d68:	0004de00 	andeq	sp, r4, r0, lsl #28
     d6c:	52000100 	andpl	r0, r0, #0, 2
     d70:	000004de 	ldrdeq	r0, [r0], -lr
     d74:	000004e2 	andeq	r0, r0, r2, ror #9
     d78:	00790006 	rsbseq	r0, r9, r6
     d7c:	9f220070 	svcls	0x00220070
	...
     d88:	00000009 	andeq	r0, r0, r9
	...
     d94:	00000200 	andeq	r0, r0, r0, lsl #4
     d98:	000001dc 	ldrdeq	r0, [r0], -ip
     d9c:	000002d4 	ldrdeq	r0, [r0], -r4
     da0:	f8540001 			; <UNDEFINED> instruction: 0xf8540001
     da4:	fe000003 	cdp2	0, 0, cr0, cr0, cr3, {0}
     da8:	01000003 	tsteq	r0, r3
     dac:	04645400 	strbteq	r5, [r4], #-1024	; 0xfffffc00
     db0:	046a0000 	strbteq	r0, [sl], #-0
     db4:	00010000 	andeq	r0, r1, r0
     db8:	00047854 	andeq	r7, r4, r4, asr r8
     dbc:	00049800 	andeq	r9, r4, r0, lsl #16
     dc0:	54000100 	strpl	r0, [r0], #-256	; 0xffffff00
     dc4:	000004be 			; <UNDEFINED> instruction: 0x000004be
     dc8:	000004d8 	ldrdeq	r0, [r0], -r8
     dcc:	e2540001 	subs	r0, r4, #1
     dd0:	ec000004 	stc	0, cr0, [r0], {4}
     dd4:	01000004 	tsteq	r0, r4
     dd8:	04ee5400 	strbteq	r5, [lr], #1024	; 0x400
     ddc:	04f00000 	ldrbteq	r0, [r0], #0
     de0:	00010000 	andeq	r0, r1, r0
     de4:	00051a54 	andeq	r1, r5, r4, asr sl
     de8:	00053e00 	andeq	r3, r5, r0, lsl #28
     dec:	54000100 	strpl	r0, [r0], #-256	; 0xffffff00
	...
     df8:	0000000a 	andeq	r0, r0, sl
	...
     e0c:	00000200 	andeq	r0, r0, r0, lsl #4
     e10:	00000000 	andeq	r0, r0, r0
     e14:	000001dc 	ldrdeq	r0, [r0], -ip
     e18:	000001e2 	andeq	r0, r0, r2, ror #3
     e1c:	e2520001 	subs	r0, r2, #1
     e20:	b4000001 	strlt	r0, [r0], #-1
     e24:	01000002 	tsteq	r0, r2
     e28:	02b45900 	adcseq	r5, r4, #0, 18
     e2c:	02b80000 	adcseq	r0, r8, #0
     e30:	00010000 	andeq	r0, r1, r0
     e34:	0002b852 	andeq	fp, r2, r2, asr r8
     e38:	0002ba00 	andeq	fp, r2, r0, lsl #20
     e3c:	59000100 	stmdbpl	r0, {r8}
     e40:	000002ba 			; <UNDEFINED> instruction: 0x000002ba
     e44:	000002d2 	ldrdeq	r0, [r0], -r2
     e48:	d2520001 	subsle	r0, r2, #1
     e4c:	d6000002 	strle	r0, [r0], -r2
     e50:	06000002 	streq	r0, [r0], -r2
     e54:	09747900 	ldmdbeq	r4!, {r8, fp, ip, sp, lr}^
     e58:	f89f1af8 			; <UNDEFINED> instruction: 0xf89f1af8
     e5c:	00000003 	andeq	r0, r0, r3
     e60:	01000004 	tsteq	r0, r4
     e64:	04645900 	strbteq	r5, [r4], #-2304	; 0xfffff700
     e68:	046a0000 	strbteq	r0, [sl], #-0
     e6c:	00010000 	andeq	r0, r1, r0
     e70:	00047859 	andeq	r7, r4, r9, asr r8
     e74:	00049800 	andeq	r9, r4, r0, lsl #16
     e78:	59000100 	stmdbpl	r0, {r8}
     e7c:	000004be 			; <UNDEFINED> instruction: 0x000004be
     e80:	000004ee 	andeq	r0, r0, lr, ror #9
     e84:	ee590001 	cdp	0, 5, cr0, cr9, cr1, {0}
     e88:	f0000004 			; <UNDEFINED> instruction: 0xf0000004
     e8c:	01000004 	tsteq	r0, r4
     e90:	051a5200 	ldreq	r5, [sl, #-512]	; 0xfffffe00
     e94:	05300000 	ldreq	r0, [r0, #-0]!
     e98:	00010000 	andeq	r0, r1, r0
     e9c:	00053059 	andeq	r3, r5, r9, asr r0
     ea0:	00053900 	andeq	r3, r5, r0, lsl #18
     ea4:	52000100 	andpl	r0, r0, #0, 2
     ea8:	00000539 	andeq	r0, r0, r9, lsr r5
     eac:	00000544 	andeq	r0, r0, r4, asr #10
     eb0:	74790006 	ldrbtvc	r0, [r9], #-6
     eb4:	9f1af809 	svcls	0x001af809
	...
     ed4:	00000200 	andeq	r0, r0, r0, lsl #4
     ed8:	000001e4 	andeq	r0, r0, r4, ror #3
     edc:	000001e6 	andeq	r0, r0, r6, ror #3
     ee0:	e6530001 	ldrb	r0, [r3], -r1
     ee4:	56000001 	strpl	r0, [r0], -r1
     ee8:	02000002 	andeq	r0, r0, #2
     eec:	56549100 	ldrbpl	r9, [r4], -r0, lsl #2
     ef0:	b4000002 	strlt	r0, [r0], #-2
     ef4:	06000002 	streq	r0, [r0], -r2
     ef8:	79007400 	stmdbvc	r0, {sl, ip, sp, lr}
     efc:	b49f2200 	ldrlt	r2, [pc], #512	; f04 <__data_load__+0xa4>
     f00:	b8000002 	stmdalt	r0, {r1}
     f04:	06000002 	streq	r0, [r0], -r2
     f08:	72007400 	andvc	r7, r0, #0, 8
     f0c:	b89f2200 	ldmlt	pc, {r9, sp}	; <UNPREDICTABLE>
     f10:	d4000002 	strle	r0, [r0], #-2
     f14:	06000002 	streq	r0, [r0], -r2
     f18:	79007400 	stmdbvc	r0, {sl, ip, sp, lr}
     f1c:	f89f2200 			; <UNDEFINED> instruction: 0xf89f2200
     f20:	00000003 	andeq	r0, r0, r3
     f24:	02000004 	andeq	r0, r0, #4
     f28:	64549100 	ldrbvs	r9, [r4], #-256	; 0xffffff00
     f2c:	6a000004 	bvs	f44 <__data_load__+0xe4>
     f30:	02000004 	andeq	r0, r0, #4
     f34:	78549100 	ldmdavc	r4, {r8, ip, pc}^
     f38:	98000004 	stmdals	r0, {r2}
     f3c:	06000004 	streq	r0, [r0], -r4
     f40:	79007400 	stmdbvc	r0, {sl, ip, sp, lr}
     f44:	be9f2200 	cdplt	2, 9, cr2, cr15, cr0, {0}
     f48:	ea000004 	b	f60 <__data_load__+0x100>
     f4c:	02000004 	andeq	r0, r0, #4
     f50:	ea549100 	b	1525358 <_bsl_base_address+0x1323358>
     f54:	ec000004 	stc	0, cr0, [r0], {4}
     f58:	06000004 	streq	r0, [r0], -r4
     f5c:	79007400 	stmdbvc	r0, {sl, ip, sp, lr}
     f60:	ee9f2200 	cdp	2, 9, cr2, cr15, cr0, {0}
     f64:	f0000004 			; <UNDEFINED> instruction: 0xf0000004
     f68:	06000004 	streq	r0, [r0], -r4
     f6c:	72007400 	andvc	r7, r0, #0, 8
     f70:	1a9f2200 	bne	fe7c9778 <__stack+0xde7c8ea0>
     f74:	3e000005 	cdpcc	0, 0, cr0, cr0, cr5, {0}
     f78:	06000005 	streq	r0, [r0], -r5
     f7c:	79007400 	stmdbvc	r0, {sl, ip, sp, lr}
     f80:	009f2200 	addseq	r2, pc, r0, lsl #4
	...
     f9c:	0001f000 	andeq	pc, r1, r0
     fa0:	0001fc00 	andeq	pc, r1, r0, lsl #24
     fa4:	73000300 	movwvc	r0, #768	; 0x300
     fa8:	01fc9f10 	mvnseq	r9, r0, lsl pc
     fac:	01fe0000 	mvnseq	r0, r0
     fb0:	00040000 	andeq	r0, r4, r0
     fb4:	9f608173 	svcls	0x00608173
     fb8:	000001fe 	strdeq	r0, [r0], -lr
     fbc:	00000202 	andeq	r0, r0, r2, lsl #4
     fc0:	0075000c 	rsbseq	r0, r5, ip
     fc4:	00089803 	andeq	r9, r8, r3, lsl #16
     fc8:	23220620 			; <UNDEFINED> instruction: 0x23220620
     fcc:	02029f10 	andeq	r9, r2, #16, 30	; 0x40
     fd0:	02740000 	rsbseq	r0, r4, #0
     fd4:	00020000 	andeq	r0, r2, r0
     fd8:	03f8007d 	mvnseq	r0, #125	; 0x7d
     fdc:	04000000 	streq	r0, [r0], #-0
     fe0:	00020000 	andeq	r0, r2, r0
     fe4:	0464007d 	strbteq	r0, [r4], #-125	; 0xffffff83
     fe8:	04660000 	strbteq	r0, [r6], #-0
     fec:	00030000 	andeq	r0, r3, r0
     ff0:	669f1073 			; <UNDEFINED> instruction: 0x669f1073
     ff4:	6a000004 	bvs	100c <__data_load__+0x1ac>
     ff8:	01000004 	tsteq	r0, r4
     ffc:	04785300 	ldrbteq	r5, [r8], #-768	; 0xfffffd00
    1000:	04980000 	ldreq	r0, [r8], #0
    1004:	00020000 	andeq	r0, r2, r0
    1008:	04be007d 	ldrteq	r0, [lr], #125	; 0x7d
    100c:	04ea0000 	strbteq	r0, [sl], #0
    1010:	00020000 	andeq	r0, r2, r0
    1014:	0000007d 	andeq	r0, r0, sp, ror r0
    1018:	00000000 	andeq	r0, r0, r0
    101c:	00010000 	andeq	r0, r1, r0
	...
    1028:	01f00000 	mvnseq	r0, r0
    102c:	02f20000 	rscseq	r0, r2, #0
    1030:	00040000 	andeq	r0, r4, r0
    1034:	9f10000a 	svcls	0x0010000a
    1038:	000003f8 	strdeq	r0, [r0], -r8
    103c:	0000041a 	andeq	r0, r0, sl, lsl r4
    1040:	000a0004 	andeq	r0, sl, r4
    1044:	04649f10 	strbteq	r9, [r4], #-3856	; 0xfffff0f0
    1048:	046a0000 	strbteq	r0, [sl], #-0
    104c:	00040000 	andeq	r0, r4, r0
    1050:	9f10000a 	svcls	0x0010000a
    1054:	00000478 	andeq	r0, r0, r8, ror r4
    1058:	00000498 	muleq	r0, r8, r4
    105c:	000a0004 	andeq	r0, sl, r4
    1060:	04be9f10 	ldrteq	r9, [lr], #3856	; 0xf10
    1064:	04f20000 	ldrbteq	r0, [r2], #0
    1068:	00040000 	andeq	r0, r4, r0
    106c:	9f10000a 	svcls	0x0010000a
    1070:	0000051a 	andeq	r0, r0, sl, lsl r5
    1074:	00000544 	andeq	r0, r0, r4, asr #10
    1078:	000a0004 	andeq	r0, sl, r4
    107c:	00009f10 	andeq	r9, r0, r0, lsl pc
	...
    1090:	00000090 	muleq	r0, r0, r0
    1094:	90510001 	subsls	r0, r1, r1
    1098:	9c000000 	stcls	0, cr0, [r0], {-0}
    109c:	04000000 	streq	r0, [r0], #-0
    10a0:	5101f300 	mrspl	pc, SP_irq	; <UNPREDICTABLE>
    10a4:	00009c9f 	muleq	r0, pc, ip	; <UNPREDICTABLE>
    10a8:	0000a600 	andeq	sl, r0, r0, lsl #12
    10ac:	51000100 	mrspl	r0, (UNDEF: 16)
	...
    10bc:	00010000 	andeq	r0, r1, r0
    10c0:	00000000 	andeq	r0, r0, r0
    10c4:	00010100 	andeq	r0, r1, r0, lsl #2
	...
    10d0:	000a0000 	andeq	r0, sl, r0
    10d4:	00010000 	andeq	r0, r1, r0
    10d8:	00000a52 	andeq	r0, r0, r2, asr sl
    10dc:	00001600 	andeq	r1, r0, r0, lsl #12
    10e0:	54000100 	strpl	r0, [r0], #-256	; 0xffffff00
    10e4:	00000016 	andeq	r0, r0, r6, lsl r0
    10e8:	0000001c 	andeq	r0, r0, ip, lsl r0
    10ec:	7f740003 	svcvc	0x00740003
    10f0:	00001c9f 	muleq	r0, pc, ip	; <UNPREDICTABLE>
    10f4:	00002400 	andeq	r2, r0, r0, lsl #8
    10f8:	74000300 	strvc	r0, [r0], #-768	; 0xfffffd00
    10fc:	00649f7f 	rsbeq	r9, r4, pc, ror pc
    1100:	006c0000 	rsbeq	r0, ip, r0
    1104:	00010000 	andeq	r0, r1, r0
    1108:	00007a57 	andeq	r7, r0, r7, asr sl
    110c:	00007c00 	andeq	r7, r0, r0, lsl #24
    1110:	73000900 	movwvc	r0, #2304	; 0x900
    1114:	22007700 	andcs	r7, r0, #0, 14
    1118:	9f1c0072 	svcls	0x001c0072
    111c:	0000007c 	andeq	r0, r0, ip, ror r0
    1120:	0000007c 	andeq	r0, r0, ip, ror r0
    1124:	0073000b 	rsbseq	r0, r3, fp
    1128:	771c0072 			; <UNDEFINED> instruction: 0x771c0072
    112c:	04232200 	strteq	r2, [r3], #-512	; 0xfffffe00
    1130:	00007c9f 	muleq	r0, pc, ip	; <UNPREDICTABLE>
    1134:	00008600 	andeq	r8, r0, r0, lsl #12
    1138:	73000900 	movwvc	r0, #2304	; 0x900
    113c:	22007700 	andcs	r7, r0, #0, 14
    1140:	9f1c0072 	svcls	0x001c0072
    1144:	00000086 	andeq	r0, r0, r6, lsl #1
    1148:	00000088 	andeq	r0, r0, r8, lsl #1
    114c:	0073000c 	rsbseq	r0, r3, ip
    1150:	761c0072 			; <UNDEFINED> instruction: 0x761c0072
    1154:	00772200 	rsbseq	r2, r7, r0, lsl #4
    1158:	00889f22 	addeq	r9, r8, r2, lsr #30
    115c:	008a0000 	addeq	r0, sl, r0
    1160:	00090000 	andeq	r0, r9, r0
    1164:	00770073 	rsbseq	r0, r7, r3, ror r0
    1168:	1c007222 	sfmne	f7, 4, [r0], {34}	; 0x22
    116c:	00009c9f 	muleq	r0, pc, ip	; <UNPREDICTABLE>
    1170:	0000a200 	andeq	sl, r0, r0, lsl #4
    1174:	52000100 	andpl	r0, r0, #0, 2
	...
    1180:	00000002 	andeq	r0, r0, r2
    1184:	00020201 	andeq	r0, r2, r1, lsl #4
    1188:	01000000 	mrseq	r0, (UNDEF: 0)
    118c:	00000001 	andeq	r0, r0, r1
    1190:	00000000 	andeq	r0, r0, r0
    1194:	00160000 	andseq	r0, r6, r0
    1198:	00010000 	andeq	r0, r1, r0
    119c:	00001650 	andeq	r1, r0, r0, asr r6
    11a0:	00001c00 	andeq	r1, r0, r0, lsl #24
    11a4:	53000100 	movwpl	r0, #256	; 0x100
    11a8:	0000001c 	andeq	r0, r0, ip, lsl r0
    11ac:	0000001c 	andeq	r0, r0, ip, lsl r0
    11b0:	1c530001 	mrrcne	0, 0, r0, r3, cr1
    11b4:	1e000000 	cdpne	0, 0, cr0, cr0, cr0, {0}
    11b8:	03000000 	movweq	r0, #0
    11bc:	9f017300 	svcls	0x00017300
    11c0:	0000001e 	andeq	r0, r0, lr, lsl r0
    11c4:	00000024 	andeq	r0, r0, r4, lsr #32
    11c8:	8a530001 	bhi	14c11d4 <_bsl_base_address+0x12bf1d4>
    11cc:	92000000 	andls	r0, r0, #0
    11d0:	01000000 	mrseq	r0, (UNDEF: 0)
    11d4:	00925300 	addseq	r5, r2, r0, lsl #6
    11d8:	00960000 	addseq	r0, r6, r0
    11dc:	00030000 	andeq	r0, r3, r0
    11e0:	969f0173 			; <UNDEFINED> instruction: 0x969f0173
    11e4:	9a000000 	bls	11ec <__data_load__+0x38c>
    11e8:	01000000 	mrseq	r0, (UNDEF: 0)
    11ec:	009c5300 	addseq	r5, ip, r0, lsl #6
    11f0:	00a20000 	adceq	r0, r2, r0
    11f4:	00010000 	andeq	r0, r1, r0
    11f8:	00000050 	andeq	r0, r0, r0, asr r0
    11fc:	00000000 	andeq	r0, r0, r0
    1200:	00000100 	andeq	r0, r0, r0, lsl #2
    1204:	00003400 	andeq	r3, r0, r0, lsl #8
    1208:	00008a00 	andeq	r8, r0, r0, lsl #20
    120c:	08000300 	stmdaeq	r0, {r8, r9}
    1210:	00a29f20 	adceq	r9, r2, r0, lsr #30
    1214:	00a60000 	adceq	r0, r6, r0
    1218:	00030000 	andeq	r0, r3, r0
    121c:	009f2008 	addseq	r2, pc, r8
	...
    1228:	30000000 	andcc	r0, r0, r0
    122c:	8a000000 	bhi	1234 <__data_load__+0x3d4>
    1230:	01000000 	mrseq	r0, (UNDEF: 0)
    1234:	00a25500 	adceq	r5, r2, r0, lsl #10
    1238:	00a60000 	adceq	r0, r6, r0
    123c:	00010000 	andeq	r0, r1, r0
    1240:	00000055 	andeq	r0, r0, r5, asr r0
    1244:	00000000 	andeq	r0, r0, r0
    1248:	01000100 	mrseq	r0, (UNDEF: 16)
    124c:	01010101 	tsteq	r1, r1, lsl #2
    1250:	00000101 	andeq	r0, r0, r1, lsl #2
    1254:	00000000 	andeq	r0, r0, r0
    1258:	00000101 	andeq	r0, r0, r1, lsl #2
    125c:	2c000000 	stccs	0, cr0, [r0], {-0}
    1260:	4a000000 	bmi	1268 <__data_load__+0x408>
    1264:	01000000 	mrseq	r0, (UNDEF: 0)
    1268:	004a5300 	subeq	r5, sl, r0, lsl #6
    126c:	004c0000 	subeq	r0, ip, r0
    1270:	00030000 	andeq	r0, r3, r0
    1274:	4c9f0472 	cfldrsmi	mvf0, [pc], {114}	; 0x72
    1278:	4e000000 	cdpmi	0, 0, cr0, cr0, cr0, {0}
    127c:	03000000 	movweq	r0, #0
    1280:	9f087200 	svcls	0x00087200
    1284:	0000004e 	andeq	r0, r0, lr, asr #32
    1288:	00000050 	andeq	r0, r0, r0, asr r0
    128c:	0c720003 	ldcleq	0, cr0, [r2], #-12
    1290:	0000509f 	muleq	r0, pc, r0	; <UNPREDICTABLE>
    1294:	00005400 	andeq	r5, r0, r0, lsl #8
    1298:	72000300 	andvc	r0, r0, #0, 6
    129c:	00549f10 	subseq	r9, r4, r0, lsl pc
    12a0:	00620000 	rsbeq	r0, r2, r0
    12a4:	00010000 	andeq	r0, r1, r0
    12a8:	00006452 	andeq	r6, r0, r2, asr r4
    12ac:	00006c00 	andeq	r6, r0, r0, lsl #24
    12b0:	53000100 	movwpl	r0, #256	; 0x100
    12b4:	0000007a 	andeq	r0, r0, sl, ror r0
    12b8:	0000007a 	andeq	r0, r0, sl, ror r0
    12bc:	7a520001 	bvc	14812c8 <_bsl_base_address+0x127f2c8>
    12c0:	7c000000 	stcvc	0, cr0, [r0], {-0}
    12c4:	03000000 	movweq	r0, #0
    12c8:	9f047200 	svcls	0x00047200
    12cc:	0000007c 	andeq	r0, r0, ip, ror r0
    12d0:	0000008a 	andeq	r0, r0, sl, lsl #1
    12d4:	a2520001 	subsge	r0, r2, #1
    12d8:	a6000000 	strge	r0, [r0], -r0
    12dc:	01000000 	mrseq	r0, (UNDEF: 0)
    12e0:	00005300 	andeq	r5, r0, r0, lsl #6
    12e4:	00000000 	andeq	r0, r0, r0
    12e8:	00060000 	andeq	r0, r6, r0
	...
    12f4:	00000090 	muleq	r0, r0, r0
    12f8:	00710006 	rsbseq	r0, r1, r6
    12fc:	9f1aff08 	svcls	0x001aff08
    1300:	00000090 	muleq	r0, r0, r0
    1304:	0000009c 	muleq	r0, ip, r0
    1308:	01f30007 	mvnseq	r0, r7
    130c:	1aff0851 	bne	fffc3458 <__stack+0xdffc2b80>
    1310:	00009c9f 	muleq	r0, pc, ip	; <UNPREDICTABLE>
    1314:	0000a600 	andeq	sl, r0, r0, lsl #12
    1318:	71000600 	tstvc	r0, r0, lsl #12
    131c:	1aff0800 	bne	fffc3324 <__stack+0xdffc2a4c>
    1320:	0000009f 	muleq	r0, pc, r0	; <UNPREDICTABLE>
	...
    132c:	00000101 	andeq	r0, r0, r1, lsl #2
    1330:	00000000 	andeq	r0, r0, r0
    1334:	00000a00 	andeq	r0, r0, r0, lsl #20
    1338:	50000100 	andpl	r0, r0, r0, lsl #2
    133c:	0000000a 	andeq	r0, r0, sl
    1340:	00000014 	andeq	r0, r0, r4, lsl r0
    1344:	14540001 	ldrbne	r0, [r4], #-1
    1348:	16000000 	strne	r0, [r0], -r0
    134c:	04000000 	streq	r0, [r0], #-0
    1350:	5001f300 	andpl	pc, r1, r0, lsl #6
    1354:	0000169f 	muleq	r0, pc, r6	; <UNPREDICTABLE>
    1358:	00002400 	andeq	r2, r0, r0, lsl #8
    135c:	54000100 	strpl	r0, [r0], #-256	; 0xffffff00
	...
    1370:	0000000f 	andeq	r0, r0, pc
    1374:	0f510001 	svceq	0x00510001
    1378:	24000000 	strcs	r0, [r0], #-0
    137c:	04000000 	streq	r0, [r0], #-0
    1380:	5101f300 	mrspl	pc, SP_irq	; <UNPREDICTABLE>
    1384:	0000009f 	muleq	r0, pc, r0	; <UNPREDICTABLE>
    1388:	00000000 	andeq	r0, r0, r0
    138c:	10000000 	andne	r0, r0, r0
    1390:	24000000 	strcs	r0, [r0], #-0
    1394:	01000000 	mrseq	r0, (UNDEF: 0)
    1398:	00005000 	andeq	r5, r0, r0
	...
    13b0:	00240000 	eoreq	r0, r4, r0
    13b4:	00010000 	andeq	r0, r1, r0
    13b8:	00002450 	andeq	r2, r0, r0, asr r4
    13bc:	00003800 	andeq	r3, r0, r0, lsl #16
    13c0:	f3000400 	vshl.u8	d0, d0, d0
    13c4:	389f5001 	ldmcc	pc, {r0, ip, lr}	; <UNPREDICTABLE>
    13c8:	66000000 	strvs	r0, [r0], -r0
    13cc:	01000000 	mrseq	r0, (UNDEF: 0)
    13d0:	00665000 	rsbeq	r5, r6, r0
    13d4:	00720000 	rsbseq	r0, r2, r0
    13d8:	00040000 	andeq	r0, r4, r0
    13dc:	9f5001f3 	svcls	0x005001f3
    13e0:	00000072 	andeq	r0, r0, r2, ror r0
    13e4:	00000080 	andeq	r0, r0, r0, lsl #1
    13e8:	80500001 	subshi	r0, r0, r1
    13ec:	88000000 	stmdahi	r0, {}	; <UNPREDICTABLE>
    13f0:	04000000 	streq	r0, [r0], #-0
    13f4:	5001f300 	andpl	pc, r1, r0, lsl #6
    13f8:	0000009f 	muleq	r0, pc, r0	; <UNPREDICTABLE>
	...
    1410:	00002400 	andeq	r2, r0, r0, lsl #8
    1414:	52000100 	andpl	r0, r0, #0, 2
    1418:	00000024 	andeq	r0, r0, r4, lsr #32
    141c:	00000038 	andeq	r0, r0, r8, lsr r0
    1420:	01f30004 	mvnseq	r0, r4
    1424:	00389f52 	eorseq	r9, r8, r2, asr pc
    1428:	00480000 	subeq	r0, r8, r0
    142c:	00010000 	andeq	r0, r1, r0
    1430:	00004852 	andeq	r4, r0, r2, asr r8
    1434:	00005800 	andeq	r5, r0, r0, lsl #16
    1438:	76000300 	strvc	r0, [r0], -r0, lsl #6
    143c:	00580188 	subseq	r0, r8, r8, lsl #3
    1440:	00720000 	rsbseq	r0, r2, r0
    1444:	00040000 	andeq	r0, r4, r0
    1448:	9f5201f3 	svcls	0x005201f3
    144c:	00000072 	andeq	r0, r0, r2, ror r0
    1450:	00000088 	andeq	r0, r0, r8, lsl #1
    1454:	00520001 	subseq	r0, r2, r1
	...
    146c:	24000000 	strcs	r0, [r0], #-0
    1470:	01000000 	mrseq	r0, (UNDEF: 0)
    1474:	00245300 	eoreq	r5, r4, r0, lsl #6
    1478:	00380000 	eorseq	r0, r8, r0
    147c:	00040000 	andeq	r0, r4, r0
    1480:	9f5301f3 	svcls	0x005301f3
    1484:	00000038 	andeq	r0, r0, r8, lsr r0
    1488:	00000064 	andeq	r0, r0, r4, rrx
    148c:	64530001 	ldrbvs	r0, [r3], #-1
    1490:	70000000 	andvc	r0, r0, r0
    1494:	05000000 	streq	r0, [r0, #-0]
    1498:	77007600 	strvc	r7, [r0, -r0, lsl #12]
    149c:	00702200 	rsbseq	r2, r0, r0, lsl #4
    14a0:	00720000 	rsbseq	r0, r2, r0
    14a4:	00040000 	andeq	r0, r4, r0
    14a8:	9f5301f3 	svcls	0x005301f3
    14ac:	00000072 	andeq	r0, r0, r2, ror r0
    14b0:	00000088 	andeq	r0, r0, r8, lsl #1
    14b4:	00530001 	subseq	r0, r3, r1
    14b8:	00000000 	andeq	r0, r0, r0
    14bc:	01000000 	mrseq	r0, (UNDEF: 0)
    14c0:	00003800 	andeq	r3, r0, r0, lsl #16
    14c4:	00007200 	andeq	r7, r0, r0, lsl #4
    14c8:	75000400 	strvc	r0, [r0, #-1024]	; 0xfffffc00
    14cc:	009f0188 	addseq	r0, pc, r8, lsl #3
	...
    14dc:	00001600 	andeq	r1, r0, r0, lsl #12
    14e0:	00003200 	andeq	r3, r0, r0, lsl #4
    14e4:	55000100 	strpl	r0, [r0, #-256]	; 0xffffff00
    14e8:	00000038 	andeq	r0, r0, r8, lsr r0
    14ec:	00000074 	andeq	r0, r0, r4, ror r0
    14f0:	7a550001 	bvc	15414fc <_bsl_base_address+0x133f4fc>
    14f4:	88000000 	stmdahi	r0, {}	; <UNPREDICTABLE>
    14f8:	01000000 	mrseq	r0, (UNDEF: 0)
    14fc:	00005500 	andeq	r5, r0, r0, lsl #10
	...
    1508:	09680000 	stmdbeq	r8!, {}^	; <UNPREDICTABLE>
    150c:	098a0000 	stmibeq	sl, {}	; <UNPREDICTABLE>
    1510:	00010000 	andeq	r0, r1, r0
    1514:	00098a50 	andeq	r8, r9, r0, asr sl
    1518:	000a4800 	andeq	r4, sl, r0, lsl #16
    151c:	91000200 	mrsls	r0, R8_usr
    1520:	00000054 	andeq	r0, r0, r4, asr r0
	...
    1534:	00096800 	andeq	r6, r9, r0, lsl #16
    1538:	00098a00 	andeq	r8, r9, r0, lsl #20
    153c:	51000100 	mrspl	r0, (UNDEF: 16)
    1540:	0000098a 	andeq	r0, r0, sl, lsl #19
    1544:	000009c4 	andeq	r0, r0, r4, asr #19
    1548:	c4590001 	ldrbgt	r0, [r9], #-1
    154c:	c6000009 	strgt	r0, [r0], -r9
    1550:	01000009 	tsteq	r0, r9
    1554:	09c65300 	stmibeq	r6, {r8, r9, ip, lr}^
    1558:	0a080000 	beq	201560 <_tlv_base_address+0x560>
    155c:	00010000 	andeq	r0, r1, r0
    1560:	000a0859 	andeq	r0, sl, r9, asr r8
    1564:	000a1400 	andeq	r1, sl, r0, lsl #8
    1568:	f3000400 	vshl.u8	d0, d0, d0
    156c:	149f5101 	ldrne	r5, [pc], #257	; 1574 <__data_load__+0x714>
    1570:	4800000a 	stmdami	r0, {r1, r3}
    1574:	0100000a 	tsteq	r0, sl
    1578:	00005900 	andeq	r5, r0, r0, lsl #18
	...
    1584:	00000009 	andeq	r0, r0, r9
    1588:	09800000 	stmibeq	r0, {}	; <UNPREDICTABLE>
    158c:	0a020000 	beq	81594 <__data_load__+0x80734>
    1590:	00010000 	andeq	r0, r1, r0
    1594:	000a0256 	andeq	r0, sl, r6, asr r2
    1598:	000a0600 	andeq	r0, sl, r0, lsl #12
    159c:	7d000600 	stcvc	6, cr0, [r0, #-0]
    15a0:	c8230600 	stmdagt	r3!, {r9, sl}
    15a4:	000a1402 	andeq	r1, sl, r2, lsl #8
    15a8:	000a3600 	andeq	r3, sl, r0, lsl #12
    15ac:	56000100 	strpl	r0, [r0], -r0, lsl #2
    15b0:	00000a38 	andeq	r0, r0, r8, lsr sl
    15b4:	00000a48 	andeq	r0, r0, r8, asr #20
    15b8:	00560001 	subseq	r0, r6, r1
    15bc:	00000000 	andeq	r0, r0, r0
    15c0:	01000000 	mrseq	r0, (UNDEF: 0)
    15c4:	00000000 	andeq	r0, r0, r0
    15c8:	00098000 	andeq	r8, r9, r0
    15cc:	00098600 	andeq	r8, r9, r0, lsl #12
    15d0:	7d000700 	stcvc	7, cr0, [r0, #-0]
    15d4:	c8230600 	stmdagt	r3!, {r9, sl}
    15d8:	098a9f02 	stmibeq	sl, {r1, r8, r9, sl, fp, ip, pc}
    15dc:	0a060000 	beq	1815e4 <__data_load__+0x180784>
    15e0:	00070000 	andeq	r0, r7, r0
    15e4:	2306007d 	movwcs	r0, #24701	; 0x607d
    15e8:	149f02c8 	ldrne	r0, [pc], #712	; 15f0 <__data_load__+0x790>
    15ec:	4800000a 	stmdami	r0, {r1, r3}
    15f0:	0700000a 	streq	r0, [r0, -sl]
    15f4:	06007d00 	streq	r7, [r0], -r0, lsl #26
    15f8:	9f02c823 	svcls	0x0002c823
	...
    1604:	00000001 	andeq	r0, r0, r1
    1608:	098a0000 	stmibeq	sl, {}	; <UNPREDICTABLE>
    160c:	0a020000 	beq	81614 <__data_load__+0x807b4>
    1610:	00040000 	andeq	r0, r4, r0
    1614:	9f018876 	svcls	0x00018876
    1618:	00000a14 	andeq	r0, r0, r4, lsl sl
    161c:	00000a36 	andeq	r0, r0, r6, lsr sl
    1620:	88760004 	ldmdahi	r6!, {r2}^
    1624:	0a389f01 	beq	e29230 <_bsl_base_address+0xc27230>
    1628:	0a480000 	beq	1201630 <_bsl_base_address+0xfff630>
    162c:	00040000 	andeq	r0, r4, r0
    1630:	9f018876 	svcls	0x00018876
	...
    163c:	02000000 	andeq	r0, r0, #0
    1640:	00000002 	andeq	r0, r0, r2
    1644:	098c0000 	stmibeq	ip, {}	; <UNPREDICTABLE>
    1648:	09900000 	ldmibeq	r0, {}	; <UNPREDICTABLE>
    164c:	00030000 	andeq	r0, r3, r0
    1650:	909f7f75 	addsls	r7, pc, r5, ror pc	; <UNPREDICTABLE>
    1654:	ae000009 	cdpge	0, 0, cr0, cr0, cr9, {0}
    1658:	01000009 	tsteq	r0, r9
    165c:	09ae5400 	stmibeq	lr!, {sl, ip, lr}
    1660:	09be0000 	ldmibeq	lr!, {}	; <UNPREDICTABLE>
    1664:	00030000 	andeq	r0, r3, r0
    1668:	be9f7f74 	mrclt	15, 4, r7, cr15, cr4, {3}
    166c:	06000009 	streq	r0, [r0], -r9
    1670:	0100000a 	tsteq	r0, sl
    1674:	0a145400 	beq	51667c <_bsl_base_address+0x31467c>
    1678:	0a480000 	beq	1201680 <_bsl_base_address+0xfff680>
    167c:	00010000 	andeq	r0, r1, r0
    1680:	00000054 	andeq	r0, r0, r4, asr r0
    1684:	00000000 	andeq	r0, r0, r0
    1688:	02000000 	andeq	r0, r0, #0
    168c:	ae000000 	cdpge	0, 0, cr0, cr0, cr0, {0}
    1690:	be000009 	cdplt	0, 0, cr0, cr0, cr9, {0}
    1694:	05000009 	streq	r0, [r0, #-9]
    1698:	00743100 	rsbseq	r3, r4, r0, lsl #2
    169c:	09be9f24 	ldmibeq	lr!, {r2, r5, r8, r9, sl, fp, ip, pc}
    16a0:	0a060000 	beq	1816a8 <__data_load__+0x180848>
    16a4:	00050000 	andeq	r0, r5, r0
    16a8:	24007431 	strcs	r7, [r0], #-1073	; 0xfffffbcf
    16ac:	000a149f 	muleq	sl, pc, r4	; <UNPREDICTABLE>
    16b0:	000a4800 	andeq	r4, sl, r0, lsl #16
    16b4:	31000500 	tstcc	r0, r0, lsl #10
    16b8:	9f240074 	svcls	0x00240074
	...
    16c8:	09ce0000 	stmibeq	lr, {}^	; <UNPREDICTABLE>
    16cc:	09ed0000 	stmibeq	sp!, {}^	; <UNPREDICTABLE>
    16d0:	00010000 	andeq	r0, r1, r0
    16d4:	000a1452 	andeq	r1, sl, r2, asr r4
    16d8:	000a2700 	andeq	r2, sl, r0, lsl #14
    16dc:	52000100 	andpl	r0, r0, #0, 2
    16e0:	00000a38 	andeq	r0, r0, r8, lsr sl
    16e4:	00000a41 	andeq	r0, r0, r1, asr #20
    16e8:	00520001 	subseq	r0, r2, r1
	...
    16f8:	e2000000 	and	r0, r0, #0
    16fc:	e4000009 	str	r0, [r0], #-9
    1700:	01000009 	tsteq	r0, r9
    1704:	09e45300 	stmibeq	r4!, {r8, r9, ip, lr}^
    1708:	0a060000 	beq	181710 <__data_load__+0x1808b0>
    170c:	00010000 	andeq	r0, r1, r0
    1710:	000a145a 	andeq	r1, sl, sl, asr r4
    1714:	000a3800 	andeq	r3, sl, r0, lsl #16
    1718:	5a000100 	bpl	1b20 <__data_load__+0xcc0>
    171c:	00000a3c 	andeq	r0, r0, ip, lsr sl
    1720:	00000a48 	andeq	r0, r0, r8, asr #20
    1724:	005a0001 	subseq	r0, sl, r1
	...
    1730:	01010000 	mrseq	r0, (UNDEF: 1)
    1734:	00000000 	andeq	r0, r0, r0
    1738:	09000000 	stmdbeq	r0, {}	; <UNPREDICTABLE>
    173c:	01000000 	mrseq	r0, (UNDEF: 0)
    1740:	00095000 	andeq	r5, r9, r0
    1744:	00400000 	subeq	r0, r0, r0
    1748:	00010000 	andeq	r0, r1, r0
    174c:	00004055 	andeq	r4, r0, r5, asr r0
    1750:	00004200 	andeq	r4, r0, r0, lsl #4
    1754:	f3000400 	vshl.u8	d0, d0, d0
    1758:	429f5001 	addsmi	r5, pc, #1
    175c:	9c000000 	stcls	0, cr0, [r0], {-0}
    1760:	01000000 	mrseq	r0, (UNDEF: 0)
    1764:	00005500 	andeq	r5, r0, r0, lsl #10
	...
    1778:	00000009 	andeq	r0, r0, r9
    177c:	09510001 	ldmdbeq	r1, {r0}^
    1780:	18000000 	stmdane	r0, {}	; <UNPREDICTABLE>
    1784:	01000000 	mrseq	r0, (UNDEF: 0)
    1788:	00185400 	andseq	r5, r8, r0, lsl #8
    178c:	009c0000 	addseq	r0, ip, r0
    1790:	00040000 	andeq	r0, r4, r0
    1794:	9f5101f3 	svcls	0x005101f3
	...
    17a8:	00000014 	andeq	r0, r0, r4, lsl r0
    17ac:	00000038 	andeq	r0, r0, r8, lsr r0
    17b0:	42560001 	subsmi	r0, r6, #1
    17b4:	54000000 	strpl	r0, [r0], #-0
    17b8:	01000000 	mrseq	r0, (UNDEF: 0)
    17bc:	006a5600 	rsbeq	r5, sl, r0, lsl #12
    17c0:	00760000 	rsbseq	r0, r6, r0
    17c4:	00010000 	andeq	r0, r1, r0
    17c8:	00007656 	andeq	r7, r0, r6, asr r6
    17cc:	00008800 	andeq	r8, r0, r0, lsl #16
    17d0:	53000100 	movwpl	r0, #256	; 0x100
	...
    17e0:	00240000 	eoreq	r0, r4, r0
    17e4:	00400000 	subeq	r0, r0, r0
    17e8:	00010000 	andeq	r0, r1, r0
    17ec:	00004254 	andeq	r4, r0, r4, asr r2
    17f0:	00006000 	andeq	r6, r0, r0
    17f4:	54000100 	strpl	r0, [r0], #-256	; 0xffffff00
    17f8:	0000006a 	andeq	r0, r0, sl, rrx
    17fc:	0000009c 	muleq	r0, ip, r0
    1800:	00540001 	subseq	r0, r4, r1
	...
    1810:	00003000 	andeq	r3, r0, r0
    1814:	00003800 	andeq	r3, r0, r0, lsl #16
    1818:	50000100 	andpl	r0, r0, r0, lsl #2
    181c:	00000042 	andeq	r0, r0, r2, asr #32
    1820:	00000044 	andeq	r0, r0, r4, asr #32
    1824:	72500001 	subsvc	r0, r0, #1
    1828:	80000000 	andhi	r0, r0, r0
    182c:	01000000 	mrseq	r0, (UNDEF: 0)
    1830:	00005000 	andeq	r5, r0, r0
	...
    183c:	004a0000 	subeq	r0, sl, r0
    1840:	005c0000 	subseq	r0, ip, r0
    1844:	00010000 	andeq	r0, r1, r0
    1848:	00006a50 	andeq	r6, r0, r0, asr sl
    184c:	00006e00 	andeq	r6, r0, r0, lsl #28
    1850:	50000100 	andpl	r0, r0, r0, lsl #2
	...
    185c:	02000000 	andeq	r0, r0, #0
    1860:	00000002 	andeq	r0, r0, r2
    1864:	0000009c 	muleq	r0, ip, r0
    1868:	000000ad 	andeq	r0, r0, sp, lsr #1
    186c:	ad500001 	ldclge	0, cr0, [r0, #-4]
    1870:	4a000000 	bmi	1878 <__data_load__+0xa18>
    1874:	01000001 	tsteq	r0, r1
    1878:	014a5500 	cmpeq	sl, r0, lsl #10
    187c:	01500000 	cmpeq	r0, r0
    1880:	00040000 	andeq	r0, r4, r0
    1884:	9f5001f3 	svcls	0x005001f3
    1888:	00000150 	andeq	r0, r0, r0, asr r1
    188c:	00000260 	andeq	r0, r0, r0, ror #4
    1890:	00550001 	subseq	r0, r5, r1
	...
    18a0:	9c000000 	stcls	0, cr0, [r0], {-0}
    18a4:	ad000000 	stcge	0, cr0, [r0, #-0]
    18a8:	01000000 	mrseq	r0, (UNDEF: 0)
    18ac:	00ad5100 	adceq	r5, sp, r0, lsl #2
    18b0:	00b40000 	adcseq	r0, r4, r0
    18b4:	00010000 	andeq	r0, r1, r0
    18b8:	0000b454 	andeq	fp, r0, r4, asr r4
    18bc:	0000de00 	andeq	sp, r0, r0, lsl #28
    18c0:	71000300 	mrsvc	r0, LR_irq
    18c4:	00de9f08 	sbcseq	r9, lr, r8, lsl #30
    18c8:	02600000 	rsbeq	r0, r0, #0
    18cc:	00040000 	andeq	r0, r4, r0
    18d0:	9f5101f3 	svcls	0x005101f3
	...
    18e0:	00b20000 	adcseq	r0, r2, r0
    18e4:	01440000 	mrseq	r0, (UNDEF: 68)
    18e8:	00010000 	andeq	r0, r1, r0
    18ec:	00015051 	andeq	r5, r1, r1, asr r0
    18f0:	0001ce00 	andeq	ip, r1, r0, lsl #28
    18f4:	51000100 	mrspl	r0, (UNDEF: 16)
    18f8:	000001d4 	ldrdeq	r0, [r0], -r4
    18fc:	00000260 	andeq	r0, r0, r0, ror #4
    1900:	00510001 	subseq	r0, r1, r1
	...
    1910:	b4000000 	strlt	r0, [r0], #-0
    1914:	da000000 	ble	191c <__data_load__+0xabc>
    1918:	01000000 	mrseq	r0, (UNDEF: 0)
    191c:	01125400 	tsteq	r2, r0, lsl #8
    1920:	01140000 	tsteq	r4, r0
    1924:	00010000 	andeq	r0, r1, r0
    1928:	0001a254 	andeq	sl, r1, r4, asr r2
    192c:	0001b000 	andeq	fp, r1, r0
    1930:	54000100 	strpl	r0, [r0], #-256	; 0xffffff00
    1934:	000001b0 			; <UNDEFINED> instruction: 0x000001b0
    1938:	000001be 			; <UNDEFINED> instruction: 0x000001be
    193c:	01f30005 	mvnseq	r0, r5
    1940:	001c3451 	andseq	r3, ip, r1, asr r4
	...
    1954:	bc000000 	stclt	0, cr0, [r0], {-0}
    1958:	2e000000 	cdpcs	0, 0, cr0, cr0, cr0, {0}
    195c:	01000001 	tsteq	r0, r1
    1960:	01505200 	cmpeq	r0, r0, lsl #4
    1964:	017c0000 	cmneq	ip, r0
    1968:	00010000 	andeq	r0, r1, r0
    196c:	00018652 	andeq	r8, r1, r2, asr r6
    1970:	0001a600 	andeq	sl, r1, r0, lsl #12
    1974:	52000100 	andpl	r0, r0, #0, 2
    1978:	000001a6 	andeq	r0, r0, r6, lsr #3
    197c:	000001ca 	andeq	r0, r0, sl, asr #3
    1980:	d4530001 	ldrble	r0, [r3], #-1
    1984:	f4000001 	vst4.8	{d0-d3}, [r0], r1
    1988:	01000001 	tsteq	r0, r1
    198c:	02005200 	andeq	r5, r0, #0, 4
    1990:	02600000 	rsbeq	r0, r0, #0
    1994:	00010000 	andeq	r0, r1, r0
    1998:	00000052 	andeq	r0, r0, r2, asr r0
	...
    19a4:	2c000000 	stccs	0, cr0, [r0], {-0}
    19a8:	34000001 	strcc	r0, [r0], #-1
    19ac:	01000001 	tsteq	r0, r1
    19b0:	01605300 	cmneq	r0, r0, lsl #6
    19b4:	017c0000 	cmneq	ip, r0
    19b8:	00010000 	andeq	r0, r1, r0
    19bc:	0001f256 	andeq	pc, r1, r6, asr r2	; <UNPREDICTABLE>
    19c0:	0001f600 	andeq	pc, r1, r0, lsl #12
    19c4:	56000100 	strpl	r0, [r0], -r0, lsl #2
	...
    19d8:	000000be 	strheq	r0, [r0], -lr
    19dc:	00000144 	andeq	r0, r0, r4, asr #2
    19e0:	50570001 	subspl	r0, r7, r1
    19e4:	68000001 	stmdavs	r0, {r0}
    19e8:	01000001 	tsteq	r0, r1
    19ec:	01865700 	orreq	r5, r6, r0, lsl #14
    19f0:	01f20000 	mvnseq	r0, r0
    19f4:	00010000 	andeq	r0, r1, r0
    19f8:	00020057 	andeq	r0, r2, r7, asr r0
    19fc:	00026000 	andeq	r6, r2, r0
    1a00:	57000100 	strpl	r0, [r0, -r0, lsl #2]
	...
    1a10:	01010100 	mrseq	r0, (UNDEF: 17)
	...
    1a1c:	00c60000 	sbceq	r0, r6, r0
    1a20:	00c80000 	sbceq	r0, r8, r0
    1a24:	00010000 	andeq	r0, r1, r0
    1a28:	0000c853 	andeq	ip, r0, r3, asr r8
    1a2c:	00011200 	andeq	r1, r1, r0, lsl #4
    1a30:	58000100 	stmdapl	r0, {r8}
    1a34:	00000112 	andeq	r0, r0, r2, lsl r1
    1a38:	00000120 	andeq	r0, r0, r0, lsr #2
    1a3c:	20530001 	subscs	r0, r3, r1
    1a40:	4a000001 	bmi	1a4c <__data_load__+0xbec>
    1a44:	01000001 	tsteq	r0, r1
    1a48:	01505800 	cmpeq	r0, r0, lsl #16
    1a4c:	01900000 	orrseq	r0, r0, r0
    1a50:	00010000 	andeq	r0, r1, r0
    1a54:	00019058 	andeq	r9, r1, r8, asr r0
    1a58:	00019200 	andeq	r9, r1, r0, lsl #4
    1a5c:	53000100 	movwpl	r0, #256	; 0x100
    1a60:	00000192 	muleq	r0, r2, r1
    1a64:	00000240 	andeq	r0, r0, r0, asr #4
    1a68:	40580001 	subsmi	r0, r8, r1
    1a6c:	42000002 	andmi	r0, r0, #2
    1a70:	01000002 	tsteq	r0, r2
    1a74:	02425300 	subeq	r5, r2, #0, 6
    1a78:	02600000 	rsbeq	r0, r0, #0
    1a7c:	00010000 	andeq	r0, r1, r0
    1a80:	00000058 	andeq	r0, r0, r8, asr r0
	...
    1a94:	0000da00 	andeq	sp, r0, r0, lsl #20
    1a98:	0000e200 	andeq	lr, r0, r0, lsl #4
    1a9c:	54000100 	strpl	r0, [r0], #-256	; 0xffffff00
    1aa0:	000000e2 	andeq	r0, r0, r2, ror #1
    1aa4:	000000f6 	strdeq	r0, [r0], -r6
    1aa8:	01f30005 	mvnseq	r0, r5
    1aac:	861c3851 			; <UNDEFINED> instruction: 0x861c3851
    1ab0:	a0000001 	andge	r0, r0, r1
    1ab4:	05000001 	streq	r0, [r0, #-1]
    1ab8:	5101f300 	mrspl	pc, SP_irq	; <UNPREDICTABLE>
    1abc:	01ac1c38 			; <UNDEFINED> instruction: 0x01ac1c38
    1ac0:	01b40000 			; <UNDEFINED> instruction: 0x01b40000
    1ac4:	00010000 	andeq	r0, r1, r0
    1ac8:	0001b452 	andeq	fp, r1, r2, asr r4
    1acc:	0001b800 	andeq	fp, r1, r0, lsl #16
    1ad0:	f3000500 	vrshl.u8	d0, d0, d0
    1ad4:	1c385101 	ldfnes	f5, [r8], #-4
    1ad8:	00000240 	andeq	r0, r0, r0, asr #4
    1adc:	00000248 	andeq	r0, r0, r8, asr #4
    1ae0:	01f30005 	mvnseq	r0, r5
    1ae4:	001c3851 	andseq	r3, ip, r1, asr r8
	...
    1af4:	02000000 	andeq	r0, r0, #0
    1af8:	00000000 	andeq	r0, r0, r0
    1afc:	0000e800 	andeq	lr, r0, r0, lsl #16
    1b00:	0000ee00 	andeq	lr, r0, r0, lsl #28
    1b04:	53000100 	movwpl	r0, #256	; 0x100
    1b08:	000000ee 	andeq	r0, r0, lr, ror #1
    1b0c:	000000f0 	strdeq	r0, [r0], -r0	; <UNPREDICTABLE>
    1b10:	0c740002 	ldcleq	0, cr0, [r4], #-8
    1b14:	00000104 	andeq	r0, r0, r4, lsl #2
    1b18:	00000112 	andeq	r0, r0, r2, lsl r1
    1b1c:	66540001 	ldrbvs	r0, [r4], -r1
    1b20:	86000001 	strhi	r0, [r0], -r1
    1b24:	01000001 	tsteq	r0, r1
    1b28:	01965400 	orrseq	r5, r6, r0, lsl #8
    1b2c:	01a20000 			; <UNDEFINED> instruction: 0x01a20000
    1b30:	00010000 	andeq	r0, r1, r0
    1b34:	0001b453 	andeq	fp, r1, r3, asr r4
    1b38:	0001b800 	andeq	fp, r1, r0, lsl #16
    1b3c:	52000100 	andpl	r0, r0, #0, 2
    1b40:	000001f2 	strdeq	r0, [r0], -r2
    1b44:	00000200 	andeq	r0, r0, r0, lsl #4
    1b48:	00540001 	subseq	r0, r4, r1
    1b4c:	00000000 	andeq	r0, r0, r0
    1b50:	01000000 	mrseq	r0, (UNDEF: 0)
    1b54:	00000100 	andeq	r0, r0, r0, lsl #2
    1b58:	01000000 	mrseq	r0, (UNDEF: 0)
    1b5c:	01000300 	mrseq	r0, LR_irq
    1b60:	e8000000 	stmda	r0, {}	; <UNPREDICTABLE>
    1b64:	f0000000 			; <UNDEFINED> instruction: 0xf0000000
    1b68:	01000000 	mrseq	r0, (UNDEF: 0)
    1b6c:	01045400 	tsteq	r4, r0, lsl #8
    1b70:	010a0000 	mrseq	r0, (UNDEF: 10)
    1b74:	00010000 	andeq	r0, r1, r0
    1b78:	00010a53 	andeq	r0, r1, r3, asr sl
    1b7c:	00011200 	andeq	r1, r1, r0, lsl #4
    1b80:	74000200 	strvc	r0, [r0], #-512	; 0xfffffe00
    1b84:	00013c08 	andeq	r3, r1, r8, lsl #24
    1b88:	00014400 	andeq	r4, r1, r0, lsl #8
    1b8c:	53000100 	movwpl	r0, #256	; 0x100
    1b90:	00000166 	andeq	r0, r0, r6, ror #2
    1b94:	00000186 	andeq	r0, r0, r6, lsl #3
    1b98:	96530001 	ldrbls	r0, [r3], -r1
    1b9c:	a2000001 	andge	r0, r0, #1
    1ba0:	01000001 	tsteq	r0, r1
    1ba4:	01b45000 			; <UNDEFINED> instruction: 0x01b45000
    1ba8:	01b80000 			; <UNDEFINED> instruction: 0x01b80000
    1bac:	00010000 	andeq	r0, r1, r0
    1bb0:	0001f254 	andeq	pc, r1, r4, asr r2	; <UNPREDICTABLE>
    1bb4:	00020000 	andeq	r0, r2, r0
    1bb8:	53000100 	movwpl	r0, #256	; 0x100
	...
    1bc4:	00000101 	andeq	r0, r0, r1, lsl #2
    1bc8:	00010100 	andeq	r0, r1, r0, lsl #2
    1bcc:	00d00000 	sbcseq	r0, r0, r0
    1bd0:	01200000 			; <UNDEFINED> instruction: 0x01200000
    1bd4:	00020000 	andeq	r0, r2, r0
    1bd8:	01869f30 	orreq	r9, r6, r0, lsr pc
    1bdc:	01a20000 			; <UNDEFINED> instruction: 0x01a20000
    1be0:	00020000 	andeq	r0, r2, r0
    1be4:	02009f31 	andeq	r9, r0, #49, 30	; 0xc4
    1be8:	02000000 	andeq	r0, r0, #0
    1bec:	00020000 	andeq	r0, r2, r0
    1bf0:	02009f30 	andeq	r9, r0, #48, 30	; 0xc0
    1bf4:	02120000 	andseq	r0, r2, #0
    1bf8:	00020000 	andeq	r0, r2, r0
    1bfc:	02409f31 	subeq	r9, r0, #49, 30	; 0xc4
    1c00:	02600000 	rsbeq	r0, r0, #0
    1c04:	00020000 	andeq	r0, r2, r0
    1c08:	00009f31 	andeq	r9, r0, r1, lsr pc
	...
    1c14:	00020200 	andeq	r0, r2, r0, lsl #4
    1c18:	00000050 	andeq	r0, r0, r0, asr r0
    1c1c:	00000064 	andeq	r0, r0, r4, rrx
    1c20:	64500001 	ldrbvs	r0, [r0], #-1
    1c24:	ea000000 	b	1c2c <__data_load__+0xdcc>
    1c28:	01000000 	mrseq	r0, (UNDEF: 0)
    1c2c:	00ea5500 	rsceq	r5, sl, r0, lsl #10
    1c30:	00f00000 	rscseq	r0, r0, r0
    1c34:	00040000 	andeq	r0, r4, r0
    1c38:	9f5001f3 	svcls	0x005001f3
	...
    1c44:	00000001 	andeq	r0, r0, r1
    1c48:	0000006a 	andeq	r0, r0, sl, rrx
    1c4c:	0000006e 	andeq	r0, r0, lr, rrx
    1c50:	6e540001 	cdpvs	0, 5, cr0, cr4, cr1, {0}
    1c54:	73000000 	movwvc	r0, #0
    1c58:	01000000 	mrseq	r0, (UNDEF: 0)
    1c5c:	00005100 	andeq	r5, r0, r0, lsl #2
	...
    1c68:	00000066 	andeq	r0, r0, r6, rrx
    1c6c:	00000086 	andeq	r0, r0, r6, lsl #1
    1c70:	00540001 	subseq	r0, r4, r1
	...
    1c7c:	0000a600 	andeq	sl, r0, r0, lsl #12
    1c80:	0000b400 	andeq	fp, r0, r0, lsl #8
    1c84:	54000100 	strpl	r0, [r0], #-256	; 0xffffff00
	...
    1c90:	00000001 	andeq	r0, r0, r1
    1c94:	000000a6 	andeq	r0, r0, r6, lsr #1
    1c98:	000000aa 	andeq	r0, r0, sl, lsr #1
    1c9c:	aa540001 	bge	1501ca8 <_bsl_base_address+0x12ffca8>
    1ca0:	af000000 	svcge	0x00000000
    1ca4:	01000000 	mrseq	r0, (UNDEF: 0)
    1ca8:	00005100 	andeq	r5, r0, r0, lsl #2
    1cac:	00000000 	andeq	r0, r0, r0
    1cb0:	00010000 	andeq	r0, r1, r0
    1cb4:	000000d6 	ldrdeq	r0, [r0], -r6
    1cb8:	000000ea 	andeq	r0, r0, sl, ror #1
    1cbc:	00540001 	subseq	r0, r4, r1
    1cc0:	00000000 	andeq	r0, r0, r0
    1cc4:	01000000 	mrseq	r0, (UNDEF: 0)
    1cc8:	0000d600 	andeq	sp, r0, r0, lsl #12
    1ccc:	0000ea00 	andeq	lr, r0, r0, lsl #20
    1cd0:	55000100 	strpl	r0, [r0, #-256]	; 0xffffff00
	...
    1ce4:	00270000 	eoreq	r0, r7, r0
    1ce8:	00010000 	andeq	r0, r1, r0
    1cec:	00002750 	andeq	r2, r0, r0, asr r7
    1cf0:	00004800 	andeq	r4, r0, r0, lsl #16
    1cf4:	54000100 	strpl	r0, [r0], #-256	; 0xffffff00
    1cf8:	00000048 	andeq	r0, r0, r8, asr #32
    1cfc:	0000004e 	andeq	r0, r0, lr, asr #32
    1d00:	01f30004 	mvnseq	r0, r4
    1d04:	00009f50 	andeq	r9, r0, r0, asr pc
	...
    1d18:	00000020 	andeq	r0, r0, r0, lsr #32
    1d1c:	20510001 	subscs	r0, r1, r1
    1d20:	48000000 	stmdami	r0, {}	; <UNPREDICTABLE>
    1d24:	01000000 	mrseq	r0, (UNDEF: 0)
    1d28:	00485500 	subeq	r5, r8, r0, lsl #10
    1d2c:	004e0000 	subeq	r0, lr, r0
    1d30:	00040000 	andeq	r0, r4, r0
    1d34:	9f5101f3 	svcls	0x005101f3
	...
    1d40:	00100001 	andseq	r0, r0, r1
    1d44:	00400000 	subeq	r0, r0, r0
    1d48:	00010000 	andeq	r0, r1, r0
    1d4c:	00000056 	andeq	r0, r0, r6, asr r0
    1d50:	00000000 	andeq	r0, r0, r0
    1d54:	00000100 	andeq	r0, r0, r0, lsl #2
    1d58:	00001000 	andeq	r1, r0, r0
    1d5c:	00002700 	andeq	r2, r0, r0, lsl #14
    1d60:	50000100 	andpl	r0, r0, r0, lsl #2
    1d64:	00000027 	andeq	r0, r0, r7, lsr #32
    1d68:	00000040 	andeq	r0, r0, r0, asr #32
    1d6c:	00540001 	subseq	r0, r4, r1
    1d70:	00000000 	andeq	r0, r0, r0
    1d74:	01000000 	mrseq	r0, (UNDEF: 0)
    1d78:	00001600 	andeq	r1, r0, r0, lsl #12
    1d7c:	00003800 	andeq	r3, r0, r0, lsl #16
    1d80:	57000100 	strpl	r0, [r0, -r0, lsl #2]
	...
    1d8c:	00000001 	andeq	r0, r0, r1
    1d90:	00000016 	andeq	r0, r0, r6, lsl r0
    1d94:	00000027 	andeq	r0, r0, r7, lsr #32
    1d98:	27500001 	ldrbcs	r0, [r0, -r1]
    1d9c:	38000000 	stmdacc	r0, {}	; <UNPREDICTABLE>
    1da0:	01000000 	mrseq	r0, (UNDEF: 0)
    1da4:	00005400 	andeq	r5, r0, r0, lsl #8
    1da8:	00000000 	andeq	r0, r0, r0
    1dac:	00010000 	andeq	r0, r1, r0
    1db0:	001e0000 	andseq	r0, lr, r0
    1db4:	00270000 	eoreq	r0, r7, r0
    1db8:	00010000 	andeq	r0, r1, r0
    1dbc:	00002753 	andeq	r2, r0, r3, asr r7
    1dc0:	00003000 	andeq	r3, r0, r0
    1dc4:	58000100 	stmdapl	r0, {r8}
	...
    1dd0:	00000001 	andeq	r0, r0, r1
    1dd4:	0000001e 	andeq	r0, r0, lr, lsl r0
    1dd8:	00000027 	andeq	r0, r0, r7, lsr #32
    1ddc:	27500001 	ldrbcs	r0, [r0, -r1]
    1de0:	30000000 	andcc	r0, r0, r0
    1de4:	01000000 	mrseq	r0, (UNDEF: 0)
    1de8:	00005400 	andeq	r5, r0, r0, lsl #8
	...
    1dfc:	00060000 	andeq	r0, r6, r0
    1e00:	00010000 	andeq	r0, r1, r0
    1e04:	00000650 	andeq	r0, r0, r0, asr r6
    1e08:	00000c00 	andeq	r0, r0, r0, lsl #24
    1e0c:	53000100 	movwpl	r0, #256	; 0x100
    1e10:	0000000c 	andeq	r0, r0, ip
    1e14:	00000010 	andeq	r0, r0, r0, lsl r0
    1e18:	01f30004 	mvnseq	r0, r4
    1e1c:	00109f50 	andseq	r9, r0, r0, asr pc
    1e20:	001c0000 	andseq	r0, ip, r0
    1e24:	00010000 	andeq	r0, r1, r0
    1e28:	00000053 	andeq	r0, r0, r3, asr r0
    1e2c:	00000000 	andeq	r0, r0, r0
    1e30:	0a000100 	beq	2238 <__data_load__+0x13d8>
    1e34:	0e000000 	cdpeq	0, 0, cr0, cr0, cr0, {0}
    1e38:	05000000 	streq	r0, [r0, #-0]
    1e3c:	08d00300 	ldmeq	r0, {r8, r9}^
    1e40:	00002000 	andeq	r2, r0, r0
    1e44:	00000000 	andeq	r0, r0, r0
    1e48:	00010000 	andeq	r0, r1, r0
    1e4c:	00000000 	andeq	r0, r0, r0
    1e50:	00000002 	andeq	r0, r0, r2
    1e54:	00500001 	subseq	r0, r0, r1
    1e58:	00000000 	andeq	r0, r0, r0
    1e5c:	Address 0x0000000000001e5c is out of bounds.


Disassembly of section .debug_frame:

00000000 <.debug_frame>:
   0:	0000000c 	andeq	r0, r0, ip
   4:	ffffffff 			; <UNDEFINED> instruction: 0xffffffff
   8:	7c020001 	stcvc	0, cr0, [r2], {1}
   c:	000d0c0e 	andeq	r0, sp, lr, lsl #24
  10:	00000014 	andeq	r0, r0, r4, lsl r0
  14:	00000000 	andeq	r0, r0, r0
  18:	000001d4 	ldrdeq	r0, [r0], -r4
  1c:	00000010 	andeq	r0, r0, r0, lsl r0
  20:	84080e41 	strhi	r0, [r8], #-3649	; 0xfffff1bf
  24:	00018e02 	andeq	r8, r1, r2, lsl #28
  28:	0000000c 	andeq	r0, r0, ip
  2c:	ffffffff 			; <UNDEFINED> instruction: 0xffffffff
  30:	7c020001 	stcvc	0, cr0, [r2], {1}
  34:	000d0c0e 	andeq	r0, sp, lr, lsl #24
  38:	00000014 	andeq	r0, r0, r4, lsl r0
  3c:	00000028 	andeq	r0, r0, r8, lsr #32
  40:	000001e4 	andeq	r0, r0, r4, ror #3
  44:	00000020 	andeq	r0, r0, r0, lsr #32
  48:	84080e41 	strhi	r0, [r8], #-3649	; 0xfffff1bf
  4c:	00018e02 	andeq	r8, r1, r2, lsl #28
  50:	0000000c 	andeq	r0, r0, ip
  54:	ffffffff 			; <UNDEFINED> instruction: 0xffffffff
  58:	7c020001 	stcvc	0, cr0, [r2], {1}
  5c:	000d0c0e 	andeq	r0, sp, lr, lsl #24
  60:	00000018 	andeq	r0, r0, r8, lsl r0
  64:	00000050 	andeq	r0, r0, r0, asr r0
  68:	00000204 	andeq	r0, r0, r4, lsl #4
  6c:	00000028 	andeq	r0, r0, r8, lsr #32
  70:	84100e41 	ldrhi	r0, [r0], #-3649	; 0xfffff1bf
  74:	86038504 	strhi	r8, [r3], -r4, lsl #10
  78:	00018e02 	andeq	r8, r1, r2, lsl #28
  7c:	0000000c 	andeq	r0, r0, ip
  80:	ffffffff 			; <UNDEFINED> instruction: 0xffffffff
  84:	7c020001 	stcvc	0, cr0, [r2], {1}
  88:	000d0c0e 	andeq	r0, sp, lr, lsl #24
  8c:	00000018 	andeq	r0, r0, r8, lsl r0
  90:	0000007c 	andeq	r0, r0, ip, ror r0
  94:	0000022c 	andeq	r0, r0, ip, lsr #4
  98:	00000044 	andeq	r0, r0, r4, asr #32
  9c:	84100e41 	ldrhi	r0, [r0], #-3649	; 0xfffff1bf
  a0:	86038504 	strhi	r8, [r3], -r4, lsl #10
  a4:	00018e02 	andeq	r8, r1, r2, lsl #28
  a8:	0000000c 	andeq	r0, r0, ip
  ac:	ffffffff 			; <UNDEFINED> instruction: 0xffffffff
  b0:	7c020001 	stcvc	0, cr0, [r2], {1}
  b4:	000d0c0e 	andeq	r0, sp, lr, lsl #24
  b8:	00000014 	andeq	r0, r0, r4, lsl r0
  bc:	000000a8 	andeq	r0, r0, r8, lsr #1
  c0:	00000270 	andeq	r0, r0, r0, ror r2
  c4:	00000014 	andeq	r0, r0, r4, lsl r0
  c8:	84080e41 	strhi	r0, [r8], #-3649	; 0xfffff1bf
  cc:	00018e02 	andeq	r8, r1, r2, lsl #28
  d0:	00000014 	andeq	r0, r0, r4, lsl r0
  d4:	000000a8 	andeq	r0, r0, r8, lsr #1
  d8:	00000284 	andeq	r0, r0, r4, lsl #5
  dc:	00000014 	andeq	r0, r0, r4, lsl r0
  e0:	84080e41 	strhi	r0, [r8], #-3649	; 0xfffff1bf
  e4:	00018e02 	andeq	r8, r1, r2, lsl #28
  e8:	0000000c 	andeq	r0, r0, ip
  ec:	ffffffff 			; <UNDEFINED> instruction: 0xffffffff
  f0:	7c020001 	stcvc	0, cr0, [r2], {1}
  f4:	000d0c0e 	andeq	r0, sp, lr, lsl #24
  f8:	00000028 	andeq	r0, r0, r8, lsr #32
  fc:	000000e8 	andeq	r0, r0, r8, ror #1
 100:	00000298 	muleq	r0, r8, r2
 104:	00000574 	andeq	r0, r0, r4, ror r5
 108:	84140e41 	ldrhi	r0, [r4], #-3649	; 0xfffff1bf
 10c:	86048505 	strhi	r8, [r4], -r5, lsl #10
 110:	8e028703 	cdphi	7, 0, cr8, cr2, cr3, {0}
 114:	240e4501 	strcs	r4, [lr], #-1281	; 0xfffffaff
 118:	08890988 	stmeq	r9, {r3, r7, r8, fp}
 11c:	068b078a 	streq	r0, [fp], sl, lsl #15
 120:	00300e44 	eorseq	r0, r0, r4, asr #28
 124:	0000000c 	andeq	r0, r0, ip
 128:	ffffffff 			; <UNDEFINED> instruction: 0xffffffff
 12c:	7c020001 	stcvc	0, cr0, [r2], {1}
 130:	000d0c0e 	andeq	r0, sp, lr, lsl #24
 134:	0000001c 	andeq	r0, r0, ip, lsl r0
 138:	00000124 	andeq	r0, r0, r4, lsr #2
 13c:	0000080c 	andeq	r0, r0, ip, lsl #16
 140:	000000a6 	andeq	r0, r0, r6, lsr #1
 144:	84140e41 	ldrhi	r0, [r4], #-3649	; 0xfffff1bf
 148:	86048505 	strhi	r8, [r4], -r5, lsl #10
 14c:	8e028703 	cdphi	7, 0, cr8, cr2, cr3, {0}
 150:	00000001 	andeq	r0, r0, r1
 154:	0000000c 	andeq	r0, r0, ip
 158:	ffffffff 			; <UNDEFINED> instruction: 0xffffffff
 15c:	7c020001 	stcvc	0, cr0, [r2], {1}
 160:	000d0c0e 	andeq	r0, sp, lr, lsl #24
 164:	0000000c 	andeq	r0, r0, ip
 168:	00000154 	andeq	r0, r0, r4, asr r1
 16c:	000008b4 			; <UNDEFINED> instruction: 0x000008b4
 170:	00000002 	andeq	r0, r0, r2
 174:	0000000c 	andeq	r0, r0, ip
 178:	00000154 	andeq	r0, r0, r4, asr r1
 17c:	000008b8 			; <UNDEFINED> instruction: 0x000008b8
 180:	00000002 	andeq	r0, r0, r2
 184:	0000000c 	andeq	r0, r0, ip
 188:	ffffffff 			; <UNDEFINED> instruction: 0xffffffff
 18c:	7c020001 	stcvc	0, cr0, [r2], {1}
 190:	000d0c0e 	andeq	r0, sp, lr, lsl #24
 194:	00000018 	andeq	r0, r0, r8, lsl r0
 198:	00000184 	andeq	r0, r0, r4, lsl #3
 19c:	000008bc 			; <UNDEFINED> instruction: 0x000008bc
 1a0:	00000024 	andeq	r0, r0, r4, lsr #32
 1a4:	84100e42 	ldrhi	r0, [r0], #-3650	; 0xfffff1be
 1a8:	86038504 	strhi	r8, [r3], -r4, lsl #10
 1ac:	00018e02 	andeq	r8, r1, r2, lsl #28
 1b0:	0000000c 	andeq	r0, r0, ip
 1b4:	ffffffff 			; <UNDEFINED> instruction: 0xffffffff
 1b8:	7c020001 	stcvc	0, cr0, [r2], {1}
 1bc:	000d0c0e 	andeq	r0, sp, lr, lsl #24
 1c0:	00000024 	andeq	r0, r0, r4, lsr #32
 1c4:	000001b0 			; <UNDEFINED> instruction: 0x000001b0
 1c8:	000008e0 	andeq	r0, r0, r0, ror #17
 1cc:	00000088 	andeq	r0, r0, r8, lsl #1
 1d0:	84140e41 	ldrhi	r0, [r4], #-3649	; 0xfffff1bf
 1d4:	86048505 	strhi	r8, [r4], -r5, lsl #10
 1d8:	8e028703 	cdphi	7, 0, cr8, cr2, cr3, {0}
 1dc:	180e4201 	stmdane	lr, {r0, r9, lr}
 1e0:	0e420688 	cdpeq	6, 4, cr0, cr2, cr8, {4}
 1e4:	00000020 	andeq	r0, r0, r0, lsr #32
 1e8:	0000000c 	andeq	r0, r0, ip
 1ec:	ffffffff 			; <UNDEFINED> instruction: 0xffffffff
 1f0:	7c020001 	stcvc	0, cr0, [r2], {1}
 1f4:	000d0c0e 	andeq	r0, sp, lr, lsl #24
 1f8:	00000014 	andeq	r0, r0, r4, lsl r0
 1fc:	000001e8 	andeq	r0, r0, r8, ror #3
 200:	00000db8 			; <UNDEFINED> instruction: 0x00000db8
 204:	00000018 	andeq	r0, r0, r8, lsl r0
 208:	84080e42 	strhi	r0, [r8], #-3650	; 0xfffff1be
 20c:	00018e02 	andeq	r8, r1, r2, lsl #28
 210:	00000028 	andeq	r0, r0, r8, lsr #32
 214:	000001e8 	andeq	r0, r0, r8, ror #3
 218:	00000968 	andeq	r0, r0, r8, ror #18
 21c:	000000e0 	andeq	r0, r0, r0, ror #1
 220:	84140e41 	ldrhi	r0, [r4], #-3649	; 0xfffff1bf
 224:	86048505 	strhi	r8, [r4], -r5, lsl #10
 228:	8e028703 	cdphi	7, 0, cr8, cr2, cr3, {0}
 22c:	240e4601 	strcs	r4, [lr], #-1537	; 0xfffff9ff
 230:	08890988 	stmeq	r9, {r3, r7, r8, fp}
 234:	068b078a 	streq	r0, [fp], sl, lsl #15
 238:	00300e44 	eorseq	r0, r0, r4, asr #28
 23c:	0000000c 	andeq	r0, r0, ip
 240:	ffffffff 			; <UNDEFINED> instruction: 0xffffffff
 244:	7c020001 	stcvc	0, cr0, [r2], {1}
 248:	000d0c0e 	andeq	r0, sp, lr, lsl #24
 24c:	0000001c 	andeq	r0, r0, ip, lsl r0
 250:	0000023c 	andeq	r0, r0, ip, lsr r2
 254:	00000a48 	andeq	r0, r0, r8, asr #20
 258:	0000009c 	muleq	r0, ip, r0
 25c:	83180e41 	tsthi	r8, #1040	; 0x410
 260:	85058406 	strhi	r8, [r5, #-1030]	; 0xfffffbfa
 264:	87038604 	strhi	r8, [r3, -r4, lsl #12]
 268:	00018e02 	andeq	r8, r1, r2, lsl #28
 26c:	00000020 	andeq	r0, r0, r0, lsr #32
 270:	0000023c 	andeq	r0, r0, ip, lsr r2
 274:	00000ae4 	andeq	r0, r0, r4, ror #21
 278:	000001c4 	andeq	r0, r0, r4, asr #3
 27c:	84140e41 	ldrhi	r0, [r4], #-3649	; 0xfffff1bf
 280:	86048505 	strhi	r8, [r4], -r5, lsl #10
 284:	8e028703 	cdphi	7, 0, cr8, cr2, cr3, {0}
 288:	180e4401 	stmdane	lr, {r0, sl, lr}
 28c:	00000688 	andeq	r0, r0, r8, lsl #13
 290:	0000000c 	andeq	r0, r0, ip
 294:	ffffffff 			; <UNDEFINED> instruction: 0xffffffff
 298:	7c020001 	stcvc	0, cr0, [r2], {1}
 29c:	000d0c0e 	andeq	r0, sp, lr, lsl #24
 2a0:	00000020 	andeq	r0, r0, r0, lsr #32
 2a4:	00000290 	muleq	r0, r0, r2
 2a8:	00000ca8 	andeq	r0, r0, r8, lsr #25
 2ac:	0000004e 	andeq	r0, r0, lr, asr #32
 2b0:	84140e41 	ldrhi	r0, [r4], #-3649	; 0xfffff1bf
 2b4:	86048505 	strhi	r8, [r4], -r5, lsl #10
 2b8:	8e028703 	cdphi	7, 0, cr8, cr2, cr3, {0}
 2bc:	180e4501 	stmdane	lr, {r0, r8, sl, lr}
 2c0:	00000688 	andeq	r0, r0, r8, lsl #13
 2c4:	00000018 	andeq	r0, r0, r8, lsl r0
 2c8:	00000290 	muleq	r0, r0, r2
 2cc:	00000cf8 	strdeq	r0, [r0], -r8
 2d0:	000000a0 	andeq	r0, r0, r0, lsr #1
 2d4:	84100e42 	ldrhi	r0, [r0], #-3650	; 0xfffff1be
 2d8:	86038504 	strhi	r8, [r3], -r4, lsl #10
 2dc:	00018e02 	andeq	r8, r1, r2, lsl #28
 2e0:	0000000c 	andeq	r0, r0, ip
 2e4:	ffffffff 			; <UNDEFINED> instruction: 0xffffffff
 2e8:	7c020001 	stcvc	0, cr0, [r2], {1}
 2ec:	000d0c0e 	andeq	r0, sp, lr, lsl #24
 2f0:	0000000c 	andeq	r0, r0, ip
 2f4:	000002e0 	andeq	r0, r0, r0, ror #5
 2f8:	00000d98 	muleq	r0, r8, sp
 2fc:	0000001c 	andeq	r0, r0, ip, lsl r0
 300:	0000000c 	andeq	r0, r0, ip
 304:	ffffffff 			; <UNDEFINED> instruction: 0xffffffff
 308:	7c020001 	stcvc	0, cr0, [r2], {1}
 30c:	000d0c0e 	andeq	r0, sp, lr, lsl #24
 310:	0000000c 	andeq	r0, r0, ip
 314:	00000300 	andeq	r0, r0, r0, lsl #6
 318:	00000db4 			; <UNDEFINED> instruction: 0x00000db4
 31c:	00000002 	andeq	r0, r0, r2

Disassembly of section .debug_ranges:

00000000 <.debug_ranges>:
   0:	000001dc 	ldrdeq	r0, [r0], -ip
   4:	000002d0 	ldrdeq	r0, [r0], -r0	; <UNPREDICTABLE>
   8:	000002d6 	ldrdeq	r0, [r0], -r6
   c:	000002f2 	strdeq	r0, [r0], -r2
  10:	000003f8 	strdeq	r0, [r0], -r8
  14:	000003fc 	strdeq	r0, [r0], -ip
  18:	00000400 	andeq	r0, r0, r0, lsl #8
  1c:	00000400 	andeq	r0, r0, r0, lsl #8
  20:	00000464 	andeq	r0, r0, r4, ror #8
  24:	0000046a 	andeq	r0, r0, sl, ror #8
  28:	00000478 	andeq	r0, r0, r8, ror r4
  2c:	00000498 	muleq	r0, r8, r4
  30:	000004be 			; <UNDEFINED> instruction: 0x000004be
  34:	000004f0 	strdeq	r0, [r0], -r0	; <UNPREDICTABLE>
  38:	0000051a 	andeq	r0, r0, sl, lsl r5
  3c:	0000053c 	andeq	r0, r0, ip, lsr r5
  40:	0000053e 	andeq	r0, r0, lr, lsr r5
  44:	00000540 	andeq	r0, r0, r0, asr #10
	...
  50:	0000099a 	muleq	r0, sl, r9
  54:	000009ae 	andeq	r0, r0, lr, lsr #19
  58:	000009be 			; <UNDEFINED> instruction: 0x000009be
  5c:	00000a02 	andeq	r0, r0, r2, lsl #20
  60:	00000a14 	andeq	r0, r0, r4, lsl sl
  64:	00000a2e 	andeq	r0, r0, lr, lsr #20
  68:	00000a38 	andeq	r0, r0, r8, lsr sl
  6c:	00000a48 	andeq	r0, r0, r8, asr #20
	...
  78:	00000968 	andeq	r0, r0, r8, ror #18
  7c:	00000a48 	andeq	r0, r0, r8, asr #20
  80:	00000db8 			; <UNDEFINED> instruction: 0x00000db8
  84:	00000dd0 	ldrdeq	r0, [r0], -r0	; <UNPREDICTABLE>
	...
